
DoppelMagnetruehrer.elf:     file format elf32-avr

Sections:
Idx Name          Size      VMA       LMA       File off  Algn
  0 .text         000077e6  00000000  00000000  000000b4  2**1
                  CONTENTS, ALLOC, LOAD, READONLY, CODE
  1 .data         00000314  00802000  000077e6  0000789a  2**1
                  CONTENTS, ALLOC, LOAD, DATA
  2 .bss          00000398  00802314  00802314  00007bae  2**0
                  ALLOC
  3 .eeprom       00000177  00810000  00810000  00007bae  2**0
                  CONTENTS, ALLOC, LOAD, DATA
  4 .comment      00000030  00000000  00000000  00007d25  2**0
                  CONTENTS, READONLY
  5 .note.gnu.avr.deviceinfo 00000040  00000000  00000000  00007d58  2**2
                  CONTENTS, READONLY
  6 .debug_aranges 00000458  00000000  00000000  00007d98  2**3
                  CONTENTS, READONLY, DEBUGGING
  7 .debug_info   00012006  00000000  00000000  000081f0  2**0
                  CONTENTS, READONLY, DEBUGGING
  8 .debug_abbrev 00003d24  00000000  00000000  0001a1f6  2**0
                  CONTENTS, READONLY, DEBUGGING
  9 .debug_line   00005930  00000000  00000000  0001df1a  2**0
                  CONTENTS, READONLY, DEBUGGING
 10 .debug_frame  00000ed8  00000000  00000000  0002384c  2**2
                  CONTENTS, READONLY, DEBUGGING
 11 .debug_str    00006932  00000000  00000000  00024724  2**0
                  CONTENTS, READONLY, DEBUGGING
 12 .debug_loc    00006b65  00000000  00000000  0002b056  2**0
                  CONTENTS, READONLY, DEBUGGING
 13 .debug_ranges 00000450  00000000  00000000  00031bbb  2**0
                  CONTENTS, READONLY, DEBUGGING

Disassembly of section .text:

00000000 <__vectors>:
       0:	0c 94 cf 03 	jmp	0x79e	; 0x79e <__ctors_end>
       4:	0c 94 f6 03 	jmp	0x7ec	; 0x7ec <__bad_interrupt>
       8:	0c 94 f6 03 	jmp	0x7ec	; 0x7ec <__bad_interrupt>
       c:	0c 94 f6 03 	jmp	0x7ec	; 0x7ec <__bad_interrupt>
      10:	0c 94 f6 03 	jmp	0x7ec	; 0x7ec <__bad_interrupt>
      14:	0c 94 f6 03 	jmp	0x7ec	; 0x7ec <__bad_interrupt>
      18:	0c 94 f6 03 	jmp	0x7ec	; 0x7ec <__bad_interrupt>
      1c:	0c 94 f6 03 	jmp	0x7ec	; 0x7ec <__bad_interrupt>
      20:	0c 94 f6 03 	jmp	0x7ec	; 0x7ec <__bad_interrupt>
      24:	0c 94 f6 03 	jmp	0x7ec	; 0x7ec <__bad_interrupt>
      28:	0c 94 e6 0a 	jmp	0x15cc	; 0x15cc <__vector_10>
      2c:	0c 94 f6 03 	jmp	0x7ec	; 0x7ec <__bad_interrupt>
      30:	0c 94 f6 03 	jmp	0x7ec	; 0x7ec <__bad_interrupt>
      34:	0c 94 f6 03 	jmp	0x7ec	; 0x7ec <__bad_interrupt>
      38:	0c 94 f6 03 	jmp	0x7ec	; 0x7ec <__bad_interrupt>
      3c:	0c 94 f6 03 	jmp	0x7ec	; 0x7ec <__bad_interrupt>
      40:	0c 94 f6 03 	jmp	0x7ec	; 0x7ec <__bad_interrupt>
      44:	0c 94 f6 03 	jmp	0x7ec	; 0x7ec <__bad_interrupt>
      48:	0c 94 f6 03 	jmp	0x7ec	; 0x7ec <__bad_interrupt>
      4c:	0c 94 f6 03 	jmp	0x7ec	; 0x7ec <__bad_interrupt>
      50:	0c 94 17 0c 	jmp	0x182e	; 0x182e <__vector_20>
      54:	0c 94 f6 03 	jmp	0x7ec	; 0x7ec <__bad_interrupt>
      58:	0c 94 de 0b 	jmp	0x17bc	; 0x17bc <__vector_22>
      5c:	0c 94 f6 03 	jmp	0x7ec	; 0x7ec <__bad_interrupt>
      60:	0c 94 f6 03 	jmp	0x7ec	; 0x7ec <__bad_interrupt>
      64:	0c 94 f6 03 	jmp	0x7ec	; 0x7ec <__bad_interrupt>
      68:	0c 94 f6 03 	jmp	0x7ec	; 0x7ec <__bad_interrupt>
      6c:	0c 94 f6 03 	jmp	0x7ec	; 0x7ec <__bad_interrupt>
      70:	0c 94 f6 03 	jmp	0x7ec	; 0x7ec <__bad_interrupt>
      74:	0c 94 f6 03 	jmp	0x7ec	; 0x7ec <__bad_interrupt>
      78:	0c 94 f6 03 	jmp	0x7ec	; 0x7ec <__bad_interrupt>
      7c:	0c 94 f6 03 	jmp	0x7ec	; 0x7ec <__bad_interrupt>
      80:	0c 94 f6 03 	jmp	0x7ec	; 0x7ec <__bad_interrupt>
      84:	0c 94 f6 03 	jmp	0x7ec	; 0x7ec <__bad_interrupt>
      88:	0c 94 f6 03 	jmp	0x7ec	; 0x7ec <__bad_interrupt>
      8c:	0c 94 f6 03 	jmp	0x7ec	; 0x7ec <__bad_interrupt>
      90:	0c 94 f6 03 	jmp	0x7ec	; 0x7ec <__bad_interrupt>
      94:	0c 94 f6 03 	jmp	0x7ec	; 0x7ec <__bad_interrupt>
      98:	0c 94 f6 03 	jmp	0x7ec	; 0x7ec <__bad_interrupt>
      9c:	0c 94 f6 03 	jmp	0x7ec	; 0x7ec <__bad_interrupt>
      a0:	0c 94 f6 03 	jmp	0x7ec	; 0x7ec <__bad_interrupt>
      a4:	0c 94 f6 03 	jmp	0x7ec	; 0x7ec <__bad_interrupt>
      a8:	0c 94 f6 03 	jmp	0x7ec	; 0x7ec <__bad_interrupt>
      ac:	0c 94 f6 03 	jmp	0x7ec	; 0x7ec <__bad_interrupt>
      b0:	0c 94 f6 03 	jmp	0x7ec	; 0x7ec <__bad_interrupt>
      b4:	0c 94 f6 03 	jmp	0x7ec	; 0x7ec <__bad_interrupt>
      b8:	0c 94 f6 03 	jmp	0x7ec	; 0x7ec <__bad_interrupt>
      bc:	0c 94 1a 0b 	jmp	0x1634	; 0x1634 <__vector_47>
      c0:	0c 94 f6 03 	jmp	0x7ec	; 0x7ec <__bad_interrupt>
      c4:	0c 94 f6 03 	jmp	0x7ec	; 0x7ec <__bad_interrupt>
      c8:	0c 94 f6 03 	jmp	0x7ec	; 0x7ec <__bad_interrupt>
      cc:	0c 94 f6 03 	jmp	0x7ec	; 0x7ec <__bad_interrupt>
      d0:	0c 94 f6 03 	jmp	0x7ec	; 0x7ec <__bad_interrupt>
      d4:	0c 94 f6 03 	jmp	0x7ec	; 0x7ec <__bad_interrupt>
      d8:	0c 94 f6 03 	jmp	0x7ec	; 0x7ec <__bad_interrupt>
      dc:	0c 94 f6 03 	jmp	0x7ec	; 0x7ec <__bad_interrupt>
      e0:	0c 94 f6 03 	jmp	0x7ec	; 0x7ec <__bad_interrupt>
      e4:	0c 94 f6 03 	jmp	0x7ec	; 0x7ec <__bad_interrupt>
      e8:	0c 94 f6 03 	jmp	0x7ec	; 0x7ec <__bad_interrupt>
      ec:	0c 94 f6 03 	jmp	0x7ec	; 0x7ec <__bad_interrupt>
      f0:	0c 94 f6 03 	jmp	0x7ec	; 0x7ec <__bad_interrupt>
      f4:	0c 94 f6 03 	jmp	0x7ec	; 0x7ec <__bad_interrupt>
      f8:	0c 94 f6 03 	jmp	0x7ec	; 0x7ec <__bad_interrupt>
      fc:	0c 94 f6 03 	jmp	0x7ec	; 0x7ec <__bad_interrupt>
     100:	0c 94 f6 03 	jmp	0x7ec	; 0x7ec <__bad_interrupt>
     104:	0c 94 f6 03 	jmp	0x7ec	; 0x7ec <__bad_interrupt>
     108:	0c 94 f6 03 	jmp	0x7ec	; 0x7ec <__bad_interrupt>
     10c:	0c 94 f6 03 	jmp	0x7ec	; 0x7ec <__bad_interrupt>
     110:	0c 94 f6 03 	jmp	0x7ec	; 0x7ec <__bad_interrupt>
     114:	0c 94 f6 03 	jmp	0x7ec	; 0x7ec <__bad_interrupt>
     118:	0c 94 f6 03 	jmp	0x7ec	; 0x7ec <__bad_interrupt>
     11c:	0c 94 f6 03 	jmp	0x7ec	; 0x7ec <__bad_interrupt>
     120:	0c 94 f6 03 	jmp	0x7ec	; 0x7ec <__bad_interrupt>
     124:	0c 94 f6 03 	jmp	0x7ec	; 0x7ec <__bad_interrupt>
     128:	0c 94 f6 03 	jmp	0x7ec	; 0x7ec <__bad_interrupt>
     12c:	0c 94 f6 03 	jmp	0x7ec	; 0x7ec <__bad_interrupt>
     130:	0c 94 f6 03 	jmp	0x7ec	; 0x7ec <__bad_interrupt>
     134:	0c 94 f6 03 	jmp	0x7ec	; 0x7ec <__bad_interrupt>
     138:	0c 94 f6 03 	jmp	0x7ec	; 0x7ec <__bad_interrupt>
     13c:	0c 94 f6 03 	jmp	0x7ec	; 0x7ec <__bad_interrupt>
     140:	0c 94 f6 03 	jmp	0x7ec	; 0x7ec <__bad_interrupt>
     144:	0c 94 f6 03 	jmp	0x7ec	; 0x7ec <__bad_interrupt>
     148:	0c 94 f6 03 	jmp	0x7ec	; 0x7ec <__bad_interrupt>
     14c:	0c 94 7e 0c 	jmp	0x18fc	; 0x18fc <__vector_83>
     150:	0c 94 f6 03 	jmp	0x7ec	; 0x7ec <__bad_interrupt>
     154:	0c 94 45 0c 	jmp	0x188a	; 0x188a <__vector_85>
     158:	0c 94 f6 03 	jmp	0x7ec	; 0x7ec <__bad_interrupt>
     15c:	0c 94 f6 03 	jmp	0x7ec	; 0x7ec <__bad_interrupt>
     160:	0c 94 f6 03 	jmp	0x7ec	; 0x7ec <__bad_interrupt>
     164:	0c 94 f6 03 	jmp	0x7ec	; 0x7ec <__bad_interrupt>
     168:	0c 94 f6 03 	jmp	0x7ec	; 0x7ec <__bad_interrupt>
     16c:	0c 94 f6 03 	jmp	0x7ec	; 0x7ec <__bad_interrupt>
     170:	0c 94 f6 03 	jmp	0x7ec	; 0x7ec <__bad_interrupt>
     174:	0c 94 f6 03 	jmp	0x7ec	; 0x7ec <__bad_interrupt>
     178:	0c 94 f6 03 	jmp	0x7ec	; 0x7ec <__bad_interrupt>
     17c:	0c 94 f6 03 	jmp	0x7ec	; 0x7ec <__bad_interrupt>
     180:	0c 94 f6 03 	jmp	0x7ec	; 0x7ec <__bad_interrupt>
     184:	0c 94 f6 03 	jmp	0x7ec	; 0x7ec <__bad_interrupt>
     188:	0c 94 f6 03 	jmp	0x7ec	; 0x7ec <__bad_interrupt>
     18c:	0c 94 f6 03 	jmp	0x7ec	; 0x7ec <__bad_interrupt>
     190:	0c 94 f6 03 	jmp	0x7ec	; 0x7ec <__bad_interrupt>
     194:	0c 94 f6 03 	jmp	0x7ec	; 0x7ec <__bad_interrupt>
     198:	0c 94 f6 03 	jmp	0x7ec	; 0x7ec <__bad_interrupt>
     19c:	0c 94 f6 03 	jmp	0x7ec	; 0x7ec <__bad_interrupt>
     1a0:	0c 94 f6 03 	jmp	0x7ec	; 0x7ec <__bad_interrupt>
     1a4:	0c 94 f6 03 	jmp	0x7ec	; 0x7ec <__bad_interrupt>
     1a8:	0c 94 f6 03 	jmp	0x7ec	; 0x7ec <__bad_interrupt>
     1ac:	0c 94 f6 03 	jmp	0x7ec	; 0x7ec <__bad_interrupt>
     1b0:	0c 94 f6 03 	jmp	0x7ec	; 0x7ec <__bad_interrupt>
     1b4:	0c 94 f6 03 	jmp	0x7ec	; 0x7ec <__bad_interrupt>
     1b8:	0c 94 f6 03 	jmp	0x7ec	; 0x7ec <__bad_interrupt>
     1bc:	0c 94 f6 03 	jmp	0x7ec	; 0x7ec <__bad_interrupt>
     1c0:	0c 94 f6 03 	jmp	0x7ec	; 0x7ec <__bad_interrupt>
     1c4:	0c 94 f6 03 	jmp	0x7ec	; 0x7ec <__bad_interrupt>
     1c8:	0c 94 f6 03 	jmp	0x7ec	; 0x7ec <__bad_interrupt>
     1cc:	0c 94 f6 03 	jmp	0x7ec	; 0x7ec <__bad_interrupt>
     1d0:	0c 94 f6 03 	jmp	0x7ec	; 0x7ec <__bad_interrupt>
     1d4:	0c 94 f6 03 	jmp	0x7ec	; 0x7ec <__bad_interrupt>
     1d8:	0c 94 f6 03 	jmp	0x7ec	; 0x7ec <__bad_interrupt>
     1dc:	0c 94 f6 03 	jmp	0x7ec	; 0x7ec <__bad_interrupt>
     1e0:	0c 94 f6 03 	jmp	0x7ec	; 0x7ec <__bad_interrupt>
     1e4:	0c 94 f6 03 	jmp	0x7ec	; 0x7ec <__bad_interrupt>
     1e8:	0c 94 f6 03 	jmp	0x7ec	; 0x7ec <__bad_interrupt>
     1ec:	0c 94 f6 03 	jmp	0x7ec	; 0x7ec <__bad_interrupt>
     1f0:	0c 94 f6 03 	jmp	0x7ec	; 0x7ec <__bad_interrupt>
     1f4:	0c 94 62 3a 	jmp	0x74c4	; 0x74c4 <__vector_125>
     1f8:	0c 94 e2 3a 	jmp	0x75c4	; 0x75c4 <__vector_126>
     1fc:	3f 09       	sbc	r19, r15
     1fe:	6c 09       	sbc	r22, r12
     200:	6c 09       	sbc	r22, r12
     202:	6c 09       	sbc	r22, r12
     204:	6c 09       	sbc	r22, r12
     206:	6c 09       	sbc	r22, r12
     208:	6c 09       	sbc	r22, r12
     20a:	6c 09       	sbc	r22, r12
     20c:	6c 09       	sbc	r22, r12
     20e:	6c 09       	sbc	r22, r12
     210:	6c 09       	sbc	r22, r12
     212:	6c 09       	sbc	r22, r12
     214:	6c 09       	sbc	r22, r12
     216:	6c 09       	sbc	r22, r12
     218:	6c 09       	sbc	r22, r12
     21a:	6c 09       	sbc	r22, r12
     21c:	6c 09       	sbc	r22, r12
     21e:	6c 09       	sbc	r22, r12
     220:	24 09       	sbc	r18, r4
     222:	6c 09       	sbc	r22, r12
     224:	6c 09       	sbc	r22, r12
     226:	6c 09       	sbc	r22, r12
     228:	6c 09       	sbc	r22, r12
     22a:	6c 09       	sbc	r22, r12
     22c:	09 09       	sbc	r16, r9
     22e:	6c 09       	sbc	r22, r12
     230:	6c 09       	sbc	r22, r12
     232:	ee 08       	sbc	r14, r14
     234:	6c 09       	sbc	r22, r12
     236:	6c 09       	sbc	r22, r12
     238:	6c 09       	sbc	r22, r12
     23a:	6c 09       	sbc	r22, r12
     23c:	d3 08       	sbc	r13, r3
     23e:	6c 09       	sbc	r22, r12
     240:	6c 09       	sbc	r22, r12
     242:	6c 09       	sbc	r22, r12
     244:	6c 09       	sbc	r22, r12
     246:	6c 09       	sbc	r22, r12
     248:	6c 09       	sbc	r22, r12
     24a:	6c 09       	sbc	r22, r12
     24c:	6c 09       	sbc	r22, r12
     24e:	6c 09       	sbc	r22, r12
     250:	6c 09       	sbc	r22, r12
     252:	6c 09       	sbc	r22, r12
     254:	b8 08       	sbc	r11, r8
     256:	6c 09       	sbc	r22, r12
     258:	6c 09       	sbc	r22, r12
     25a:	6c 09       	sbc	r22, r12
     25c:	6c 09       	sbc	r22, r12
     25e:	6c 09       	sbc	r22, r12
     260:	9d 08       	sbc	r9, r13
     262:	6c 09       	sbc	r22, r12
     264:	6c 09       	sbc	r22, r12
     266:	6c 09       	sbc	r22, r12
     268:	6c 09       	sbc	r22, r12
     26a:	6c 09       	sbc	r22, r12
     26c:	82 08       	sbc	r8, r2
     26e:	6b 0a       	sbc	r6, r27
     270:	98 0a       	sbc	r9, r24
     272:	98 0a       	sbc	r9, r24
     274:	98 0a       	sbc	r9, r24
     276:	98 0a       	sbc	r9, r24
     278:	98 0a       	sbc	r9, r24
     27a:	98 0a       	sbc	r9, r24
     27c:	98 0a       	sbc	r9, r24
     27e:	98 0a       	sbc	r9, r24
     280:	98 0a       	sbc	r9, r24
     282:	98 0a       	sbc	r9, r24
     284:	98 0a       	sbc	r9, r24
     286:	98 0a       	sbc	r9, r24
     288:	98 0a       	sbc	r9, r24
     28a:	98 0a       	sbc	r9, r24
     28c:	98 0a       	sbc	r9, r24
     28e:	98 0a       	sbc	r9, r24
     290:	98 0a       	sbc	r9, r24
     292:	50 0a       	sbc	r5, r16
     294:	98 0a       	sbc	r9, r24
     296:	98 0a       	sbc	r9, r24
     298:	98 0a       	sbc	r9, r24
     29a:	98 0a       	sbc	r9, r24
     29c:	98 0a       	sbc	r9, r24
     29e:	35 0a       	sbc	r3, r21
     2a0:	98 0a       	sbc	r9, r24
     2a2:	98 0a       	sbc	r9, r24
     2a4:	1a 0a       	sbc	r1, r26
     2a6:	98 0a       	sbc	r9, r24
     2a8:	98 0a       	sbc	r9, r24
     2aa:	98 0a       	sbc	r9, r24
     2ac:	98 0a       	sbc	r9, r24
     2ae:	ff 09       	sbc	r31, r15
     2b0:	98 0a       	sbc	r9, r24
     2b2:	98 0a       	sbc	r9, r24
     2b4:	98 0a       	sbc	r9, r24
     2b6:	98 0a       	sbc	r9, r24
     2b8:	98 0a       	sbc	r9, r24
     2ba:	98 0a       	sbc	r9, r24
     2bc:	98 0a       	sbc	r9, r24
     2be:	98 0a       	sbc	r9, r24
     2c0:	98 0a       	sbc	r9, r24
     2c2:	98 0a       	sbc	r9, r24
     2c4:	98 0a       	sbc	r9, r24
     2c6:	e4 09       	sbc	r30, r4
     2c8:	98 0a       	sbc	r9, r24
     2ca:	98 0a       	sbc	r9, r24
     2cc:	98 0a       	sbc	r9, r24
     2ce:	98 0a       	sbc	r9, r24
     2d0:	98 0a       	sbc	r9, r24
     2d2:	c9 09       	sbc	r28, r9
     2d4:	98 0a       	sbc	r9, r24
     2d6:	98 0a       	sbc	r9, r24
     2d8:	98 0a       	sbc	r9, r24
     2da:	98 0a       	sbc	r9, r24
     2dc:	98 0a       	sbc	r9, r24
     2de:	ae 09       	sbc	r26, r14
     2e0:	86 18       	sub	r8, r6
     2e2:	f5 1b       	sub	r31, r21
     2e4:	f5 1b       	sub	r31, r21
     2e6:	f5 1b       	sub	r31, r21
     2e8:	f5 1b       	sub	r31, r21
     2ea:	f5 1b       	sub	r31, r21
     2ec:	f5 1b       	sub	r31, r21
     2ee:	f5 1b       	sub	r31, r21
     2f0:	f5 1b       	sub	r31, r21
     2f2:	f5 1b       	sub	r31, r21
     2f4:	f5 1b       	sub	r31, r21
     2f6:	f5 1b       	sub	r31, r21
     2f8:	f5 1b       	sub	r31, r21
     2fa:	f5 1b       	sub	r31, r21
     2fc:	f5 1b       	sub	r31, r21
     2fe:	f5 1b       	sub	r31, r21
     300:	c3 18       	sub	r12, r3
     302:	f5 1b       	sub	r31, r21
     304:	f5 1b       	sub	r31, r21
     306:	f5 1b       	sub	r31, r21
     308:	f5 1b       	sub	r31, r21
     30a:	f5 1b       	sub	r31, r21
     30c:	f5 1b       	sub	r31, r21
     30e:	f5 1b       	sub	r31, r21
     310:	f5 1b       	sub	r31, r21
     312:	f5 1b       	sub	r31, r21
     314:	f5 1b       	sub	r31, r21
     316:	f5 1b       	sub	r31, r21
     318:	f5 1b       	sub	r31, r21
     31a:	f5 1b       	sub	r31, r21
     31c:	f5 1b       	sub	r31, r21
     31e:	f5 1b       	sub	r31, r21
     320:	25 19       	sub	r18, r5
     322:	f5 1b       	sub	r31, r21
     324:	f5 1b       	sub	r31, r21
     326:	f5 1b       	sub	r31, r21
     328:	f5 1b       	sub	r31, r21
     32a:	f5 1b       	sub	r31, r21
     32c:	f5 1b       	sub	r31, r21
     32e:	f5 1b       	sub	r31, r21
     330:	f5 1b       	sub	r31, r21
     332:	f5 1b       	sub	r31, r21
     334:	f5 1b       	sub	r31, r21
     336:	f5 1b       	sub	r31, r21
     338:	f5 1b       	sub	r31, r21
     33a:	f5 1b       	sub	r31, r21
     33c:	f5 1b       	sub	r31, r21
     33e:	f5 1b       	sub	r31, r21
     340:	a8 19       	sub	r26, r8
     342:	f5 1b       	sub	r31, r21
     344:	f5 1b       	sub	r31, r21
     346:	f5 1b       	sub	r31, r21
     348:	f5 1b       	sub	r31, r21
     34a:	f5 1b       	sub	r31, r21
     34c:	f5 1b       	sub	r31, r21
     34e:	f5 1b       	sub	r31, r21
     350:	f5 1b       	sub	r31, r21
     352:	f5 1b       	sub	r31, r21
     354:	f5 1b       	sub	r31, r21
     356:	f5 1b       	sub	r31, r21
     358:	f5 1b       	sub	r31, r21
     35a:	f5 1b       	sub	r31, r21
     35c:	f5 1b       	sub	r31, r21
     35e:	f5 1b       	sub	r31, r21
     360:	27 1a       	sub	r2, r23
     362:	5b 1a       	sub	r5, r27
     364:	8b 1a       	sub	r8, r27
     366:	f5 1b       	sub	r31, r21
     368:	f5 1b       	sub	r31, r21
     36a:	f5 1b       	sub	r31, r21
     36c:	f5 1b       	sub	r31, r21
     36e:	f5 1b       	sub	r31, r21
     370:	f5 1b       	sub	r31, r21
     372:	f5 1b       	sub	r31, r21
     374:	f5 1b       	sub	r31, r21
     376:	f5 1b       	sub	r31, r21
     378:	f5 1b       	sub	r31, r21
     37a:	f5 1b       	sub	r31, r21
     37c:	f5 1b       	sub	r31, r21
     37e:	f5 1b       	sub	r31, r21
     380:	bf 1a       	sub	r11, r31
     382:	f3 1a       	sub	r15, r19
     384:	23 1b       	sub	r18, r19
     386:	f5 1b       	sub	r31, r21
     388:	f5 1b       	sub	r31, r21
     38a:	f5 1b       	sub	r31, r21
     38c:	f5 1b       	sub	r31, r21
     38e:	f5 1b       	sub	r31, r21
     390:	f5 1b       	sub	r31, r21
     392:	f5 1b       	sub	r31, r21
     394:	f5 1b       	sub	r31, r21
     396:	f5 1b       	sub	r31, r21
     398:	f5 1b       	sub	r31, r21
     39a:	f5 1b       	sub	r31, r21
     39c:	f5 1b       	sub	r31, r21
     39e:	f5 1b       	sub	r31, r21
     3a0:	5b 1b       	sub	r21, r27
     3a2:	8f 1b       	sub	r24, r31
     3a4:	c3 1b       	sub	r28, r19
     3a6:	05 1d       	adc	r16, r5
     3a8:	73 20       	and	r7, r3
     3aa:	73 20       	and	r7, r3
     3ac:	73 20       	and	r7, r3
     3ae:	73 20       	and	r7, r3
     3b0:	73 20       	and	r7, r3
     3b2:	73 20       	and	r7, r3
     3b4:	73 20       	and	r7, r3
     3b6:	73 20       	and	r7, r3
     3b8:	73 20       	and	r7, r3
     3ba:	73 20       	and	r7, r3
     3bc:	73 20       	and	r7, r3
     3be:	73 20       	and	r7, r3
     3c0:	73 20       	and	r7, r3
     3c2:	73 20       	and	r7, r3
     3c4:	73 20       	and	r7, r3
     3c6:	41 1d       	adc	r20, r1
     3c8:	73 20       	and	r7, r3
     3ca:	73 20       	and	r7, r3
     3cc:	73 20       	and	r7, r3
     3ce:	73 20       	and	r7, r3
     3d0:	73 20       	and	r7, r3
     3d2:	73 20       	and	r7, r3
     3d4:	73 20       	and	r7, r3
     3d6:	73 20       	and	r7, r3
     3d8:	73 20       	and	r7, r3
     3da:	73 20       	and	r7, r3
     3dc:	73 20       	and	r7, r3
     3de:	73 20       	and	r7, r3
     3e0:	73 20       	and	r7, r3
     3e2:	73 20       	and	r7, r3
     3e4:	73 20       	and	r7, r3
     3e6:	a3 1d       	adc	r26, r3
     3e8:	73 20       	and	r7, r3
     3ea:	73 20       	and	r7, r3
     3ec:	73 20       	and	r7, r3
     3ee:	73 20       	and	r7, r3
     3f0:	73 20       	and	r7, r3
     3f2:	73 20       	and	r7, r3
     3f4:	73 20       	and	r7, r3
     3f6:	73 20       	and	r7, r3
     3f8:	73 20       	and	r7, r3
     3fa:	73 20       	and	r7, r3
     3fc:	73 20       	and	r7, r3
     3fe:	73 20       	and	r7, r3
     400:	73 20       	and	r7, r3
     402:	73 20       	and	r7, r3
     404:	73 20       	and	r7, r3
     406:	26 1e       	adc	r2, r22
     408:	73 20       	and	r7, r3
     40a:	73 20       	and	r7, r3
     40c:	73 20       	and	r7, r3
     40e:	73 20       	and	r7, r3
     410:	73 20       	and	r7, r3
     412:	73 20       	and	r7, r3
     414:	73 20       	and	r7, r3
     416:	73 20       	and	r7, r3
     418:	73 20       	and	r7, r3
     41a:	73 20       	and	r7, r3
     41c:	73 20       	and	r7, r3
     41e:	73 20       	and	r7, r3
     420:	73 20       	and	r7, r3
     422:	73 20       	and	r7, r3
     424:	73 20       	and	r7, r3
     426:	a5 1e       	adc	r10, r21
     428:	d9 1e       	adc	r13, r25
     42a:	09 1f       	adc	r16, r25
     42c:	73 20       	and	r7, r3
     42e:	73 20       	and	r7, r3
     430:	73 20       	and	r7, r3
     432:	73 20       	and	r7, r3
     434:	73 20       	and	r7, r3
     436:	73 20       	and	r7, r3
     438:	73 20       	and	r7, r3
     43a:	73 20       	and	r7, r3
     43c:	73 20       	and	r7, r3
     43e:	73 20       	and	r7, r3
     440:	73 20       	and	r7, r3
     442:	73 20       	and	r7, r3
     444:	73 20       	and	r7, r3
     446:	3d 1f       	adc	r19, r29
     448:	71 1f       	adc	r23, r17
     44a:	a1 1f       	adc	r26, r17
     44c:	73 20       	and	r7, r3
     44e:	73 20       	and	r7, r3
     450:	73 20       	and	r7, r3
     452:	73 20       	and	r7, r3
     454:	73 20       	and	r7, r3
     456:	73 20       	and	r7, r3
     458:	73 20       	and	r7, r3
     45a:	73 20       	and	r7, r3
     45c:	73 20       	and	r7, r3
     45e:	73 20       	and	r7, r3
     460:	73 20       	and	r7, r3
     462:	73 20       	and	r7, r3
     464:	73 20       	and	r7, r3
     466:	d9 1f       	adc	r29, r25
     468:	0d 20       	and	r0, r13
     46a:	41 20       	and	r4, r1
     46c:	83 2f       	mov	r24, r19
     46e:	77 32       	cpi	r23, 0x27	; 39
     470:	77 32       	cpi	r23, 0x27	; 39
     472:	77 32       	cpi	r23, 0x27	; 39
     474:	77 32       	cpi	r23, 0x27	; 39
     476:	77 32       	cpi	r23, 0x27	; 39
     478:	77 32       	cpi	r23, 0x27	; 39
     47a:	77 32       	cpi	r23, 0x27	; 39
     47c:	77 32       	cpi	r23, 0x27	; 39
     47e:	77 32       	cpi	r23, 0x27	; 39
     480:	77 32       	cpi	r23, 0x27	; 39
     482:	77 32       	cpi	r23, 0x27	; 39
     484:	77 32       	cpi	r23, 0x27	; 39
     486:	77 32       	cpi	r23, 0x27	; 39
     488:	77 32       	cpi	r23, 0x27	; 39
     48a:	77 32       	cpi	r23, 0x27	; 39
     48c:	28 30       	cpi	r18, 0x08	; 8
     48e:	91 30       	cpi	r25, 0x01	; 1
     490:	f8 30       	cpi	r31, 0x08	; 8
     492:	63 31       	cpi	r22, 0x13	; 19
     494:	d5 31       	cpi	r29, 0x15	; 21
     496:	4c 32       	cpi	r20, 0x2C	; 44
     498:	3d 39       	cpi	r19, 0x9D	; 157
     49a:	53 39       	cpi	r21, 0x93	; 147
     49c:	4a 3a       	cpi	r20, 0xAA	; 170
     49e:	53 39       	cpi	r21, 0x93	; 147
     4a0:	4a 3a       	cpi	r20, 0xAA	; 170
     4a2:	61 39       	cpi	r22, 0x91	; 145
     4a4:	82 39       	cpi	r24, 0x92	; 146
     4a6:	4a 3a       	cpi	r20, 0xAA	; 170
     4a8:	e0 39       	cpi	r30, 0x90	; 144
     4aa:	f2 39       	cpi	r31, 0x92	; 146
     4ac:	4f 3a       	cpi	r20, 0xAF	; 175
     4ae:	35 3a       	cpi	r19, 0xA5	; 165

000004b0 <ProductString>:
     4b0:	1e 03 43 00 4e 00 43 00 20 00 43 00 6f 00 6e 00     ..C.N.C. .C.o.n.
     4c0:	74 00 72 00 6f 00 6c 00 6c 00 65 00 72 00 00 00     t.r.o.l.l.e.r...

000004d0 <ManufacturerString>:
     4d0:	0e 03 77 00 6f 00 6f 00 64 00 79 00 6d 00 00 00     ..w.o.o.d.y.m...

000004e0 <LanguageString>:
     4e0:	04 03 09 04                                         ....

000004e4 <ConfigurationDescriptor>:
     4e4:	09 02 3e 00 02 01 00 c0 32 09 04 00 00 01 02 02     ..>.....2.......
     4f4:	01 00 05 24 00 10 01 04 24 02 06 05 24 06 00 01     ...$....$...$...
     504:	07 05 82 03 08 00 ff 09 04 01 00 02 0a 00 00 00     ................
     514:	07 05 04 02 40 00 01 07 05 83 02 40 00 01           ....@......@..

00000522 <DeviceDescriptor>:
     522:	12 01 10 01 02 00 00 40 eb 03 04 24 01 00 01 02     .......@...$....
     532:	dc 01                                               ..

00000534 <_ZL19ssd1306oled_font6x8>:
	...
     53c:	00 2f 00 00 00 00 07 00 07 00 00 14 7f 14 7f 14     ./..............
     54c:	00 24 2a 7f 2a 12 00 62 64 08 13 23 00 36 49 55     .$*.*..bd..#.6IU
     55c:	22 50 00 00 05 03 00 00 00 00 1c 22 41 00 00 00     "P........."A...
     56c:	41 22 1c 00 00 14 08 3e 08 14 00 08 08 3e 08 08     A".....>.....>..
     57c:	00 00 00 a0 60 00 00 08 08 08 08 08 00 00 60 60     ....`.........``
     58c:	00 00 00 20 10 08 04 02 00 3e 51 49 45 3e 00 00     ... .....>QIE>..
     59c:	42 7f 40 00 00 42 61 51 49 46 00 21 41 45 4b 31     B.@..BaQIF.!AEK1
     5ac:	00 18 14 12 7f 10 00 27 45 45 45 39 00 3c 4a 49     .......'EEE9.<JI
     5bc:	49 30 00 01 71 09 05 03 00 36 49 49 49 36 00 06     I0..q....6III6..
     5cc:	49 49 29 1e 00 00 36 36 00 00 00 00 56 36 00 00     II)...66....V6..
     5dc:	00 08 14 22 41 00 00 14 14 14 14 14 00 00 41 22     ..."A.........A"
     5ec:	14 08 00 02 01 51 09 06 00 32 49 59 51 3e 00 7c     .....Q...2IYQ>.|
     5fc:	12 11 12 7c 00 7f 49 49 49 36 00 3e 41 41 41 22     ...|..III6.>AAA"
     60c:	00 7f 41 41 22 1c 00 7f 49 49 49 41 00 7f 09 09     ..AA"...IIIA....
     61c:	09 01 00 3e 41 49 49 7a 00 7f 08 08 08 7f 00 00     ...>AIIz........
     62c:	41 7f 41 00 00 20 40 41 3f 01 00 7f 08 14 22 41     A.A.. @A?....."A
     63c:	00 7f 40 40 40 40 00 7f 02 0c 02 7f 00 7f 04 08     ..@@@@..........
     64c:	10 7f 00 3e 41 41 41 3e 00 7f 09 09 09 06 00 3e     ...>AAA>.......>
     65c:	41 51 21 5e 00 7f 09 19 29 46 00 46 49 49 49 31     AQ!^....)F.FIII1
     66c:	00 01 01 7f 01 01 00 3f 40 40 40 3f 00 1f 20 40     .......?@@@?.. @
     67c:	20 1f 00 3f 40 38 40 3f 00 63 14 08 14 63 00 07      ..?@8@?.c...c..
     68c:	08 70 08 07 00 61 51 49 45 43 00 00 7f 41 41 00     .p...aQIEC...AA.
     69c:	00 55 2a 55 2a 55 00 00 41 41 7f 00 00 04 02 01     .U*U*U..AA......
     6ac:	02 04 00 40 40 40 40 40 00 00 01 02 04 00 00 20     ...@@@@@....... 
     6bc:	54 54 54 78 00 7f 48 44 44 38 00 38 44 44 44 20     TTTx..HDD8.8DDD 
     6cc:	00 38 44 44 48 7f 00 38 54 54 54 18 00 08 7e 09     .8DDH..8TTT...~.
     6dc:	01 02 00 18 a4 a4 a4 7c 00 7f 08 04 04 78 00 00     .......|.....x..
     6ec:	44 7d 40 00 00 40 80 84 7d 00 00 7f 10 28 44 00     D}@..@..}....(D.
     6fc:	00 00 41 7f 40 00 00 7c 04 18 04 78 00 7c 08 04     ..A.@..|...x.|..
     70c:	04 78 00 38 44 44 44 38 00 fc 24 24 24 18 00 18     .x.8DDD8..$$$...
     71c:	24 24 18 fc 00 7c 08 04 04 08 00 48 54 54 54 20     $$...|.....HTTT 
     72c:	00 04 3f 44 40 20 00 3c 40 40 20 7c 00 1c 20 40     ..?D@ .<@@ |.. @
     73c:	20 1c 00 3c 40 30 40 3c 00 44 28 10 28 44 00 1c      ..<@0@<.D(.(D..
     74c:	a0 a0 a0 7c 00 44 64 54 4c 44 00 00 08 77 41 00     ...|.DdTLD...wA.
     75c:	00 00 00 63 00 00 00 00 41 77 08 00 00 08 04 08     ...c....Aw......
     76c:	08 04 00 3d 40 40 20 7d 00 3d 40 40 40 3d 00 21     ...=@@ }.=@@@=.!
     77c:	54 54 54 79 00 7d 12 11 12 7d 00 39 44 44 44 39     TTTy.}...}.9DDD9
     78c:	00 3d 42 42 42 3d 00 02 05 02 00 00 00 7e 01 49     .=BBB=.......~.I
     79c:	55 73                                               Us

0000079e <__ctors_end>:
     79e:	11 24       	eor	r1, r1
     7a0:	1f be       	out	0x3f, r1	; 63
     7a2:	cf ef       	ldi	r28, 0xFF	; 255
     7a4:	cd bf       	out	0x3d, r28	; 61
     7a6:	df e2       	ldi	r29, 0x2F	; 47
     7a8:	de bf       	out	0x3e, r29	; 62

000007aa <_ZL8init_memv>:
	"cpi r30, lo8 (%1)"            "\n\t"
	"cpc r31, r25"                 "\n\t"
	"brne 0b"
	:
	: "i" (MASK), "i" (RAMEND)
	);
     7aa:	ec ea       	ldi	r30, 0xAC	; 172
     7ac:	f6 e2       	ldi	r31, 0x26	; 38
     7ae:	8a ea       	ldi	r24, 0xAA	; 170
     7b0:	9f e2       	ldi	r25, 0x2F	; 47
     7b2:	81 93       	st	Z+, r24
     7b4:	ef 3f       	cpi	r30, 0xFF	; 255
     7b6:	f9 07       	cpc	r31, r25
     7b8:	e1 f7       	brne	.-8      	; 0x7b2 <_ZL8init_memv+0x8>

000007ba <__do_copy_data>:
     7ba:	13 e2       	ldi	r17, 0x23	; 35
     7bc:	a0 e0       	ldi	r26, 0x00	; 0
     7be:	b0 e2       	ldi	r27, 0x20	; 32
     7c0:	e6 ee       	ldi	r30, 0xE6	; 230
     7c2:	f7 e7       	ldi	r31, 0x77	; 119
     7c4:	00 e0       	ldi	r16, 0x00	; 0
     7c6:	0b bf       	out	0x3b, r16	; 59
     7c8:	02 c0       	rjmp	.+4      	; 0x7ce <__do_copy_data+0x14>
     7ca:	07 90       	elpm	r0, Z+
     7cc:	0d 92       	st	X+, r0
     7ce:	a4 31       	cpi	r26, 0x14	; 20
     7d0:	b1 07       	cpc	r27, r17
     7d2:	d9 f7       	brne	.-10     	; 0x7ca <__do_copy_data+0x10>

000007d4 <__do_clear_bss>:
     7d4:	26 e2       	ldi	r18, 0x26	; 38
     7d6:	a4 e1       	ldi	r26, 0x14	; 20
     7d8:	b3 e2       	ldi	r27, 0x23	; 35
     7da:	01 c0       	rjmp	.+2      	; 0x7de <.do_clear_bss_start>

000007dc <.do_clear_bss_loop>:
     7dc:	1d 92       	st	X+, r1

000007de <.do_clear_bss_start>:
     7de:	ac 3a       	cpi	r26, 0xAC	; 172
     7e0:	b2 07       	cpc	r27, r18
     7e2:	e1 f7       	brne	.-8      	; 0x7dc <.do_clear_bss_loop>
     7e4:	0e 94 83 20 	call	0x4106	; 0x4106 <main>
     7e8:	0c 94 f1 3b 	jmp	0x77e2	; 0x77e2 <_exit>

000007ec <__bad_interrupt>:
     7ec:	0c 94 00 00 	jmp	0	; 0x0 <__vectors>

000007f0 <_Z24calculate_crc32_checksumPhh>:

#include <avr/io.h>
#include <avr/interrupt.h>

uint32_t calculate_crc32_checksum(unsigned char *data, unsigned char count)
{
     7f0:	ac 01       	movw	r20, r24
	unsigned char i = 0;
	uint32_t crc32_checksum = 0;
	
	// Die 4 Checksum Register auf 0x00 zurücksetzen
	CRC.CTRL = (CRC.CTRL & (~CRC_RESET_gm)) | CRC_RESET_RESET0_gc;
     7f2:	e0 ed       	ldi	r30, 0xD0	; 208
     7f4:	f0 e0       	ldi	r31, 0x00	; 0
     7f6:	90 81       	ld	r25, Z
     7f8:	9f 73       	andi	r25, 0x3F	; 63
     7fa:	90 68       	ori	r25, 0x80	; 128
     7fc:	90 83       	st	Z, r25
	
	// Den CRC-Kern anhalten, indem keine Quellec angegeben wird
	CRC.CTRL = (CRC.CTRL & (~CRC_SOURCE_gm)) | CRC_SOURCE_DISABLE_gc;
     7fe:	80 81       	ld	r24, Z
     800:	80 7f       	andi	r24, 0xF0	; 240
     802:	80 83       	st	Z, r24
	
	// Den CRC-Kern auf CRC32 konfigurieren
	CRC.CTRL |= CRC_CRC32_bm;
     804:	80 81       	ld	r24, Z
     806:	80 62       	ori	r24, 0x20	; 32
     808:	80 83       	st	Z, r24

	// IO als Quelle für den CRC-Kern auswhählen
	CRC.CTRL = (CRC.CTRL & (~CRC_SOURCE_gm)) | CRC_SOURCE_IO_gc;
     80a:	90 81       	ld	r25, Z
     80c:	90 7f       	andi	r25, 0xF0	; 240
     80e:	91 60       	ori	r25, 0x01	; 1
     810:	90 83       	st	Z, r25
	
	//ACHTUNG IST RESET IMMER NOCH 1?
	CRC.CTRL &= ~CRC_RESET_gm;
     812:	80 81       	ld	r24, Z
     814:	8f 73       	andi	r24, 0x3F	; 63
     816:	80 83       	st	Z, r24
	
	for(i=0; i<count; i++)
     818:	66 23       	and	r22, r22
     81a:	89 f0       	breq	.+34     	; 0x83e <_Z24calculate_crc32_checksumPhh+0x4e>
     81c:	fa 01       	movw	r30, r20
     81e:	61 50       	subi	r22, 0x01	; 1
     820:	26 2f       	mov	r18, r22
     822:	30 e0       	ldi	r19, 0x00	; 0
     824:	2f 5f       	subi	r18, 0xFF	; 255
     826:	3f 4f       	sbci	r19, 0xFF	; 255
     828:	24 0f       	add	r18, r20
     82a:	35 1f       	adc	r19, r21
	{
		CRC.DATAIN = data[i];
     82c:	a0 ed       	ldi	r26, 0xD0	; 208
     82e:	b0 e0       	ldi	r27, 0x00	; 0
     830:	91 91       	ld	r25, Z+
     832:	13 96       	adiw	r26, 0x03	; 3
     834:	9c 93       	st	X, r25
     836:	13 97       	sbiw	r26, 0x03	; 3
	CRC.CTRL = (CRC.CTRL & (~CRC_SOURCE_gm)) | CRC_SOURCE_IO_gc;
	
	//ACHTUNG IST RESET IMMER NOCH 1?
	CRC.CTRL &= ~CRC_RESET_gm;
	
	for(i=0; i<count; i++)
     838:	e2 17       	cp	r30, r18
     83a:	f3 07       	cpc	r31, r19
     83c:	c9 f7       	brne	.-14     	; 0x830 <_Z24calculate_crc32_checksumPhh+0x40>
	{
		CRC.DATAIN = data[i];
	}

	// Das Busy Flag muss im CRC IO-Modus gelöscht werden, indem eine 1 in das Register geschrieben wird
	CRC.STATUS |= CRC_BUSY_bm;
     83e:	e0 ed       	ldi	r30, 0xD0	; 208
     840:	f0 e0       	ldi	r31, 0x00	; 0
     842:	81 81       	ldd	r24, Z+1	; 0x01
     844:	81 60       	ori	r24, 0x01	; 1
     846:	81 83       	std	Z+1, r24	; 0x01
	
	while((CRC.STATUS & CRC_BUSY_bm) == CRC_BUSY_bm)
     848:	81 81       	ldd	r24, Z+1	; 0x01
     84a:	80 fd       	sbrc	r24, 0
     84c:	fd cf       	rjmp	.-6      	; 0x848 <_Z24calculate_crc32_checksumPhh+0x58>
	{
		// Nichts machen solange der CRC-Kern noch beschäftigt ist
	}
	
	crc32_checksum = ((uint32_t) CRC.CHECKSUM0 & 0x000000FF);
     84e:	e0 ed       	ldi	r30, 0xD0	; 208
     850:	f0 e0       	ldi	r31, 0x00	; 0
     852:	64 81       	ldd	r22, Z+4	; 0x04
	crc32_checksum |= (((uint32_t) CRC.CHECKSUM1 << 8) & 0x0000FF00);
     854:	25 81       	ldd	r18, Z+5	; 0x05
	crc32_checksum |= (((uint32_t) CRC.CHECKSUM2 << 16) & 0x00FF0000);
     856:	36 81       	ldd	r19, Z+6	; 0x06
	crc32_checksum |= (((uint32_t) CRC.CHECKSUM3 << 24) & 0xFF000000);
     858:	47 81       	ldd	r20, Z+7	; 0x07
     85a:	86 2f       	mov	r24, r22
     85c:	90 e0       	ldi	r25, 0x00	; 0
     85e:	a0 e0       	ldi	r26, 0x00	; 0
     860:	b0 e0       	ldi	r27, 0x00	; 0
     862:	b4 2b       	or	r27, r20
     864:	92 2b       	or	r25, r18
		
	// Den CRC-Kern anhalten, indem keine Quellec angegeben wird
	CRC.CTRL = (CRC.CTRL & (~CRC_SOURCE_gm)) | CRC_SOURCE_DISABLE_gc;
     866:	20 81       	ld	r18, Z
     868:	20 7f       	andi	r18, 0xF0	; 240
     86a:	20 83       	st	Z, r18
	
	return crc32_checksum;
     86c:	bc 01       	movw	r22, r24
     86e:	cd 01       	movw	r24, r26
     870:	83 2b       	or	r24, r19
     872:	08 95       	ret

00000874 <CALLBACK_USB_GetDescriptor>:
	const uint8_t  DescriptorNumber = (wValue & 0xFF);

	const void* Address = NULL;
	uint16_t    Size    = NO_DESCRIPTOR;

	switch (DescriptorType)
     874:	29 2f       	mov	r18, r25
     876:	33 27       	eor	r19, r19
     878:	22 30       	cpi	r18, 0x02	; 2
     87a:	31 05       	cpc	r19, r1
     87c:	59 f0       	breq	.+22     	; 0x894 <CALLBACK_USB_GetDescriptor+0x20>
     87e:	23 30       	cpi	r18, 0x03	; 3
     880:	31 05       	cpc	r19, r1
     882:	69 f0       	breq	.+26     	; 0x89e <CALLBACK_USB_GetDescriptor+0x2a>
     884:	21 30       	cpi	r18, 0x01	; 1
     886:	31 05       	cpc	r19, r1
     888:	21 f5       	brne	.+72     	; 0x8d2 <CALLBACK_USB_GetDescriptor+0x5e>
	{
		case DTYPE_Device:
			Address = &DeviceDescriptor;
			Size    = sizeof(USB_Descriptor_Device_t);
     88a:	82 e1       	ldi	r24, 0x12	; 18
     88c:	90 e0       	ldi	r25, 0x00	; 0
	uint16_t    Size    = NO_DESCRIPTOR;

	switch (DescriptorType)
	{
		case DTYPE_Device:
			Address = &DeviceDescriptor;
     88e:	22 e2       	ldi	r18, 0x22	; 34
     890:	35 e0       	ldi	r19, 0x05	; 5
     892:	28 c0       	rjmp	.+80     	; 0x8e4 <CALLBACK_USB_GetDescriptor+0x70>
			Size    = sizeof(USB_Descriptor_Device_t);
			break;
		case DTYPE_Configuration:
			Address = &ConfigurationDescriptor;
			Size    = sizeof(USB_Descriptor_Configuration_t);
     894:	8e e3       	ldi	r24, 0x3E	; 62
     896:	90 e0       	ldi	r25, 0x00	; 0
		case DTYPE_Device:
			Address = &DeviceDescriptor;
			Size    = sizeof(USB_Descriptor_Device_t);
			break;
		case DTYPE_Configuration:
			Address = &ConfigurationDescriptor;
     898:	24 ee       	ldi	r18, 0xE4	; 228
     89a:	34 e0       	ldi	r19, 0x04	; 4
			Size    = sizeof(USB_Descriptor_Configuration_t);
			break;
     89c:	23 c0       	rjmp	.+70     	; 0x8e4 <CALLBACK_USB_GetDescriptor+0x70>
		case DTYPE_String:
			switch (DescriptorNumber)
     89e:	99 27       	eor	r25, r25
     8a0:	81 30       	cpi	r24, 0x01	; 1
     8a2:	91 05       	cpc	r25, r1
     8a4:	51 f0       	breq	.+20     	; 0x8ba <CALLBACK_USB_GetDescriptor+0x46>
     8a6:	18 f0       	brcs	.+6      	; 0x8ae <CALLBACK_USB_GetDescriptor+0x3a>
     8a8:	02 97       	sbiw	r24, 0x02	; 2
     8aa:	69 f0       	breq	.+26     	; 0x8c6 <CALLBACK_USB_GetDescriptor+0x52>
     8ac:	17 c0       	rjmp	.+46     	; 0x8dc <CALLBACK_USB_GetDescriptor+0x68>
			{
				case 0x00:
					Address = &LanguageString;
					Size    = pgm_read_byte(&LanguageString.Header.Size);
     8ae:	e0 ee       	ldi	r30, 0xE0	; 224
     8b0:	f4 e0       	ldi	r31, 0x04	; 4
     8b2:	84 91       	lpm	r24, Z
     8b4:	90 e0       	ldi	r25, 0x00	; 0
			break;
		case DTYPE_String:
			switch (DescriptorNumber)
			{
				case 0x00:
					Address = &LanguageString;
     8b6:	9f 01       	movw	r18, r30
					Size    = pgm_read_byte(&LanguageString.Header.Size);
					break;
     8b8:	15 c0       	rjmp	.+42     	; 0x8e4 <CALLBACK_USB_GetDescriptor+0x70>
				case 0x01:
					Address = &ManufacturerString;
					Size    = pgm_read_byte(&ManufacturerString.Header.Size);
     8ba:	e0 ed       	ldi	r30, 0xD0	; 208
     8bc:	f4 e0       	ldi	r31, 0x04	; 4
     8be:	84 91       	lpm	r24, Z
     8c0:	90 e0       	ldi	r25, 0x00	; 0
				case 0x00:
					Address = &LanguageString;
					Size    = pgm_read_byte(&LanguageString.Header.Size);
					break;
				case 0x01:
					Address = &ManufacturerString;
     8c2:	9f 01       	movw	r18, r30
					Size    = pgm_read_byte(&ManufacturerString.Header.Size);
					break;
     8c4:	0f c0       	rjmp	.+30     	; 0x8e4 <CALLBACK_USB_GetDescriptor+0x70>
				case 0x02:
					Address = &ProductString;
					Size    = pgm_read_byte(&ProductString.Header.Size);
     8c6:	e0 eb       	ldi	r30, 0xB0	; 176
     8c8:	f4 e0       	ldi	r31, 0x04	; 4
     8ca:	84 91       	lpm	r24, Z
     8cc:	90 e0       	ldi	r25, 0x00	; 0
				case 0x01:
					Address = &ManufacturerString;
					Size    = pgm_read_byte(&ManufacturerString.Header.Size);
					break;
				case 0x02:
					Address = &ProductString;
     8ce:	9f 01       	movw	r18, r30
					Size    = pgm_read_byte(&ProductString.Header.Size);
					break;
     8d0:	09 c0       	rjmp	.+18     	; 0x8e4 <CALLBACK_USB_GetDescriptor+0x70>
{
	const uint8_t  DescriptorType   = (wValue >> 8);
	const uint8_t  DescriptorNumber = (wValue & 0xFF);

	const void* Address = NULL;
	uint16_t    Size    = NO_DESCRIPTOR;
     8d2:	80 e0       	ldi	r24, 0x00	; 0
     8d4:	90 e0       	ldi	r25, 0x00	; 0
                                    const void** const DescriptorAddress)
{
	const uint8_t  DescriptorType   = (wValue >> 8);
	const uint8_t  DescriptorNumber = (wValue & 0xFF);

	const void* Address = NULL;
     8d6:	20 e0       	ldi	r18, 0x00	; 0
     8d8:	30 e0       	ldi	r19, 0x00	; 0
     8da:	04 c0       	rjmp	.+8      	; 0x8e4 <CALLBACK_USB_GetDescriptor+0x70>
	uint16_t    Size    = NO_DESCRIPTOR;
     8dc:	80 e0       	ldi	r24, 0x00	; 0
     8de:	90 e0       	ldi	r25, 0x00	; 0
                                    const void** const DescriptorAddress)
{
	const uint8_t  DescriptorType   = (wValue >> 8);
	const uint8_t  DescriptorNumber = (wValue & 0xFF);

	const void* Address = NULL;
     8e0:	20 e0       	ldi	r18, 0x00	; 0
     8e2:	30 e0       	ldi	r19, 0x00	; 0
			}

			break;
	}

	*DescriptorAddress = Address;
     8e4:	fa 01       	movw	r30, r20
     8e6:	20 83       	st	Z, r18
     8e8:	31 83       	std	Z+1, r19	; 0x01
	return Size;
}
     8ea:	08 95       	ret

000008ec <_Z8set_WRENv>:
#include "FM25CL64B.h"
#include <avr/interrupt.h>
#include <util/delay.h>

void set_WREN()
{
     8ec:	1f 93       	push	r17
     8ee:	cf 93       	push	r28
     8f0:	df 93       	push	r29
	PORTC.OUTCLR = PIN4_bm;
     8f2:	c0 e4       	ldi	r28, 0x40	; 64
     8f4:	d6 e0       	ldi	r29, 0x06	; 6
     8f6:	10 e1       	ldi	r17, 0x10	; 16
     8f8:	1e 83       	std	Y+6, r17	; 0x06
	SPIC_Write(WREN);
     8fa:	86 e0       	ldi	r24, 0x06	; 6
     8fc:	0e 94 5b 33 	call	0x66b6	; 0x66b6 <_Z10SPIC_Writeh>
	PORTC.OUTSET = PIN4_bm;
     900:	1d 83       	std	Y+5, r17	; 0x05
}
     902:	df 91       	pop	r29
     904:	cf 91       	pop	r28
     906:	1f 91       	pop	r17
     908:	08 95       	ret

0000090a <_Z17Write_to_SPI_FRAMPhjh>:

void Write_to_SPI_FRAM(uint8_t *writeData,uint16_t Adress,uint8_t bytes)
{
     90a:	ef 92       	push	r14
     90c:	ff 92       	push	r15
     90e:	1f 93       	push	r17
     910:	cf 93       	push	r28
     912:	df 93       	push	r29
     914:	ec 01       	movw	r28, r24
     916:	7b 01       	movw	r14, r22
     918:	14 2f       	mov	r17, r20
	
	SPIC_Write(WRITE);
     91a:	82 e0       	ldi	r24, 0x02	; 2
     91c:	0e 94 5b 33 	call	0x66b6	; 0x66b6 <_Z10SPIC_Writeh>
	SPIC_Write_16bit_address(Adress);
     920:	c7 01       	movw	r24, r14
     922:	0e 94 65 33 	call	0x66ca	; 0x66ca <_Z24SPIC_Write_16bit_addressj>
	SPIC_Write_array(writeData,bytes);
     926:	61 2f       	mov	r22, r17
     928:	ce 01       	movw	r24, r28
     92a:	0e 94 6f 33 	call	0x66de	; 0x66de <_Z16SPIC_Write_arrayPhh>
	
}
     92e:	df 91       	pop	r29
     930:	cf 91       	pop	r28
     932:	1f 91       	pop	r17
     934:	ff 90       	pop	r15
     936:	ef 90       	pop	r14
     938:	08 95       	ret

0000093a <_Z18Read_from_SPI_FRAMPhjh>:

void Read_from_SPI_FRAM(uint8_t *readData,uint16_t Adress,uint8_t bytes)
{
     93a:	ef 92       	push	r14
     93c:	ff 92       	push	r15
     93e:	1f 93       	push	r17
     940:	cf 93       	push	r28
     942:	df 93       	push	r29
     944:	ec 01       	movw	r28, r24
     946:	7b 01       	movw	r14, r22
     948:	14 2f       	mov	r17, r20
	
	SPIC_Write(READ);
     94a:	83 e0       	ldi	r24, 0x03	; 3
     94c:	0e 94 5b 33 	call	0x66b6	; 0x66b6 <_Z10SPIC_Writeh>
	SPIC_Write_16bit_address(Adress);
     950:	c7 01       	movw	r24, r14
     952:	0e 94 65 33 	call	0x66ca	; 0x66ca <_Z24SPIC_Write_16bit_addressj>
	SPIC_Read_array(readData,bytes);
     956:	61 2f       	mov	r22, r17
     958:	ce 01       	movw	r24, r28
     95a:	0e 94 85 33 	call	0x670a	; 0x670a <_Z15SPIC_Read_arrayPhh>
	
}
     95e:	df 91       	pop	r29
     960:	cf 91       	pop	r28
     962:	1f 91       	pop	r17
     964:	ff 90       	pop	r15
     966:	ef 90       	pop	r14
     968:	08 95       	ret

0000096a <_Z12read_profileP13Speed_profilehbj>:

void read_profile(p_Speed_profile_t proile,uint8_t ID,bool use_twi,uint16_t offset)
{
     96a:	ef 92       	push	r14
     96c:	0f 93       	push	r16
     96e:	1f 93       	push	r17
     970:	cf 93       	push	r28
     972:	df 93       	push	r29
	if(use_twi)
     974:	44 23       	and	r20, r20
     976:	71 f0       	breq	.+28     	; 0x994 <_Z12read_profileP13Speed_profilehbj+0x2a>
		twi_read(&TWIE,(uint8_t *)proile,FRAM_I2C_ADDR,offset + sizeof(Speed_profile_t) * (uint16_t) ID,sizeof(Speed_profile_t),0);
     978:	4f e1       	ldi	r20, 0x1F	; 31
     97a:	64 9f       	mul	r22, r20
     97c:	20 0d       	add	r18, r0
     97e:	31 1d       	adc	r19, r1
     980:	11 24       	eor	r1, r1
     982:	e1 2c       	mov	r14, r1
     984:	0f e1       	ldi	r16, 0x1F	; 31
     986:	40 ea       	ldi	r20, 0xA0	; 160
     988:	bc 01       	movw	r22, r24
     98a:	80 ea       	ldi	r24, 0xA0	; 160
     98c:	94 e0       	ldi	r25, 0x04	; 4
     98e:	0e 94 0a 34 	call	0x6814	; 0x6814 <_Z8twi_readP10TWI_structPhhjhb>
     992:	0f c0       	rjmp	.+30     	; 0x9b2 <_Z12read_profileP13Speed_profilehbj+0x48>
	else
	{
		PORTC.OUTCLR = PIN4_bm;
     994:	c0 e4       	ldi	r28, 0x40	; 64
     996:	d6 e0       	ldi	r29, 0x06	; 6
     998:	10 e1       	ldi	r17, 0x10	; 16
     99a:	1e 83       	std	Y+6, r17	; 0x06
		Read_from_SPI_FRAM((uint8_t *)proile,offset + sizeof(Speed_profile_t) * (uint16_t) ID,sizeof(Speed_profile_t));
     99c:	a9 01       	movw	r20, r18
     99e:	ef e1       	ldi	r30, 0x1F	; 31
     9a0:	6e 9f       	mul	r22, r30
     9a2:	40 0d       	add	r20, r0
     9a4:	51 1d       	adc	r21, r1
     9a6:	11 24       	eor	r1, r1
     9a8:	ba 01       	movw	r22, r20
     9aa:	4f e1       	ldi	r20, 0x1F	; 31
     9ac:	0e 94 9d 04 	call	0x93a	; 0x93a <_Z18Read_from_SPI_FRAMPhjh>
		PORTC.OUTSET = PIN4_bm;
     9b0:	1d 83       	std	Y+5, r17	; 0x05
	}
	
	
}
     9b2:	df 91       	pop	r29
     9b4:	cf 91       	pop	r28
     9b6:	1f 91       	pop	r17
     9b8:	0f 91       	pop	r16
     9ba:	ef 90       	pop	r14
     9bc:	08 95       	ret

000009be <_Z18read_param_profileP20regulator_parametershbj>:

void read_param_profile(p_regulator_parameters_t proile,uint8_t ID,bool use_twi,uint16_t offset)
{
     9be:	ef 92       	push	r14
     9c0:	0f 93       	push	r16
     9c2:	1f 93       	push	r17
     9c4:	cf 93       	push	r28
     9c6:	df 93       	push	r29
	if(use_twi)
     9c8:	44 23       	and	r20, r20
     9ca:	79 f0       	breq	.+30     	; 0x9ea <_Z18read_param_profileP20regulator_parametershbj+0x2c>
	twi_read(&TWIE,(uint8_t *)proile,FRAM_I2C_ADDR,offset + sizeof(p_regulator_parameters_t) * (uint16_t) ID,sizeof(p_regulator_parameters_t),0);
     9cc:	46 2f       	mov	r20, r22
     9ce:	50 e0       	ldi	r21, 0x00	; 0
     9d0:	44 0f       	add	r20, r20
     9d2:	55 1f       	adc	r21, r21
     9d4:	24 0f       	add	r18, r20
     9d6:	35 1f       	adc	r19, r21
     9d8:	e1 2c       	mov	r14, r1
     9da:	02 e0       	ldi	r16, 0x02	; 2
     9dc:	40 ea       	ldi	r20, 0xA0	; 160
     9de:	bc 01       	movw	r22, r24
     9e0:	80 ea       	ldi	r24, 0xA0	; 160
     9e2:	94 e0       	ldi	r25, 0x04	; 4
     9e4:	0e 94 0a 34 	call	0x6814	; 0x6814 <_Z8twi_readP10TWI_structPhhjhb>
     9e8:	0d c0       	rjmp	.+26     	; 0xa04 <_Z18read_param_profileP20regulator_parametershbj+0x46>
	else
	{
		PORTC.OUTCLR = PIN4_bm;
     9ea:	c0 e4       	ldi	r28, 0x40	; 64
     9ec:	d6 e0       	ldi	r29, 0x06	; 6
     9ee:	10 e1       	ldi	r17, 0x10	; 16
     9f0:	1e 83       	std	Y+6, r17	; 0x06
		Read_from_SPI_FRAM((uint8_t *)proile,offset + sizeof(p_regulator_parameters_t) * (uint16_t) ID,sizeof(p_regulator_parameters_t));
     9f2:	70 e0       	ldi	r23, 0x00	; 0
     9f4:	66 0f       	add	r22, r22
     9f6:	77 1f       	adc	r23, r23
     9f8:	62 0f       	add	r22, r18
     9fa:	73 1f       	adc	r23, r19
     9fc:	42 e0       	ldi	r20, 0x02	; 2
     9fe:	0e 94 9d 04 	call	0x93a	; 0x93a <_Z18Read_from_SPI_FRAMPhjh>
		PORTC.OUTSET = PIN4_bm;
     a02:	1d 83       	std	Y+5, r17	; 0x05
	}
	
	
}
     a04:	df 91       	pop	r29
     a06:	cf 91       	pop	r28
     a08:	1f 91       	pop	r17
     a0a:	0f 91       	pop	r16
     a0c:	ef 90       	pop	r14
     a0e:	08 95       	ret

00000a10 <_Z13write_profileP13Speed_profilehbj>:

void write_profile(p_Speed_profile_t proile,uint8_t ID,bool use_twi,uint16_t offset)
{
     a10:	8f 92       	push	r8
     a12:	9f 92       	push	r9
     a14:	af 92       	push	r10
     a16:	cf 92       	push	r12
     a18:	ef 92       	push	r14
     a1a:	ff 92       	push	r15
     a1c:	0f 93       	push	r16
     a1e:	1f 93       	push	r17
     a20:	cf 93       	push	r28
     a22:	df 93       	push	r29
     a24:	4c 01       	movw	r8, r24
     a26:	16 2f       	mov	r17, r22
     a28:	e9 01       	movw	r28, r18
	if(use_twi)
     a2a:	44 23       	and	r20, r20
     a2c:	81 f0       	breq	.+32     	; 0xa4e <_Z13write_profileP13Speed_profilehbj+0x3e>
		twi_write(&TWIE,(uint8_t *)proile,FRAM_I2C_ADDR,offset + sizeof(Speed_profile_t) * (uint16_t) ID,sizeof(Speed_profile_t),0,0,0);
     a2e:	8f e1       	ldi	r24, 0x1F	; 31
     a30:	68 9f       	mul	r22, r24
     a32:	20 0d       	add	r18, r0
     a34:	31 1d       	adc	r19, r1
     a36:	11 24       	eor	r1, r1
     a38:	a1 2c       	mov	r10, r1
     a3a:	c1 2c       	mov	r12, r1
     a3c:	e1 2c       	mov	r14, r1
     a3e:	0f e1       	ldi	r16, 0x1F	; 31
     a40:	40 ea       	ldi	r20, 0xA0	; 160
     a42:	b4 01       	movw	r22, r8
     a44:	80 ea       	ldi	r24, 0xA0	; 160
     a46:	94 e0       	ldi	r25, 0x04	; 4
     a48:	0e 94 9c 33 	call	0x6738	; 0x6738 <_Z9twi_writeP10TWI_structPhhjhbbb>
     a4c:	1d c0       	rjmp	.+58     	; 0xa88 <_Z13write_profileP13Speed_profilehbj+0x78>
	else
	{
		set_WREN();
     a4e:	0e 94 76 04 	call	0x8ec	; 0x8ec <_Z8set_WRENv>
	#else
		//round up by default
		__ticks_dc = (uint32_t)(ceil(fabs(__tmp)));
	#endif

	__builtin_avr_delay_cycles(__ticks_dc);
     a52:	ef e7       	ldi	r30, 0x7F	; 127
     a54:	fe e3       	ldi	r31, 0x3E	; 62
     a56:	31 97       	sbiw	r30, 0x01	; 1
     a58:	f1 f7       	brne	.-4      	; 0xa56 <_Z13write_profileP13Speed_profilehbj+0x46>
     a5a:	00 c0       	rjmp	.+0      	; 0xa5c <_Z13write_profileP13Speed_profilehbj+0x4c>
     a5c:	00 00       	nop
		_delay_ms(2);
		PORTC.OUTCLR = PIN4_bm;
     a5e:	0f 2e       	mov	r0, r31
     a60:	f0 e4       	ldi	r31, 0x40	; 64
     a62:	ef 2e       	mov	r14, r31
     a64:	f6 e0       	ldi	r31, 0x06	; 6
     a66:	ff 2e       	mov	r15, r31
     a68:	f0 2d       	mov	r31, r0
     a6a:	00 e1       	ldi	r16, 0x10	; 16
     a6c:	f7 01       	movw	r30, r14
     a6e:	06 83       	std	Z+6, r16	; 0x06
		Write_to_SPI_FRAM((uint8_t *)proile,offset + sizeof(Speed_profile_t) * (uint16_t) ID,sizeof(Speed_profile_t));
     a70:	be 01       	movw	r22, r28
     a72:	ff e1       	ldi	r31, 0x1F	; 31
     a74:	1f 9f       	mul	r17, r31
     a76:	60 0d       	add	r22, r0
     a78:	71 1d       	adc	r23, r1
     a7a:	11 24       	eor	r1, r1
     a7c:	4f e1       	ldi	r20, 0x1F	; 31
     a7e:	c4 01       	movw	r24, r8
     a80:	0e 94 85 04 	call	0x90a	; 0x90a <_Z17Write_to_SPI_FRAMPhjh>
		PORTC.OUTSET = PIN4_bm;
     a84:	f7 01       	movw	r30, r14
     a86:	05 83       	std	Z+5, r16	; 0x05
	}
	
}
     a88:	df 91       	pop	r29
     a8a:	cf 91       	pop	r28
     a8c:	1f 91       	pop	r17
     a8e:	0f 91       	pop	r16
     a90:	ff 90       	pop	r15
     a92:	ef 90       	pop	r14
     a94:	cf 90       	pop	r12
     a96:	af 90       	pop	r10
     a98:	9f 90       	pop	r9
     a9a:	8f 90       	pop	r8
     a9c:	08 95       	ret

00000a9e <_Z19write_param_profileP20regulator_parametershbj>:

void write_param_profile(p_regulator_parameters_t proile,uint8_t ID,bool use_twi,uint16_t offset)
{
     a9e:	8f 92       	push	r8
     aa0:	9f 92       	push	r9
     aa2:	af 92       	push	r10
     aa4:	cf 92       	push	r12
     aa6:	ef 92       	push	r14
     aa8:	ff 92       	push	r15
     aaa:	0f 93       	push	r16
     aac:	1f 93       	push	r17
     aae:	cf 93       	push	r28
     ab0:	df 93       	push	r29
     ab2:	4c 01       	movw	r8, r24
     ab4:	f6 2e       	mov	r15, r22
     ab6:	89 01       	movw	r16, r18
	if(use_twi)
     ab8:	44 23       	and	r20, r20
     aba:	89 f0       	breq	.+34     	; 0xade <_Z19write_param_profileP20regulator_parametershbj+0x40>
	twi_write(&TWIE,(uint8_t *)proile,FRAM_I2C_ADDR,offset + sizeof(p_regulator_parameters_t) * (uint16_t) ID,sizeof(p_regulator_parameters_t),0,0,0);
     abc:	26 2f       	mov	r18, r22
     abe:	30 e0       	ldi	r19, 0x00	; 0
     ac0:	22 0f       	add	r18, r18
     ac2:	33 1f       	adc	r19, r19
     ac4:	20 0f       	add	r18, r16
     ac6:	31 1f       	adc	r19, r17
     ac8:	a1 2c       	mov	r10, r1
     aca:	c1 2c       	mov	r12, r1
     acc:	e1 2c       	mov	r14, r1
     ace:	02 e0       	ldi	r16, 0x02	; 2
     ad0:	40 ea       	ldi	r20, 0xA0	; 160
     ad2:	bc 01       	movw	r22, r24
     ad4:	80 ea       	ldi	r24, 0xA0	; 160
     ad6:	94 e0       	ldi	r25, 0x04	; 4
     ad8:	0e 94 9c 33 	call	0x6738	; 0x6738 <_Z9twi_writeP10TWI_structPhhjhbbb>
     adc:	19 c0       	rjmp	.+50     	; 0xb10 <_Z19write_param_profileP20regulator_parametershbj+0x72>
	else
	{
		set_WREN();
     ade:	0e 94 76 04 	call	0x8ec	; 0x8ec <_Z8set_WRENv>
     ae2:	8f e7       	ldi	r24, 0x7F	; 127
     ae4:	9e e3       	ldi	r25, 0x3E	; 62
     ae6:	01 97       	sbiw	r24, 0x01	; 1
     ae8:	f1 f7       	brne	.-4      	; 0xae6 <_Z19write_param_profileP20regulator_parametershbj+0x48>
     aea:	00 c0       	rjmp	.+0      	; 0xaec <_Z19write_param_profileP20regulator_parametershbj+0x4e>
     aec:	00 00       	nop
		_delay_ms(2);
		PORTC.OUTCLR = PIN4_bm;
     aee:	c0 e4       	ldi	r28, 0x40	; 64
     af0:	d6 e0       	ldi	r29, 0x06	; 6
     af2:	68 94       	set
     af4:	ee 24       	eor	r14, r14
     af6:	e4 f8       	bld	r14, 4
     af8:	ee 82       	std	Y+6, r14	; 0x06
		Write_to_SPI_FRAM((uint8_t *)proile,offset + sizeof(p_regulator_parameters_t) * (uint16_t) ID,sizeof(p_regulator_parameters_t));
     afa:	6f 2d       	mov	r22, r15
     afc:	70 e0       	ldi	r23, 0x00	; 0
     afe:	66 0f       	add	r22, r22
     b00:	77 1f       	adc	r23, r23
     b02:	60 0f       	add	r22, r16
     b04:	71 1f       	adc	r23, r17
     b06:	42 e0       	ldi	r20, 0x02	; 2
     b08:	c4 01       	movw	r24, r8
     b0a:	0e 94 85 04 	call	0x90a	; 0x90a <_Z17Write_to_SPI_FRAMPhjh>
		PORTC.OUTSET = PIN4_bm;
     b0e:	ed 82       	std	Y+5, r14	; 0x05
	}
	
     b10:	df 91       	pop	r29
     b12:	cf 91       	pop	r28
     b14:	1f 91       	pop	r17
     b16:	0f 91       	pop	r16
     b18:	ff 90       	pop	r15
     b1a:	ef 90       	pop	r14
     b1c:	cf 90       	pop	r12
     b1e:	af 90       	pop	r10
     b20:	9f 90       	pop	r9
     b22:	8f 90       	pop	r8
     b24:	08 95       	ret

00000b26 <_Z10PCA_configv>:
void lcd_home(bool SSH1306){
	lcd_gotoxy(0, 0,SSH1306);
}

void PCA_config()
{
     b26:	af 92       	push	r10
     b28:	cf 92       	push	r12
     b2a:	ef 92       	push	r14
     b2c:	0f 93       	push	r16
     b2e:	cf 93       	push	r28
     b30:	df 93       	push	r29
     b32:	00 d0       	rcall	.+0      	; 0xb34 <_Z10PCA_configv+0xe>
     b34:	cd b7       	in	r28, 0x3d	; 61
     b36:	de b7       	in	r29, 0x3e	; 62
	uint8_t data_[2];
	data_[0] = config_register;
     b38:	83 e0       	ldi	r24, 0x03	; 3
     b3a:	89 83       	std	Y+1, r24	; 0x01
	data_[1] = 0;
     b3c:	1a 82       	std	Y+2, r1	; 0x02
	twi_write(&TWIE,data_,PCA_I2C_ADDR,DATA,2,0,1,0);
     b3e:	a1 2c       	mov	r10, r1
     b40:	cc 24       	eor	r12, r12
     b42:	c3 94       	inc	r12
     b44:	e1 2c       	mov	r14, r1
     b46:	02 e0       	ldi	r16, 0x02	; 2
     b48:	20 e4       	ldi	r18, 0x40	; 64
     b4a:	30 e0       	ldi	r19, 0x00	; 0
     b4c:	42 e8       	ldi	r20, 0x82	; 130
     b4e:	be 01       	movw	r22, r28
     b50:	6f 5f       	subi	r22, 0xFF	; 255
     b52:	7f 4f       	sbci	r23, 0xFF	; 255
     b54:	80 ea       	ldi	r24, 0xA0	; 160
     b56:	94 e0       	ldi	r25, 0x04	; 4
     b58:	0e 94 9c 33 	call	0x6738	; 0x6738 <_Z9twi_writeP10TWI_structPhhjhbbb>
}
     b5c:	0f 90       	pop	r0
     b5e:	0f 90       	pop	r0
     b60:	df 91       	pop	r29
     b62:	cf 91       	pop	r28
     b64:	0f 91       	pop	r16
     b66:	ef 90       	pop	r14
     b68:	cf 90       	pop	r12
     b6a:	af 90       	pop	r10
     b6c:	08 95       	ret

00000b6e <_Z9lcd_resetv>:

void lcd_reset()
{
     b6e:	af 92       	push	r10
     b70:	cf 92       	push	r12
     b72:	ef 92       	push	r14
     b74:	0f 93       	push	r16
     b76:	1f 93       	push	r17
     b78:	cf 93       	push	r28
     b7a:	df 93       	push	r29
     b7c:	00 d0       	rcall	.+0      	; 0xb7e <_Z9lcd_resetv+0x10>
     b7e:	cd b7       	in	r28, 0x3d	; 61
     b80:	de b7       	in	r29, 0x3e	; 62
	uint8_t data_[2];
	//data[0] = 0x82; // PCA address
	data_[0] = Output_register;
     b82:	11 e0       	ldi	r17, 0x01	; 1
     b84:	19 83       	std	Y+1, r17	; 0x01
	data_[1] = 0;
     b86:	1a 82       	std	Y+2, r1	; 0x02
	twi_write(&TWIE,data_,PCA_I2C_ADDR,DATA,2,0,1,0);
     b88:	a1 2c       	mov	r10, r1
     b8a:	cc 24       	eor	r12, r12
     b8c:	c3 94       	inc	r12
     b8e:	e1 2c       	mov	r14, r1
     b90:	02 e0       	ldi	r16, 0x02	; 2
     b92:	20 e4       	ldi	r18, 0x40	; 64
     b94:	30 e0       	ldi	r19, 0x00	; 0
     b96:	42 e8       	ldi	r20, 0x82	; 130
     b98:	be 01       	movw	r22, r28
     b9a:	6f 5f       	subi	r22, 0xFF	; 255
     b9c:	7f 4f       	sbci	r23, 0xFF	; 255
     b9e:	80 ea       	ldi	r24, 0xA0	; 160
     ba0:	94 e0       	ldi	r25, 0x04	; 4
     ba2:	0e 94 9c 33 	call	0x6738	; 0x6738 <_Z9twi_writeP10TWI_structPhhjhbbb>
     ba6:	8f e3       	ldi	r24, 0x3F	; 63
     ba8:	9f e1       	ldi	r25, 0x1F	; 31
     baa:	01 97       	sbiw	r24, 0x01	; 1
     bac:	f1 f7       	brne	.-4      	; 0xbaa <_Z9lcd_resetv+0x3c>
     bae:	00 c0       	rjmp	.+0      	; 0xbb0 <_Z9lcd_resetv+0x42>
     bb0:	00 00       	nop
	_delay_ms(1);
	
	data_[1] = (1<<0);
     bb2:	1a 83       	std	Y+2, r17	; 0x02
	twi_write(&TWIE,data_,PCA_I2C_ADDR,DATA,2,0,1,0);
     bb4:	20 e4       	ldi	r18, 0x40	; 64
     bb6:	30 e0       	ldi	r19, 0x00	; 0
     bb8:	42 e8       	ldi	r20, 0x82	; 130
     bba:	be 01       	movw	r22, r28
     bbc:	6f 5f       	subi	r22, 0xFF	; 255
     bbe:	7f 4f       	sbci	r23, 0xFF	; 255
     bc0:	80 ea       	ldi	r24, 0xA0	; 160
     bc2:	94 e0       	ldi	r25, 0x04	; 4
     bc4:	0e 94 9c 33 	call	0x6738	; 0x6738 <_Z9twi_writeP10TWI_structPhhjhbbb>
	
}
     bc8:	0f 90       	pop	r0
     bca:	0f 90       	pop	r0
     bcc:	df 91       	pop	r29
     bce:	cf 91       	pop	r28
     bd0:	1f 91       	pop	r17
     bd2:	0f 91       	pop	r16
     bd4:	ef 90       	pop	r14
     bd6:	cf 90       	pop	r12
     bd8:	af 90       	pop	r10
     bda:	08 95       	ret

00000bdc <_Z11sendCommandh>:

void sendCommand(uint8_t data)
{
     bdc:	af 92       	push	r10
     bde:	cf 92       	push	r12
     be0:	ef 92       	push	r14
     be2:	0f 93       	push	r16
     be4:	cf 93       	push	r28
     be6:	df 93       	push	r29
     be8:	1f 92       	push	r1
     bea:	cd b7       	in	r28, 0x3d	; 61
     bec:	de b7       	in	r29, 0x3e	; 62
     bee:	89 83       	std	Y+1, r24	; 0x01
	twi_write(&TWIE,&data,LCD_I2C_ADDR,COMMAND,1,0,0,1);
     bf0:	aa 24       	eor	r10, r10
     bf2:	a3 94       	inc	r10
     bf4:	c1 2c       	mov	r12, r1
     bf6:	e1 2c       	mov	r14, r1
     bf8:	01 e0       	ldi	r16, 0x01	; 1
     bfa:	20 e0       	ldi	r18, 0x00	; 0
     bfc:	30 e0       	ldi	r19, 0x00	; 0
     bfe:	48 e7       	ldi	r20, 0x78	; 120
     c00:	be 01       	movw	r22, r28
     c02:	6f 5f       	subi	r22, 0xFF	; 255
     c04:	7f 4f       	sbci	r23, 0xFF	; 255
     c06:	80 ea       	ldi	r24, 0xA0	; 160
     c08:	94 e0       	ldi	r25, 0x04	; 4
     c0a:	0e 94 9c 33 	call	0x6738	; 0x6738 <_Z9twi_writeP10TWI_structPhhjhbbb>
}
     c0e:	0f 90       	pop	r0
     c10:	df 91       	pop	r29
     c12:	cf 91       	pop	r28
     c14:	0f 91       	pop	r16
     c16:	ef 90       	pop	r14
     c18:	cf 90       	pop	r12
     c1a:	af 90       	pop	r10
     c1c:	08 95       	ret

00000c1e <_Z10lcd_gotoxyhhb>:
    //lcd_send_i2c_start();
    //lcd_send_i2c_byte(0x40);	// 0x00 for command, 0x40 for data
    //lcd_send_i2c_byte(data);
    //lcd_send_i2c_stop();
//}
void lcd_gotoxy(uint8_t x, uint8_t y,bool SSH1306){
     c1e:	af 92       	push	r10
     c20:	cf 92       	push	r12
     c22:	ef 92       	push	r14
     c24:	ff 92       	push	r15
     c26:	0f 93       	push	r16
     c28:	1f 93       	push	r17
     c2a:	cf 93       	push	r28
     c2c:	df 93       	push	r29
     c2e:	00 d0       	rcall	.+0      	; 0xc30 <_Z10lcd_gotoxyhhb+0x12>
     c30:	00 d0       	rcall	.+0      	; 0xc32 <_Z10lcd_gotoxyhhb+0x14>
     c32:	cd b7       	in	r28, 0x3d	; 61
     c34:	de b7       	in	r29, 0x3e	; 62
     c36:	f6 2e       	mov	r15, r22
	x *= 6;
     c38:	18 2f       	mov	r17, r24
     c3a:	11 0f       	add	r17, r17
     c3c:	81 0f       	add	r24, r17
     c3e:	18 2f       	mov	r17, r24
     c40:	11 0f       	add	r17, r17
	uint8_t helper[4];
	if(SSH1306)
     c42:	44 23       	and	r20, r20
     c44:	c1 f0       	breq	.+48     	; 0xc76 <_Z10lcd_gotoxyhhb+0x58>
	{
		helper[0] = 0xb0 + y;	// set page start to y
     c46:	80 eb       	ldi	r24, 0xB0	; 176
     c48:	86 0f       	add	r24, r22
     c4a:	89 83       	std	Y+1, r24	; 0x01
		helper[1] = 0x21;		// set column start
     c4c:	81 e2       	ldi	r24, 0x21	; 33
     c4e:	8a 83       	std	Y+2, r24	; 0x02
		helper[2] = x; 			// to x
     c50:	1b 83       	std	Y+3, r17	; 0x03
		helper[3] = 0x7f;		// set column end to 127
     c52:	8f e7       	ldi	r24, 0x7F	; 127
     c54:	8c 83       	std	Y+4, r24	; 0x04
		twi_write(&TWIE,helper,LCD_I2C_ADDR,0x00,4,0,0,1);  // Write data to I2C
     c56:	aa 24       	eor	r10, r10
     c58:	a3 94       	inc	r10
     c5a:	c1 2c       	mov	r12, r1
     c5c:	e1 2c       	mov	r14, r1
     c5e:	04 e0       	ldi	r16, 0x04	; 4
     c60:	20 e0       	ldi	r18, 0x00	; 0
     c62:	30 e0       	ldi	r19, 0x00	; 0
     c64:	48 e7       	ldi	r20, 0x78	; 120
     c66:	be 01       	movw	r22, r28
     c68:	6f 5f       	subi	r22, 0xFF	; 255
     c6a:	7f 4f       	sbci	r23, 0xFF	; 255
     c6c:	80 ea       	ldi	r24, 0xA0	; 160
     c6e:	94 e0       	ldi	r25, 0x04	; 4
     c70:	0e 94 9c 33 	call	0x6738	; 0x6738 <_Z9twi_writeP10TWI_structPhhjhbbb>
     c74:	38 c0       	rjmp	.+112    	; 0xce6 <_Z10lcd_gotoxyhhb+0xc8>
	}
	else
	{
		helper[0] = (x+2) & 0x0F;	// lower nibble
     c76:	82 e0       	ldi	r24, 0x02	; 2
     c78:	81 0f       	add	r24, r17
     c7a:	8f 70       	andi	r24, 0x0F	; 15
     c7c:	89 83       	std	Y+1, r24	; 0x01
	twi_write(&TWIE,helper,LCD_I2C_ADDR,0x00,1,0,0,1);  // Write data to I2C
     c7e:	aa 24       	eor	r10, r10
     c80:	a3 94       	inc	r10
     c82:	c1 2c       	mov	r12, r1
     c84:	e1 2c       	mov	r14, r1
     c86:	01 e0       	ldi	r16, 0x01	; 1
     c88:	20 e0       	ldi	r18, 0x00	; 0
     c8a:	30 e0       	ldi	r19, 0x00	; 0
     c8c:	48 e7       	ldi	r20, 0x78	; 120
     c8e:	be 01       	movw	r22, r28
     c90:	6f 5f       	subi	r22, 0xFF	; 255
     c92:	7f 4f       	sbci	r23, 0xFF	; 255
     c94:	80 ea       	ldi	r24, 0xA0	; 160
     c96:	94 e0       	ldi	r25, 0x04	; 4
     c98:	0e 94 9c 33 	call	0x6738	; 0x6738 <_Z9twi_writeP10TWI_structPhhjhbbb>
	helper[0] = 0x10 | (x+2) >> 4;		// set column start
     c9c:	81 2f       	mov	r24, r17
     c9e:	90 e0       	ldi	r25, 0x00	; 0
     ca0:	02 96       	adiw	r24, 0x02	; 2
     ca2:	95 95       	asr	r25
     ca4:	87 95       	ror	r24
     ca6:	95 95       	asr	r25
     ca8:	87 95       	ror	r24
     caa:	95 95       	asr	r25
     cac:	87 95       	ror	r24
     cae:	95 95       	asr	r25
     cb0:	87 95       	ror	r24
     cb2:	80 61       	ori	r24, 0x10	; 16
     cb4:	89 83       	std	Y+1, r24	; 0x01
	twi_write(&TWIE,helper,LCD_I2C_ADDR,0x00,1,0,0,1);  // Write data to I2C
     cb6:	20 e0       	ldi	r18, 0x00	; 0
     cb8:	30 e0       	ldi	r19, 0x00	; 0
     cba:	48 e7       	ldi	r20, 0x78	; 120
     cbc:	be 01       	movw	r22, r28
     cbe:	6f 5f       	subi	r22, 0xFF	; 255
     cc0:	7f 4f       	sbci	r23, 0xFF	; 255
     cc2:	80 ea       	ldi	r24, 0xA0	; 160
     cc4:	94 e0       	ldi	r25, 0x04	; 4
     cc6:	0e 94 9c 33 	call	0x6738	; 0x6738 <_Z9twi_writeP10TWI_structPhhjhbbb>
	helper[0] = 0xB0 | (y & 0x0F); //page
     cca:	8f 2d       	mov	r24, r15
     ccc:	8f 70       	andi	r24, 0x0F	; 15
     cce:	80 6b       	ori	r24, 0xB0	; 176
     cd0:	89 83       	std	Y+1, r24	; 0x01
	twi_write(&TWIE,helper,LCD_I2C_ADDR,0x00,1,0,0,1);  // Write data to I2C
     cd2:	20 e0       	ldi	r18, 0x00	; 0
     cd4:	30 e0       	ldi	r19, 0x00	; 0
     cd6:	48 e7       	ldi	r20, 0x78	; 120
     cd8:	be 01       	movw	r22, r28
     cda:	6f 5f       	subi	r22, 0xFF	; 255
     cdc:	7f 4f       	sbci	r23, 0xFF	; 255
     cde:	80 ea       	ldi	r24, 0xA0	; 160
     ce0:	94 e0       	ldi	r25, 0x04	; 4
     ce2:	0e 94 9c 33 	call	0x6738	; 0x6738 <_Z9twi_writeP10TWI_structPhhjhbbb>
	helper[3] = 0x7f;		// set column end to 127
	//twi_write(&TWIE,helper,LCD_I2C_ADDR,0x00,3,0,0,1);  // Write data to I2C
	}
	
}
     ce6:	24 96       	adiw	r28, 0x04	; 4
     ce8:	cd bf       	out	0x3d, r28	; 61
     cea:	de bf       	out	0x3e, r29	; 62
     cec:	df 91       	pop	r29
     cee:	cf 91       	pop	r28
     cf0:	1f 91       	pop	r17
     cf2:	0f 91       	pop	r16
     cf4:	ff 90       	pop	r15
     cf6:	ef 90       	pop	r14
     cf8:	cf 90       	pop	r12
     cfa:	af 90       	pop	r10
     cfc:	08 95       	ret

00000cfe <_Z8lcd_homeb>:
//0x8D, 0x14,		// Set DC-DC enable
//
//};

void lcd_home(bool SSH1306){
	lcd_gotoxy(0, 0,SSH1306);
     cfe:	48 2f       	mov	r20, r24
     d00:	60 e0       	ldi	r22, 0x00	; 0
     d02:	80 e0       	ldi	r24, 0x00	; 0
     d04:	0e 94 0f 06 	call	0xc1e	; 0xc1e <_Z10lcd_gotoxyhhb>
     d08:	08 95       	ret

00000d0a <_Z10lcd_clrscrb>:
	helper[3] = 0x7f;		// set column end to 127
	//twi_write(&TWIE,helper,LCD_I2C_ADDR,0x00,3,0,0,1);  // Write data to I2C
	}
	
}
void lcd_clrscr(bool SSH1306){
     d0a:	af 92       	push	r10
     d0c:	cf 92       	push	r12
     d0e:	df 92       	push	r13
     d10:	ef 92       	push	r14
     d12:	ff 92       	push	r15
     d14:	0f 93       	push	r16
     d16:	1f 93       	push	r17
     d18:	cf 93       	push	r28
     d1a:	df 93       	push	r29
     d1c:	00 d0       	rcall	.+0      	; 0xd1e <_Z10lcd_clrscrb+0x14>
     d1e:	cd b7       	in	r28, 0x3d	; 61
     d20:	de b7       	in	r29, 0x3e	; 62
     d22:	d8 2e       	mov	r13, r24
    lcd_home(SSH1306);
     d24:	0e 94 7f 06 	call	0xcfe	; 0xcfe <_Z8lcd_homeb>
	uint8_t helper = 0x00 ;
     d28:	19 82       	std	Y+1, r1	; 0x01
	if(SSH1306)
     d2a:	dd 20       	and	r13, r13
     d2c:	a1 f0       	breq	.+40     	; 0xd56 <_Z10lcd_clrscrb+0x4c>
     d2e:	18 e0       	ldi	r17, 0x08	; 8
	{
		for(uint8_t i=0;i<8;i++)
		twi_write(&TWIE,&helper,LCD_I2C_ADDR,0x40,128,1,0,1);
     d30:	aa 24       	eor	r10, r10
     d32:	a3 94       	inc	r10
     d34:	c1 2c       	mov	r12, r1
     d36:	ee 24       	eor	r14, r14
     d38:	e3 94       	inc	r14
     d3a:	00 e8       	ldi	r16, 0x80	; 128
     d3c:	20 e4       	ldi	r18, 0x40	; 64
     d3e:	30 e0       	ldi	r19, 0x00	; 0
     d40:	48 e7       	ldi	r20, 0x78	; 120
     d42:	be 01       	movw	r22, r28
     d44:	6f 5f       	subi	r22, 0xFF	; 255
     d46:	7f 4f       	sbci	r23, 0xFF	; 255
     d48:	80 ea       	ldi	r24, 0xA0	; 160
     d4a:	94 e0       	ldi	r25, 0x04	; 4
     d4c:	0e 94 9c 33 	call	0x6738	; 0x6738 <_Z9twi_writeP10TWI_structPhhjhbbb>
     d50:	11 50       	subi	r17, 0x01	; 1
void lcd_clrscr(bool SSH1306){
    lcd_home(SSH1306);
	uint8_t helper = 0x00 ;
	if(SSH1306)
	{
		for(uint8_t i=0;i<8;i++)
     d52:	71 f7       	brne	.-36     	; 0xd30 <_Z10lcd_clrscrb+0x26>
     d54:	23 c0       	rjmp	.+70     	; 0xd9c <_Z10lcd_clrscrb+0x92>
     d56:	f1 2c       	mov	r15, r1
	{
		for (uint8_t page = 0; page < 8; page++) {

			// Set the current RAM pointer to the start of the currently
			// selected page.
			sendCommand(0x00); // Set column number 0 (low nibble)
     d58:	80 e0       	ldi	r24, 0x00	; 0
     d5a:	0e 94 ee 05 	call	0xbdc	; 0xbdc <_Z11sendCommandh>
			sendCommand(0x10); // Set column number 0 (high nibble)
     d5e:	80 e1       	ldi	r24, 0x10	; 16
     d60:	0e 94 ee 05 	call	0xbdc	; 0xbdc <_Z11sendCommandh>
			sendCommand(0xB0 | (page & 0x0F)); // Set page number
     d64:	8f 2d       	mov	r24, r15
     d66:	8f 70       	andi	r24, 0x0F	; 15
     d68:	80 6b       	ori	r24, 0xB0	; 176
     d6a:	0e 94 ee 05 	call	0xbdc	; 0xbdc <_Z11sendCommandh>
			// Without knowing the rest of your program I don't know the right
			// data sending routines to use, so I made them up. Change it to
			// do it how your program expects.  Maybe with your SendArray
			// function.

			uint8_t helper = 0x00 ;
     d6e:	1a 82       	std	Y+2, r1	; 0x02
     d70:	14 e8       	ldi	r17, 0x84	; 132
			for (uint8_t col = 0; col < 132; col++) {
				twi_write(&TWIE,&helper,LCD_I2C_ADDR,DATA,1,0,0,1);
     d72:	aa 24       	eor	r10, r10
     d74:	a3 94       	inc	r10
     d76:	c1 2c       	mov	r12, r1
     d78:	e1 2c       	mov	r14, r1
     d7a:	01 e0       	ldi	r16, 0x01	; 1
     d7c:	20 e4       	ldi	r18, 0x40	; 64
     d7e:	30 e0       	ldi	r19, 0x00	; 0
     d80:	48 e7       	ldi	r20, 0x78	; 120
     d82:	be 01       	movw	r22, r28
     d84:	6e 5f       	subi	r22, 0xFE	; 254
     d86:	7f 4f       	sbci	r23, 0xFF	; 255
     d88:	80 ea       	ldi	r24, 0xA0	; 160
     d8a:	94 e0       	ldi	r25, 0x04	; 4
     d8c:	0e 94 9c 33 	call	0x6738	; 0x6738 <_Z9twi_writeP10TWI_structPhhjhbbb>
     d90:	11 50       	subi	r17, 0x01	; 1
			// data sending routines to use, so I made them up. Change it to
			// do it how your program expects.  Maybe with your SendArray
			// function.

			uint8_t helper = 0x00 ;
			for (uint8_t col = 0; col < 132; col++) {
     d92:	79 f7       	brne	.-34     	; 0xd72 <_Z10lcd_clrscrb+0x68>
		for(uint8_t i=0;i<8;i++)
		twi_write(&TWIE,&helper,LCD_I2C_ADDR,0x40,128,1,0,1);
	}
	else
	{
		for (uint8_t page = 0; page < 8; page++) {
     d94:	f3 94       	inc	r15
     d96:	88 e0       	ldi	r24, 0x08	; 8
     d98:	f8 12       	cpse	r15, r24
     d9a:	de cf       	rjmp	.-68     	; 0xd58 <_Z10lcd_clrscrb+0x4e>
				twi_write(&TWIE,&helper,LCD_I2C_ADDR,DATA,1,0,0,1);
			}
		}
		
	}
	lcd_home(SSH1306);
     d9c:	8d 2d       	mov	r24, r13
     d9e:	0e 94 7f 06 	call	0xcfe	; 0xcfe <_Z8lcd_homeb>
}
     da2:	0f 90       	pop	r0
     da4:	0f 90       	pop	r0
     da6:	df 91       	pop	r29
     da8:	cf 91       	pop	r28
     daa:	1f 91       	pop	r17
     dac:	0f 91       	pop	r16
     dae:	ff 90       	pop	r15
     db0:	ef 90       	pop	r14
     db2:	df 90       	pop	r13
     db4:	cf 90       	pop	r12
     db6:	af 90       	pop	r10
     db8:	08 95       	ret

00000dba <_Z15lcd_init_SH1106h>:
{
	twi_write(&TWIE,&data,LCD_I2C_ADDR,COMMAND,1,0,0,1);
}

void lcd_init_SH1106(uint8_t dispAttr){
	 sendCommand(0xAE);    /*display off*/
     dba:	8e ea       	ldi	r24, 0xAE	; 174
     dbc:	0e 94 ee 05 	call	0xbdc	; 0xbdc <_Z11sendCommandh>

	 sendCommand(0x02);    /*set lower column address*/
     dc0:	82 e0       	ldi	r24, 0x02	; 2
     dc2:	0e 94 ee 05 	call	0xbdc	; 0xbdc <_Z11sendCommandh>
	 sendCommand(0x10);    /*set higher column address*/
     dc6:	80 e1       	ldi	r24, 0x10	; 16
     dc8:	0e 94 ee 05 	call	0xbdc	; 0xbdc <_Z11sendCommandh>
	 sendCommand(0x40);//0x40);    /*set display start line*/
     dcc:	80 e4       	ldi	r24, 0x40	; 64
     dce:	0e 94 ee 05 	call	0xbdc	; 0xbdc <_Z11sendCommandh>
	 sendCommand(0xB0);    /*set page address*/
     dd2:	80 eb       	ldi	r24, 0xB0	; 176
     dd4:	0e 94 ee 05 	call	0xbdc	; 0xbdc <_Z11sendCommandh>
	 sendCommand(0x81);    /*contract control*/
     dd8:	81 e8       	ldi	r24, 0x81	; 129
     dda:	0e 94 ee 05 	call	0xbdc	; 0xbdc <_Z11sendCommandh>
	 sendCommand(0x80);//contrast);    /*128*/
     dde:	80 e8       	ldi	r24, 0x80	; 128
     de0:	0e 94 ee 05 	call	0xbdc	; 0xbdc <_Z11sendCommandh>
	 sendCommand(0xA1);    /*set segment remap*/
     de4:	81 ea       	ldi	r24, 0xA1	; 161
     de6:	0e 94 ee 05 	call	0xbdc	; 0xbdc <_Z11sendCommandh>
	 sendCommand(0xA6);//invertSetting);    /*normal / reverse*/
     dea:	86 ea       	ldi	r24, 0xA6	; 166
     dec:	0e 94 ee 05 	call	0xbdc	; 0xbdc <_Z11sendCommandh>
	 sendCommand(0xA8);    /*multiplex ratio*/
     df0:	88 ea       	ldi	r24, 0xA8	; 168
     df2:	0e 94 ee 05 	call	0xbdc	; 0xbdc <_Z11sendCommandh>
	 sendCommand(0x3F);    /*duty = 1/32*/
     df6:	8f e3       	ldi	r24, 0x3F	; 63
     df8:	0e 94 ee 05 	call	0xbdc	; 0xbdc <_Z11sendCommandh>
	 sendCommand(0xAD);    /*set charge pump enable*/
     dfc:	8d ea       	ldi	r24, 0xAD	; 173
     dfe:	0e 94 ee 05 	call	0xbdc	; 0xbdc <_Z11sendCommandh>
	 sendCommand(0x8B);     /*external VCC   */
     e02:	8b e8       	ldi	r24, 0x8B	; 139
     e04:	0e 94 ee 05 	call	0xbdc	; 0xbdc <_Z11sendCommandh>
	 sendCommand(0x30);    // | Vpp);    /*0X30---0X33  set VPP   9V liangdu!!!!*/
     e08:	80 e3       	ldi	r24, 0x30	; 48
     e0a:	0e 94 ee 05 	call	0xbdc	; 0xbdc <_Z11sendCommandh>
	 sendCommand(0xC8);    /*Com scan direction*/
     e0e:	88 ec       	ldi	r24, 0xC8	; 200
     e10:	0e 94 ee 05 	call	0xbdc	; 0xbdc <_Z11sendCommandh>
	 sendCommand(0xD3);    /*set display offset*/
     e14:	83 ed       	ldi	r24, 0xD3	; 211
     e16:	0e 94 ee 05 	call	0xbdc	; 0xbdc <_Z11sendCommandh>
	 sendCommand(0x00);   /*   0x20  */
     e1a:	80 e0       	ldi	r24, 0x00	; 0
     e1c:	0e 94 ee 05 	call	0xbdc	; 0xbdc <_Z11sendCommandh>
	 sendCommand(0xD5);    /*set osc division*/
     e20:	85 ed       	ldi	r24, 0xD5	; 213
     e22:	0e 94 ee 05 	call	0xbdc	; 0xbdc <_Z11sendCommandh>
	 sendCommand(0x80);
     e26:	80 e8       	ldi	r24, 0x80	; 128
     e28:	0e 94 ee 05 	call	0xbdc	; 0xbdc <_Z11sendCommandh>
	 sendCommand(0xD9);    /*set pre-charge period*/
     e2c:	89 ed       	ldi	r24, 0xD9	; 217
     e2e:	0e 94 ee 05 	call	0xbdc	; 0xbdc <_Z11sendCommandh>
	 sendCommand(0x1F);    /*0x22*/
     e32:	8f e1       	ldi	r24, 0x1F	; 31
     e34:	0e 94 ee 05 	call	0xbdc	; 0xbdc <_Z11sendCommandh>
	 sendCommand(0xDA);    /*set COM pins*/
     e38:	8a ed       	ldi	r24, 0xDA	; 218
     e3a:	0e 94 ee 05 	call	0xbdc	; 0xbdc <_Z11sendCommandh>
	 sendCommand(0x12);
     e3e:	82 e1       	ldi	r24, 0x12	; 18
     e40:	0e 94 ee 05 	call	0xbdc	; 0xbdc <_Z11sendCommandh>
	 sendCommand(0xDB);    /*set vcomh*/
     e44:	8b ed       	ldi	r24, 0xDB	; 219
     e46:	0e 94 ee 05 	call	0xbdc	; 0xbdc <_Z11sendCommandh>
	 sendCommand(0x40);
     e4a:	80 e4       	ldi	r24, 0x40	; 64
     e4c:	0e 94 ee 05 	call	0xbdc	; 0xbdc <_Z11sendCommandh>
	 sendCommand(0xAF);    /*display ON*/
     e50:	8f ea       	ldi	r24, 0xAF	; 175
     e52:	0e 94 ee 05 	call	0xbdc	; 0xbdc <_Z11sendCommandh>
	 lcd_clrscr(false);
     e56:	80 e0       	ldi	r24, 0x00	; 0
     e58:	0e 94 85 06 	call	0xd0a	; 0xd0a <_Z10lcd_clrscrb>
     e5c:	08 95       	ret

00000e5e <_Z8lcd_inith>:
	
}



void lcd_init(uint8_t dispAttr){
     e5e:	af 92       	push	r10
     e60:	cf 92       	push	r12
     e62:	ef 92       	push	r14
     e64:	0f 93       	push	r16
     e66:	1f 93       	push	r17
     e68:	cf 93       	push	r28
     e6a:	df 93       	push	r29
     e6c:	cd b7       	in	r28, 0x3d	; 61
     e6e:	de b7       	in	r29, 0x3e	; 62
     e70:	66 97       	sbiw	r28, 0x16	; 22
     e72:	cd bf       	out	0x3d, r28	; 61
     e74:	de bf       	out	0x3e, r29	; 62
     e76:	18 2f       	mov	r17, r24
	uint8_t init1[] = {
		SSD1306_DISPLAYOFF,                   // 0xAE
		SSD1306_SETDISPLAYCLOCKDIV,           // 0xD5
		0x80,                                 // the suggested ratio 0x80
		SSD1306_SETMULTIPLEX }; // 0xA8
     e78:	8e ea       	ldi	r24, 0xAE	; 174
     e7a:	89 83       	std	Y+1, r24	; 0x01
     e7c:	85 ed       	ldi	r24, 0xD5	; 213
     e7e:	8a 83       	std	Y+2, r24	; 0x02
     e80:	80 e8       	ldi	r24, 0x80	; 128
     e82:	8b 83       	std	Y+3, r24	; 0x03
     e84:	88 ea       	ldi	r24, 0xA8	; 168
     e86:	8c 83       	std	Y+4, r24	; 0x04
	twi_write(&TWIE,init1,LCD_I2C_ADDR,COMMAND,4,0,0,1);
     e88:	aa 24       	eor	r10, r10
     e8a:	a3 94       	inc	r10
     e8c:	c1 2c       	mov	r12, r1
     e8e:	e1 2c       	mov	r14, r1
     e90:	04 e0       	ldi	r16, 0x04	; 4
     e92:	20 e0       	ldi	r18, 0x00	; 0
     e94:	30 e0       	ldi	r19, 0x00	; 0
     e96:	48 e7       	ldi	r20, 0x78	; 120
     e98:	be 01       	movw	r22, r28
     e9a:	6f 5f       	subi	r22, 0xFF	; 255
     e9c:	7f 4f       	sbci	r23, 0xFF	; 255
     e9e:	80 ea       	ldi	r24, 0xA0	; 160
     ea0:	94 e0       	ldi	r25, 0x04	; 4
     ea2:	0e 94 9c 33 	call	0x6738	; 0x6738 <_Z9twi_writeP10TWI_structPhhjhbbb>
	uint8_t helper = SSD1306_LCDHEIGHT - 1;
     ea6:	8f e3       	ldi	r24, 0x3F	; 63
     ea8:	8d 83       	std	Y+5, r24	; 0x05
	twi_write(&TWIE,&helper,LCD_I2C_ADDR,COMMAND,1,0,0,1);
     eaa:	01 e0       	ldi	r16, 0x01	; 1
     eac:	20 e0       	ldi	r18, 0x00	; 0
     eae:	30 e0       	ldi	r19, 0x00	; 0
     eb0:	48 e7       	ldi	r20, 0x78	; 120
     eb2:	be 01       	movw	r22, r28
     eb4:	6b 5f       	subi	r22, 0xFB	; 251
     eb6:	7f 4f       	sbci	r23, 0xFF	; 255
     eb8:	80 ea       	ldi	r24, 0xA0	; 160
     eba:	94 e0       	ldi	r25, 0x04	; 4
     ebc:	0e 94 9c 33 	call	0x6738	; 0x6738 <_Z9twi_writeP10TWI_structPhhjhbbb>
	uint8_t init2[] = {
		SSD1306_SETDISPLAYOFFSET,             // 0xD3
		0x0,                                  // no offset
		SSD1306_SETSTARTLINE | 0x0,           // line #0
		SSD1306_CHARGEPUMP }; // 0x8D
     ec0:	83 ed       	ldi	r24, 0xD3	; 211
     ec2:	8e 83       	std	Y+6, r24	; 0x06
     ec4:	1f 82       	std	Y+7, r1	; 0x07
     ec6:	80 e4       	ldi	r24, 0x40	; 64
     ec8:	88 87       	std	Y+8, r24	; 0x08
     eca:	8d e8       	ldi	r24, 0x8D	; 141
     ecc:	89 87       	std	Y+9, r24	; 0x09
	twi_write(&TWIE,init2,LCD_I2C_ADDR,COMMAND,4,0,0,1);
     ece:	04 e0       	ldi	r16, 0x04	; 4
     ed0:	20 e0       	ldi	r18, 0x00	; 0
     ed2:	30 e0       	ldi	r19, 0x00	; 0
     ed4:	48 e7       	ldi	r20, 0x78	; 120
     ed6:	be 01       	movw	r22, r28
     ed8:	6a 5f       	subi	r22, 0xFA	; 250
     eda:	7f 4f       	sbci	r23, 0xFF	; 255
     edc:	80 ea       	ldi	r24, 0xA0	; 160
     ede:	94 e0       	ldi	r25, 0x04	; 4
     ee0:	0e 94 9c 33 	call	0x6738	; 0x6738 <_Z9twi_writeP10TWI_structPhhjhbbb>
	helper = (dispAttr == SSD1306_EXTERNALVCC) ? 0x10 : 0x14;
     ee4:	11 30       	cpi	r17, 0x01	; 1
     ee6:	49 f5       	brne	.+82     	; 0xf3a <_Z8lcd_inith+0xdc>
     ee8:	77 c0       	rjmp	.+238    	; 0xfd8 <_Z8lcd_inith+0x17a>
	twi_write(&TWIE,init4b,LCD_I2C_ADDR,COMMAND,3,0,0,1);
	helper = (dispAttr == SSD1306_EXTERNALVCC) ? 0x9F : 0xCF;
	twi_write(&TWIE,&helper,LCD_I2C_ADDR,COMMAND,1,0,0,1);
	helper = SSD1306_SETPRECHARGE; // 0xd9
	twi_write(&TWIE,&helper,LCD_I2C_ADDR,COMMAND,1,0,0,1);
	helper = (dispAttr == SSD1306_EXTERNALVCC) ? 0x22 : 0xF1;
     eea:	8d 83       	std	Y+5, r24	; 0x05
	twi_write(&TWIE,&helper,LCD_I2C_ADDR,COMMAND,1,0,0,1);
     eec:	aa 24       	eor	r10, r10
     eee:	a3 94       	inc	r10
     ef0:	c1 2c       	mov	r12, r1
     ef2:	e1 2c       	mov	r14, r1
     ef4:	01 e0       	ldi	r16, 0x01	; 1
     ef6:	20 e0       	ldi	r18, 0x00	; 0
     ef8:	30 e0       	ldi	r19, 0x00	; 0
     efa:	48 e7       	ldi	r20, 0x78	; 120
     efc:	be 01       	movw	r22, r28
     efe:	6b 5f       	subi	r22, 0xFB	; 251
     f00:	7f 4f       	sbci	r23, 0xFF	; 255
     f02:	80 ea       	ldi	r24, 0xA0	; 160
     f04:	94 e0       	ldi	r25, 0x04	; 4
     f06:	0e 94 9c 33 	call	0x6738	; 0x6738 <_Z9twi_writeP10TWI_structPhhjhbbb>
		SSD1306_SETVCOMDETECT,               // 0xDB
		0x40,
		SSD1306_DISPLAYALLON_RESUME,         // 0xA4
		SSD1306_NORMALDISPLAY,               // 0xA6
		SSD1306_DEACTIVATE_SCROLL,
		SSD1306_DISPLAYON }; // Main screen turn on
     f0a:	86 e0       	ldi	r24, 0x06	; 6
     f0c:	ed e4       	ldi	r30, 0x4D	; 77
     f0e:	f1 e2       	ldi	r31, 0x21	; 33
     f10:	de 01       	movw	r26, r28
     f12:	51 96       	adiw	r26, 0x11	; 17
     f14:	01 90       	ld	r0, Z+
     f16:	0d 92       	st	X+, r0
     f18:	8a 95       	dec	r24
     f1a:	e1 f7       	brne	.-8      	; 0xf14 <_Z8lcd_inith+0xb6>
	twi_write(&TWIE,init5,LCD_I2C_ADDR,COMMAND,6,0,0,1);
     f1c:	06 e0       	ldi	r16, 0x06	; 6
     f1e:	20 e0       	ldi	r18, 0x00	; 0
     f20:	30 e0       	ldi	r19, 0x00	; 0
     f22:	48 e7       	ldi	r20, 0x78	; 120
     f24:	be 01       	movw	r22, r28
     f26:	6f 5e       	subi	r22, 0xEF	; 239
     f28:	7f 4f       	sbci	r23, 0xFF	; 255
     f2a:	80 ea       	ldi	r24, 0xA0	; 160
     f2c:	94 e0       	ldi	r25, 0x04	; 4
     f2e:	0e 94 9c 33 	call	0x6738	; 0x6738 <_Z9twi_writeP10TWI_structPhhjhbbb>
	lcd_clrscr(true);
     f32:	81 e0       	ldi	r24, 0x01	; 1
     f34:	0e 94 85 06 	call	0xd0a	; 0xd0a <_Z10lcd_clrscrb>
}
     f38:	9e c0       	rjmp	.+316    	; 0x1076 <_Z8lcd_inith+0x218>
		SSD1306_SETDISPLAYOFFSET,             // 0xD3
		0x0,                                  // no offset
		SSD1306_SETSTARTLINE | 0x0,           // line #0
		SSD1306_CHARGEPUMP }; // 0x8D
	twi_write(&TWIE,init2,LCD_I2C_ADDR,COMMAND,4,0,0,1);
	helper = (dispAttr == SSD1306_EXTERNALVCC) ? 0x10 : 0x14;
     f3a:	84 e1       	ldi	r24, 0x14	; 20
     f3c:	8d 83       	std	Y+5, r24	; 0x05
	twi_write(&TWIE,&helper,LCD_I2C_ADDR,COMMAND,1,0,0,1);
     f3e:	aa 24       	eor	r10, r10
     f40:	a3 94       	inc	r10
     f42:	c1 2c       	mov	r12, r1
     f44:	e1 2c       	mov	r14, r1
     f46:	01 e0       	ldi	r16, 0x01	; 1
     f48:	20 e0       	ldi	r18, 0x00	; 0
     f4a:	30 e0       	ldi	r19, 0x00	; 0
     f4c:	48 e7       	ldi	r20, 0x78	; 120
     f4e:	be 01       	movw	r22, r28
     f50:	6b 5f       	subi	r22, 0xFB	; 251
     f52:	7f 4f       	sbci	r23, 0xFF	; 255
     f54:	80 ea       	ldi	r24, 0xA0	; 160
     f56:	94 e0       	ldi	r25, 0x04	; 4
     f58:	0e 94 9c 33 	call	0x6738	; 0x6738 <_Z9twi_writeP10TWI_structPhhjhbbb>
	uint8_t init3[] = {
		SSD1306_MEMORYMODE,                   // 0x20
		0x00,                                 // 0x0 act like ks0108
		SSD1306_SEGREMAP | 0x1,
		SSD1306_COMSCANDEC };
     f5c:	80 e2       	ldi	r24, 0x20	; 32
     f5e:	8a 87       	std	Y+10, r24	; 0x0a
     f60:	1b 86       	std	Y+11, r1	; 0x0b
     f62:	81 ea       	ldi	r24, 0xA1	; 161
     f64:	8c 87       	std	Y+12, r24	; 0x0c
     f66:	88 ec       	ldi	r24, 0xC8	; 200
     f68:	8d 87       	std	Y+13, r24	; 0x0d
	twi_write(&TWIE,init3,LCD_I2C_ADDR,COMMAND,4,0,0,1);
     f6a:	04 e0       	ldi	r16, 0x04	; 4
     f6c:	20 e0       	ldi	r18, 0x00	; 0
     f6e:	30 e0       	ldi	r19, 0x00	; 0
     f70:	48 e7       	ldi	r20, 0x78	; 120
     f72:	be 01       	movw	r22, r28
     f74:	66 5f       	subi	r22, 0xF6	; 246
     f76:	7f 4f       	sbci	r23, 0xFF	; 255
     f78:	80 ea       	ldi	r24, 0xA0	; 160
     f7a:	94 e0       	ldi	r25, 0x04	; 4
     f7c:	0e 94 9c 33 	call	0x6738	; 0x6738 <_Z9twi_writeP10TWI_structPhhjhbbb>
	uint8_t init4b[] = {
		SSD1306_SETCOMPINS,                 // 0xDA
		0x12,
	SSD1306_SETCONTRAST };              // 0x81
     f80:	8a ed       	ldi	r24, 0xDA	; 218
     f82:	8e 87       	std	Y+14, r24	; 0x0e
     f84:	82 e1       	ldi	r24, 0x12	; 18
     f86:	8f 87       	std	Y+15, r24	; 0x0f
     f88:	81 e8       	ldi	r24, 0x81	; 129
     f8a:	88 8b       	std	Y+16, r24	; 0x10
	twi_write(&TWIE,init4b,LCD_I2C_ADDR,COMMAND,3,0,0,1);
     f8c:	03 e0       	ldi	r16, 0x03	; 3
     f8e:	20 e0       	ldi	r18, 0x00	; 0
     f90:	30 e0       	ldi	r19, 0x00	; 0
     f92:	48 e7       	ldi	r20, 0x78	; 120
     f94:	be 01       	movw	r22, r28
     f96:	62 5f       	subi	r22, 0xF2	; 242
     f98:	7f 4f       	sbci	r23, 0xFF	; 255
     f9a:	80 ea       	ldi	r24, 0xA0	; 160
     f9c:	94 e0       	ldi	r25, 0x04	; 4
     f9e:	0e 94 9c 33 	call	0x6738	; 0x6738 <_Z9twi_writeP10TWI_structPhhjhbbb>
	helper = (dispAttr == SSD1306_EXTERNALVCC) ? 0x9F : 0xCF;
     fa2:	8f ec       	ldi	r24, 0xCF	; 207
     fa4:	8d 83       	std	Y+5, r24	; 0x05
	twi_write(&TWIE,&helper,LCD_I2C_ADDR,COMMAND,1,0,0,1);
     fa6:	01 e0       	ldi	r16, 0x01	; 1
     fa8:	20 e0       	ldi	r18, 0x00	; 0
     faa:	30 e0       	ldi	r19, 0x00	; 0
     fac:	48 e7       	ldi	r20, 0x78	; 120
     fae:	be 01       	movw	r22, r28
     fb0:	6b 5f       	subi	r22, 0xFB	; 251
     fb2:	7f 4f       	sbci	r23, 0xFF	; 255
     fb4:	80 ea       	ldi	r24, 0xA0	; 160
     fb6:	94 e0       	ldi	r25, 0x04	; 4
     fb8:	0e 94 9c 33 	call	0x6738	; 0x6738 <_Z9twi_writeP10TWI_structPhhjhbbb>
	helper = SSD1306_SETPRECHARGE; // 0xd9
     fbc:	89 ed       	ldi	r24, 0xD9	; 217
     fbe:	8d 83       	std	Y+5, r24	; 0x05
	twi_write(&TWIE,&helper,LCD_I2C_ADDR,COMMAND,1,0,0,1);
     fc0:	20 e0       	ldi	r18, 0x00	; 0
     fc2:	30 e0       	ldi	r19, 0x00	; 0
     fc4:	48 e7       	ldi	r20, 0x78	; 120
     fc6:	be 01       	movw	r22, r28
     fc8:	6b 5f       	subi	r22, 0xFB	; 251
     fca:	7f 4f       	sbci	r23, 0xFF	; 255
     fcc:	80 ea       	ldi	r24, 0xA0	; 160
     fce:	94 e0       	ldi	r25, 0x04	; 4
     fd0:	0e 94 9c 33 	call	0x6738	; 0x6738 <_Z9twi_writeP10TWI_structPhhjhbbb>
	helper = (dispAttr == SSD1306_EXTERNALVCC) ? 0x22 : 0xF1;
     fd4:	81 ef       	ldi	r24, 0xF1	; 241
     fd6:	89 cf       	rjmp	.-238    	; 0xeea <_Z8lcd_inith+0x8c>
		SSD1306_SETDISPLAYOFFSET,             // 0xD3
		0x0,                                  // no offset
		SSD1306_SETSTARTLINE | 0x0,           // line #0
		SSD1306_CHARGEPUMP }; // 0x8D
	twi_write(&TWIE,init2,LCD_I2C_ADDR,COMMAND,4,0,0,1);
	helper = (dispAttr == SSD1306_EXTERNALVCC) ? 0x10 : 0x14;
     fd8:	80 e1       	ldi	r24, 0x10	; 16
     fda:	8d 83       	std	Y+5, r24	; 0x05
	twi_write(&TWIE,&helper,LCD_I2C_ADDR,COMMAND,1,0,0,1);
     fdc:	aa 24       	eor	r10, r10
     fde:	a3 94       	inc	r10
     fe0:	c1 2c       	mov	r12, r1
     fe2:	e1 2c       	mov	r14, r1
     fe4:	01 e0       	ldi	r16, 0x01	; 1
     fe6:	20 e0       	ldi	r18, 0x00	; 0
     fe8:	30 e0       	ldi	r19, 0x00	; 0
     fea:	48 e7       	ldi	r20, 0x78	; 120
     fec:	be 01       	movw	r22, r28
     fee:	6b 5f       	subi	r22, 0xFB	; 251
     ff0:	7f 4f       	sbci	r23, 0xFF	; 255
     ff2:	80 ea       	ldi	r24, 0xA0	; 160
     ff4:	94 e0       	ldi	r25, 0x04	; 4
     ff6:	0e 94 9c 33 	call	0x6738	; 0x6738 <_Z9twi_writeP10TWI_structPhhjhbbb>
	uint8_t init3[] = {
		SSD1306_MEMORYMODE,                   // 0x20
		0x00,                                 // 0x0 act like ks0108
		SSD1306_SEGREMAP | 0x1,
		SSD1306_COMSCANDEC };
     ffa:	80 e2       	ldi	r24, 0x20	; 32
     ffc:	8a 87       	std	Y+10, r24	; 0x0a
     ffe:	1b 86       	std	Y+11, r1	; 0x0b
    1000:	81 ea       	ldi	r24, 0xA1	; 161
    1002:	8c 87       	std	Y+12, r24	; 0x0c
    1004:	88 ec       	ldi	r24, 0xC8	; 200
    1006:	8d 87       	std	Y+13, r24	; 0x0d
	twi_write(&TWIE,init3,LCD_I2C_ADDR,COMMAND,4,0,0,1);
    1008:	04 e0       	ldi	r16, 0x04	; 4
    100a:	20 e0       	ldi	r18, 0x00	; 0
    100c:	30 e0       	ldi	r19, 0x00	; 0
    100e:	48 e7       	ldi	r20, 0x78	; 120
    1010:	be 01       	movw	r22, r28
    1012:	66 5f       	subi	r22, 0xF6	; 246
    1014:	7f 4f       	sbci	r23, 0xFF	; 255
    1016:	80 ea       	ldi	r24, 0xA0	; 160
    1018:	94 e0       	ldi	r25, 0x04	; 4
    101a:	0e 94 9c 33 	call	0x6738	; 0x6738 <_Z9twi_writeP10TWI_structPhhjhbbb>
	uint8_t init4b[] = {
		SSD1306_SETCOMPINS,                 // 0xDA
		0x12,
	SSD1306_SETCONTRAST };              // 0x81
    101e:	8a ed       	ldi	r24, 0xDA	; 218
    1020:	8e 87       	std	Y+14, r24	; 0x0e
    1022:	82 e1       	ldi	r24, 0x12	; 18
    1024:	8f 87       	std	Y+15, r24	; 0x0f
    1026:	81 e8       	ldi	r24, 0x81	; 129
    1028:	88 8b       	std	Y+16, r24	; 0x10
	twi_write(&TWIE,init4b,LCD_I2C_ADDR,COMMAND,3,0,0,1);
    102a:	03 e0       	ldi	r16, 0x03	; 3
    102c:	20 e0       	ldi	r18, 0x00	; 0
    102e:	30 e0       	ldi	r19, 0x00	; 0
    1030:	48 e7       	ldi	r20, 0x78	; 120
    1032:	be 01       	movw	r22, r28
    1034:	62 5f       	subi	r22, 0xF2	; 242
    1036:	7f 4f       	sbci	r23, 0xFF	; 255
    1038:	80 ea       	ldi	r24, 0xA0	; 160
    103a:	94 e0       	ldi	r25, 0x04	; 4
    103c:	0e 94 9c 33 	call	0x6738	; 0x6738 <_Z9twi_writeP10TWI_structPhhjhbbb>
	helper = (dispAttr == SSD1306_EXTERNALVCC) ? 0x9F : 0xCF;
    1040:	8f e9       	ldi	r24, 0x9F	; 159
    1042:	8d 83       	std	Y+5, r24	; 0x05
	twi_write(&TWIE,&helper,LCD_I2C_ADDR,COMMAND,1,0,0,1);
    1044:	01 e0       	ldi	r16, 0x01	; 1
    1046:	20 e0       	ldi	r18, 0x00	; 0
    1048:	30 e0       	ldi	r19, 0x00	; 0
    104a:	48 e7       	ldi	r20, 0x78	; 120
    104c:	be 01       	movw	r22, r28
    104e:	6b 5f       	subi	r22, 0xFB	; 251
    1050:	7f 4f       	sbci	r23, 0xFF	; 255
    1052:	80 ea       	ldi	r24, 0xA0	; 160
    1054:	94 e0       	ldi	r25, 0x04	; 4
    1056:	0e 94 9c 33 	call	0x6738	; 0x6738 <_Z9twi_writeP10TWI_structPhhjhbbb>
	helper = SSD1306_SETPRECHARGE; // 0xd9
    105a:	89 ed       	ldi	r24, 0xD9	; 217
    105c:	8d 83       	std	Y+5, r24	; 0x05
	twi_write(&TWIE,&helper,LCD_I2C_ADDR,COMMAND,1,0,0,1);
    105e:	20 e0       	ldi	r18, 0x00	; 0
    1060:	30 e0       	ldi	r19, 0x00	; 0
    1062:	48 e7       	ldi	r20, 0x78	; 120
    1064:	be 01       	movw	r22, r28
    1066:	6b 5f       	subi	r22, 0xFB	; 251
    1068:	7f 4f       	sbci	r23, 0xFF	; 255
    106a:	80 ea       	ldi	r24, 0xA0	; 160
    106c:	94 e0       	ldi	r25, 0x04	; 4
    106e:	0e 94 9c 33 	call	0x6738	; 0x6738 <_Z9twi_writeP10TWI_structPhhjhbbb>
	helper = (dispAttr == SSD1306_EXTERNALVCC) ? 0x22 : 0xF1;
    1072:	82 e2       	ldi	r24, 0x22	; 34
    1074:	3a cf       	rjmp	.-396    	; 0xeea <_Z8lcd_inith+0x8c>
		SSD1306_NORMALDISPLAY,               // 0xA6
		SSD1306_DEACTIVATE_SCROLL,
		SSD1306_DISPLAYON }; // Main screen turn on
	twi_write(&TWIE,init5,LCD_I2C_ADDR,COMMAND,6,0,0,1);
	lcd_clrscr(true);
}
    1076:	66 96       	adiw	r28, 0x16	; 22
    1078:	cd bf       	out	0x3d, r28	; 61
    107a:	de bf       	out	0x3e, r29	; 62
    107c:	df 91       	pop	r29
    107e:	cf 91       	pop	r28
    1080:	1f 91       	pop	r17
    1082:	0f 91       	pop	r16
    1084:	ef 90       	pop	r14
    1086:	cf 90       	pop	r12
    1088:	af 90       	pop	r10
    108a:	08 95       	ret

0000108c <_Z8lcd_putcc>:
		}
		
	}
	lcd_home(SSH1306);
}
void lcd_putc(char c){
    108c:	af 92       	push	r10
    108e:	cf 92       	push	r12
    1090:	ef 92       	push	r14
    1092:	0f 93       	push	r16
	static uint8_t data[6];
	if((c > 127 || 
    1094:	e0 ee       	ldi	r30, 0xE0	; 224
    1096:	e8 0f       	add	r30, r24
    1098:	e0 36       	cpi	r30, 0x60	; 96
    109a:	08 f4       	brcc	.+2      	; 0x109e <_Z8lcd_putcc+0x12>
    109c:	0b c1       	rjmp	.+534    	; 0x12b4 <_Z8lcd_putcc+0x228>
	   c < 32) &&
	   (c != 188 && 
		c != 182 &&
    109e:	80 3b       	cpi	r24, 0xB0	; 176
    10a0:	09 f4       	brne	.+2      	; 0x10a4 <_Z8lcd_putcc+0x18>
    10a2:	08 c1       	rjmp	.+528    	; 0x12b4 <_Z8lcd_putcc+0x228>
		c != 176 &&
		c != 164 &&
    10a4:	8f 39       	cpi	r24, 0x9F	; 159
    10a6:	09 f4       	brne	.+2      	; 0x10aa <_Z8lcd_putcc+0x1e>
    10a8:	05 c1       	rjmp	.+522    	; 0x12b4 <_Z8lcd_putcc+0x228>
		c != 159 &&
    10aa:	8f 7d       	andi	r24, 0xDF	; 223
    10ac:	8c 39       	cpi	r24, 0x9C	; 156
    10ae:	09 f4       	brne	.+2      	; 0x10b2 <_Z8lcd_putcc+0x26>
    10b0:	01 c1       	rjmp	.+514    	; 0x12b4 <_Z8lcd_putcc+0x228>
		c != 156 &&
    10b2:	86 39       	cpi	r24, 0x96	; 150
    10b4:	09 f4       	brne	.+2      	; 0x10b8 <_Z8lcd_putcc+0x2c>
    10b6:	fe c0       	rjmp	.+508    	; 0x12b4 <_Z8lcd_putcc+0x228>
		c != 150 &&
    10b8:	84 38       	cpi	r24, 0x84	; 132
    10ba:	09 f0       	breq	.+2      	; 0x10be <_Z8lcd_putcc+0x32>
    10bc:	0d c1       	rjmp	.+538    	; 0x12d8 <_Z8lcd_putcc+0x24c>
    10be:	fa c0       	rjmp	.+500    	; 0x12b4 <_Z8lcd_putcc+0x228>
		c != 132 ) ) return;
    c -= 32;
	if( c < 127-32 ) {
		for (uint8_t i = 0; i < 6; i++)
		{
			data[i] = pgm_read_byte(&ssd1306oled_font6x8[c * 6 + i]);	// print font to ram, print 6 columns
    10c0:	84 91       	lpm	r24, Z
    10c2:	8d 93       	st	X+, r24
    10c4:	31 96       	adiw	r30, 0x01	; 1
		c != 156 &&
		c != 150 &&
		c != 132 ) ) return;
    c -= 32;
	if( c < 127-32 ) {
		for (uint8_t i = 0; i < 6; i++)
    10c6:	a2 17       	cp	r26, r18
    10c8:	b3 07       	cpc	r27, r19
    10ca:	d1 f7       	brne	.-12     	; 0x10c0 <_Z8lcd_putcc+0x34>
		{
			data[i] = pgm_read_byte(&ssd1306oled_font6x8[c * 6 + i]);	// print font to ram, print 6 columns
		}
		twi_write(&TWIE,data,LCD_I2C_ADDR,DATA,6,0,0,1);
    10cc:	aa 24       	eor	r10, r10
    10ce:	a3 94       	inc	r10
    10d0:	c1 2c       	mov	r12, r1
    10d2:	e1 2c       	mov	r14, r1
    10d4:	06 e0       	ldi	r16, 0x06	; 6
    10d6:	20 e4       	ldi	r18, 0x40	; 64
    10d8:	30 e0       	ldi	r19, 0x00	; 0
    10da:	48 e7       	ldi	r20, 0x78	; 120
    10dc:	6a e1       	ldi	r22, 0x1A	; 26
    10de:	73 e2       	ldi	r23, 0x23	; 35
    10e0:	80 ea       	ldi	r24, 0xA0	; 160
    10e2:	94 e0       	ldi	r25, 0x04	; 4
    10e4:	0e 94 9c 33 	call	0x6738	; 0x6738 <_Z9twi_writeP10TWI_structPhhjhbbb>
		return;
    10e8:	f7 c0       	rjmp	.+494    	; 0x12d8 <_Z8lcd_putcc+0x24c>
	} 
	switch (c) {
    10ea:	8e 2f       	mov	r24, r30
    10ec:	90 e0       	ldi	r25, 0x00	; 0
    10ee:	fc 01       	movw	r30, r24
    10f0:	e4 56       	subi	r30, 0x64	; 100
    10f2:	f1 09       	sbc	r31, r1
    10f4:	e9 33       	cpi	r30, 0x39	; 57
    10f6:	f1 05       	cpc	r31, r1
    10f8:	08 f0       	brcs	.+2      	; 0x10fc <_Z8lcd_putcc+0x70>
    10fa:	ee c0       	rjmp	.+476    	; 0x12d8 <_Z8lcd_putcc+0x24c>
    10fc:	e2 50       	subi	r30, 0x02	; 2
    10fe:	ff 4f       	sbci	r31, 0xFF	; 255
    1100:	0c 94 50 3b 	jmp	0x76a0	; 0x76a0 <__tablejump2__>
    1104:	ee e6       	ldi	r30, 0x6E	; 110
    1106:	f7 e0       	ldi	r31, 0x07	; 7
    1108:	aa e1       	ldi	r26, 0x1A	; 26
    110a:	b3 e2       	ldi	r27, 0x23	; 35
    110c:	20 e2       	ldi	r18, 0x20	; 32
    110e:	33 e2       	ldi	r19, 0x23	; 35
		case 156:
			c = 95; // ü
			for (uint8_t i = 0; i < 6; i++)
			{
				data[i] = pgm_read_byte(&ssd1306oled_font6x8[c * 6 + i]);	// print font to ram, print 6 columns
    1110:	84 91       	lpm	r24, Z
    1112:	8d 93       	st	X+, r24
    1114:	31 96       	adiw	r30, 0x01	; 1
		return;
	} 
	switch (c) {
		case 156:
			c = 95; // ü
			for (uint8_t i = 0; i < 6; i++)
    1116:	2a 17       	cp	r18, r26
    1118:	3b 07       	cpc	r19, r27
    111a:	d1 f7       	brne	.-12     	; 0x1110 <_Z8lcd_putcc+0x84>
			{
				data[i] = pgm_read_byte(&ssd1306oled_font6x8[c * 6 + i]);	// print font to ram, print 6 columns
			}
			twi_write(&TWIE,data,LCD_I2C_ADDR,DATA,6,0,0,1);
    111c:	aa 24       	eor	r10, r10
    111e:	a3 94       	inc	r10
    1120:	c1 2c       	mov	r12, r1
    1122:	e1 2c       	mov	r14, r1
    1124:	06 e0       	ldi	r16, 0x06	; 6
    1126:	20 e4       	ldi	r18, 0x40	; 64
    1128:	30 e0       	ldi	r19, 0x00	; 0
    112a:	48 e7       	ldi	r20, 0x78	; 120
    112c:	6a e1       	ldi	r22, 0x1A	; 26
    112e:	73 e2       	ldi	r23, 0x23	; 35
    1130:	80 ea       	ldi	r24, 0xA0	; 160
    1132:	94 e0       	ldi	r25, 0x04	; 4
    1134:	0e 94 9c 33 	call	0x6738	; 0x6738 <_Z9twi_writeP10TWI_structPhhjhbbb>
			break;
    1138:	cf c0       	rjmp	.+414    	; 0x12d8 <_Z8lcd_putcc+0x24c>
    113a:	e6 e8       	ldi	r30, 0x86	; 134
    113c:	f7 e0       	ldi	r31, 0x07	; 7
    113e:	aa e1       	ldi	r26, 0x1A	; 26
    1140:	b3 e2       	ldi	r27, 0x23	; 35
    1142:	20 e2       	ldi	r18, 0x20	; 32
    1144:	33 e2       	ldi	r19, 0x23	; 35
		case 150:
			c = 99; // ö
			for (uint8_t i = 0; i < 6; i++)
			{
				data[i] = pgm_read_byte(&ssd1306oled_font6x8[c * 6 + i]);	// print font to ram, print 6 columns
    1146:	84 91       	lpm	r24, Z
    1148:	8d 93       	st	X+, r24
    114a:	31 96       	adiw	r30, 0x01	; 1
			}
			twi_write(&TWIE,data,LCD_I2C_ADDR,DATA,6,0,0,1);
			break;
		case 150:
			c = 99; // ö
			for (uint8_t i = 0; i < 6; i++)
    114c:	2a 17       	cp	r18, r26
    114e:	3b 07       	cpc	r19, r27
    1150:	d1 f7       	brne	.-12     	; 0x1146 <_Z8lcd_putcc+0xba>
			{
				data[i] = pgm_read_byte(&ssd1306oled_font6x8[c * 6 + i]);	// print font to ram, print 6 columns
			}
			twi_write(&TWIE,data,LCD_I2C_ADDR,DATA,6,0,0,1);
    1152:	aa 24       	eor	r10, r10
    1154:	a3 94       	inc	r10
    1156:	c1 2c       	mov	r12, r1
    1158:	e1 2c       	mov	r14, r1
    115a:	06 e0       	ldi	r16, 0x06	; 6
    115c:	20 e4       	ldi	r18, 0x40	; 64
    115e:	30 e0       	ldi	r19, 0x00	; 0
    1160:	48 e7       	ldi	r20, 0x78	; 120
    1162:	6a e1       	ldi	r22, 0x1A	; 26
    1164:	73 e2       	ldi	r23, 0x23	; 35
    1166:	80 ea       	ldi	r24, 0xA0	; 160
    1168:	94 e0       	ldi	r25, 0x04	; 4
    116a:	0e 94 9c 33 	call	0x6738	; 0x6738 <_Z9twi_writeP10TWI_structPhhjhbbb>
			break;
    116e:	b4 c0       	rjmp	.+360    	; 0x12d8 <_Z8lcd_putcc+0x24c>
    1170:	e2 e9       	ldi	r30, 0x92	; 146
    1172:	f7 e0       	ldi	r31, 0x07	; 7
    1174:	aa e1       	ldi	r26, 0x1A	; 26
    1176:	b3 e2       	ldi	r27, 0x23	; 35
    1178:	20 e2       	ldi	r18, 0x20	; 32
    117a:	33 e2       	ldi	r19, 0x23	; 35
		case 144:
			c = 101; // °
			for (uint8_t i = 0; i < 6; i++)
			{
				data[i] = pgm_read_byte(&ssd1306oled_font6x8[c * 6 + i]);	// print font to ram, print 6 columns
    117c:	84 91       	lpm	r24, Z
    117e:	8d 93       	st	X+, r24
    1180:	31 96       	adiw	r30, 0x01	; 1
			}
			twi_write(&TWIE,data,LCD_I2C_ADDR,DATA,6,0,0,1);
			break;
		case 144:
			c = 101; // °
			for (uint8_t i = 0; i < 6; i++)
    1182:	a2 17       	cp	r26, r18
    1184:	b3 07       	cpc	r27, r19
    1186:	d1 f7       	brne	.-12     	; 0x117c <_Z8lcd_putcc+0xf0>
			{
				data[i] = pgm_read_byte(&ssd1306oled_font6x8[c * 6 + i]);	// print font to ram, print 6 columns
			}
			twi_write(&TWIE,data,LCD_I2C_ADDR,DATA,6,0,0,1);
    1188:	aa 24       	eor	r10, r10
    118a:	a3 94       	inc	r10
    118c:	c1 2c       	mov	r12, r1
    118e:	e1 2c       	mov	r14, r1
    1190:	06 e0       	ldi	r16, 0x06	; 6
    1192:	20 e4       	ldi	r18, 0x40	; 64
    1194:	30 e0       	ldi	r19, 0x00	; 0
    1196:	48 e7       	ldi	r20, 0x78	; 120
    1198:	6a e1       	ldi	r22, 0x1A	; 26
    119a:	73 e2       	ldi	r23, 0x23	; 35
    119c:	80 ea       	ldi	r24, 0xA0	; 160
    119e:	94 e0       	ldi	r25, 0x04	; 4
    11a0:	0e 94 9c 33 	call	0x6738	; 0x6738 <_Z9twi_writeP10TWI_structPhhjhbbb>
			break;
    11a4:	99 c0       	rjmp	.+306    	; 0x12d8 <_Z8lcd_putcc+0x24c>
    11a6:	ea e7       	ldi	r30, 0x7A	; 122
    11a8:	f7 e0       	ldi	r31, 0x07	; 7
    11aa:	aa e1       	ldi	r26, 0x1A	; 26
    11ac:	b3 e2       	ldi	r27, 0x23	; 35
    11ae:	20 e2       	ldi	r18, 0x20	; 32
    11b0:	33 e2       	ldi	r19, 0x23	; 35
		case 132:
			c = 97; // ä
			for (uint8_t i = 0; i < 6; i++)
			{
				data[i] = pgm_read_byte(&ssd1306oled_font6x8[c * 6 + i]);	// print font to ram, print 6 columns
    11b2:	84 91       	lpm	r24, Z
    11b4:	8d 93       	st	X+, r24
    11b6:	31 96       	adiw	r30, 0x01	; 1
			}
			twi_write(&TWIE,data,LCD_I2C_ADDR,DATA,6,0,0,1);
			break;
		case 132:
			c = 97; // ä
			for (uint8_t i = 0; i < 6; i++)
    11b8:	2a 17       	cp	r18, r26
    11ba:	3b 07       	cpc	r19, r27
    11bc:	d1 f7       	brne	.-12     	; 0x11b2 <_Z8lcd_putcc+0x126>
			{
				data[i] = pgm_read_byte(&ssd1306oled_font6x8[c * 6 + i]);	// print font to ram, print 6 columns
			}
			twi_write(&TWIE,data,LCD_I2C_ADDR,DATA,6,0,0,1);
    11be:	aa 24       	eor	r10, r10
    11c0:	a3 94       	inc	r10
    11c2:	c1 2c       	mov	r12, r1
    11c4:	e1 2c       	mov	r14, r1
    11c6:	06 e0       	ldi	r16, 0x06	; 6
    11c8:	20 e4       	ldi	r18, 0x40	; 64
    11ca:	30 e0       	ldi	r19, 0x00	; 0
    11cc:	48 e7       	ldi	r20, 0x78	; 120
    11ce:	6a e1       	ldi	r22, 0x1A	; 26
    11d0:	73 e2       	ldi	r23, 0x23	; 35
    11d2:	80 ea       	ldi	r24, 0xA0	; 160
    11d4:	94 e0       	ldi	r25, 0x04	; 4
    11d6:	0e 94 9c 33 	call	0x6738	; 0x6738 <_Z9twi_writeP10TWI_structPhhjhbbb>
			break;
    11da:	7e c0       	rjmp	.+252    	; 0x12d8 <_Z8lcd_putcc+0x24c>
    11dc:	e8 e9       	ldi	r30, 0x98	; 152
    11de:	f7 e0       	ldi	r31, 0x07	; 7
    11e0:	aa e1       	ldi	r26, 0x1A	; 26
    11e2:	b3 e2       	ldi	r27, 0x23	; 35
    11e4:	20 e2       	ldi	r18, 0x20	; 32
    11e6:	33 e2       	ldi	r19, 0x23	; 35
		case 127:
			c = 102; // ß
			for (uint8_t i = 0; i < 6; i++)
			{
				data[i] = pgm_read_byte(&ssd1306oled_font6x8[c * 6 + i]);	// print font to ram, print 6 columns
    11e8:	84 91       	lpm	r24, Z
    11ea:	8d 93       	st	X+, r24
    11ec:	31 96       	adiw	r30, 0x01	; 1
			}
			twi_write(&TWIE,data,LCD_I2C_ADDR,DATA,6,0,0,1);
			break;
		case 127:
			c = 102; // ß
			for (uint8_t i = 0; i < 6; i++)
    11ee:	a2 17       	cp	r26, r18
    11f0:	b3 07       	cpc	r27, r19
    11f2:	d1 f7       	brne	.-12     	; 0x11e8 <_Z8lcd_putcc+0x15c>
			{
				data[i] = pgm_read_byte(&ssd1306oled_font6x8[c * 6 + i]);	// print font to ram, print 6 columns
			}
			twi_write(&TWIE,data,LCD_I2C_ADDR,DATA,6,0,0,1);
    11f4:	aa 24       	eor	r10, r10
    11f6:	a3 94       	inc	r10
    11f8:	c1 2c       	mov	r12, r1
    11fa:	e1 2c       	mov	r14, r1
    11fc:	06 e0       	ldi	r16, 0x06	; 6
    11fe:	20 e4       	ldi	r18, 0x40	; 64
    1200:	30 e0       	ldi	r19, 0x00	; 0
    1202:	48 e7       	ldi	r20, 0x78	; 120
    1204:	6a e1       	ldi	r22, 0x1A	; 26
    1206:	73 e2       	ldi	r23, 0x23	; 35
    1208:	80 ea       	ldi	r24, 0xA0	; 160
    120a:	94 e0       	ldi	r25, 0x04	; 4
    120c:	0e 94 9c 33 	call	0x6738	; 0x6738 <_Z9twi_writeP10TWI_structPhhjhbbb>
			break;
    1210:	63 c0       	rjmp	.+198    	; 0x12d8 <_Z8lcd_putcc+0x24c>
    1212:	e4 e7       	ldi	r30, 0x74	; 116
    1214:	f7 e0       	ldi	r31, 0x07	; 7
    1216:	aa e1       	ldi	r26, 0x1A	; 26
    1218:	b3 e2       	ldi	r27, 0x23	; 35
    121a:	20 e2       	ldi	r18, 0x20	; 32
    121c:	33 e2       	ldi	r19, 0x23	; 35
		case 124:
			c = 96; // Ü
			for (uint8_t i = 0; i < 6; i++)
			{
				data[i] = pgm_read_byte(&ssd1306oled_font6x8[c * 6 + i]);	// print font to ram, print 6 columns
    121e:	84 91       	lpm	r24, Z
    1220:	8d 93       	st	X+, r24
    1222:	31 96       	adiw	r30, 0x01	; 1
			}
			twi_write(&TWIE,data,LCD_I2C_ADDR,DATA,6,0,0,1);
			break;
		case 124:
			c = 96; // Ü
			for (uint8_t i = 0; i < 6; i++)
    1224:	a2 17       	cp	r26, r18
    1226:	b3 07       	cpc	r27, r19
    1228:	d1 f7       	brne	.-12     	; 0x121e <_Z8lcd_putcc+0x192>
			{
				data[i] = pgm_read_byte(&ssd1306oled_font6x8[c * 6 + i]);	// print font to ram, print 6 columns
			}
			twi_write(&TWIE,data,LCD_I2C_ADDR,DATA,6,0,0,1);
    122a:	aa 24       	eor	r10, r10
    122c:	a3 94       	inc	r10
    122e:	c1 2c       	mov	r12, r1
    1230:	e1 2c       	mov	r14, r1
    1232:	06 e0       	ldi	r16, 0x06	; 6
    1234:	20 e4       	ldi	r18, 0x40	; 64
    1236:	30 e0       	ldi	r19, 0x00	; 0
    1238:	48 e7       	ldi	r20, 0x78	; 120
    123a:	6a e1       	ldi	r22, 0x1A	; 26
    123c:	73 e2       	ldi	r23, 0x23	; 35
    123e:	80 ea       	ldi	r24, 0xA0	; 160
    1240:	94 e0       	ldi	r25, 0x04	; 4
    1242:	0e 94 9c 33 	call	0x6738	; 0x6738 <_Z9twi_writeP10TWI_structPhhjhbbb>
			break;
    1246:	48 c0       	rjmp	.+144    	; 0x12d8 <_Z8lcd_putcc+0x24c>
    1248:	ec e8       	ldi	r30, 0x8C	; 140
    124a:	f7 e0       	ldi	r31, 0x07	; 7
    124c:	aa e1       	ldi	r26, 0x1A	; 26
    124e:	b3 e2       	ldi	r27, 0x23	; 35
    1250:	20 e2       	ldi	r18, 0x20	; 32
    1252:	33 e2       	ldi	r19, 0x23	; 35
		case 118:
			c = 100; // Ö
			for (uint8_t i = 0; i < 6; i++)
			{
				data[i] = pgm_read_byte(&ssd1306oled_font6x8[c * 6 + i]);	// print font to ram, print 6 columns
    1254:	84 91       	lpm	r24, Z
    1256:	8d 93       	st	X+, r24
    1258:	31 96       	adiw	r30, 0x01	; 1
			}
			twi_write(&TWIE,data,LCD_I2C_ADDR,DATA,6,0,0,1);
			break;
		case 118:
			c = 100; // Ö
			for (uint8_t i = 0; i < 6; i++)
    125a:	2a 17       	cp	r18, r26
    125c:	3b 07       	cpc	r19, r27
    125e:	d1 f7       	brne	.-12     	; 0x1254 <_Z8lcd_putcc+0x1c8>
			{
				data[i] = pgm_read_byte(&ssd1306oled_font6x8[c * 6 + i]);	// print font to ram, print 6 columns
			}
			twi_write(&TWIE,data,LCD_I2C_ADDR,DATA,6,0,0,1);
    1260:	aa 24       	eor	r10, r10
    1262:	a3 94       	inc	r10
    1264:	c1 2c       	mov	r12, r1
    1266:	e1 2c       	mov	r14, r1
    1268:	06 e0       	ldi	r16, 0x06	; 6
    126a:	20 e4       	ldi	r18, 0x40	; 64
    126c:	30 e0       	ldi	r19, 0x00	; 0
    126e:	48 e7       	ldi	r20, 0x78	; 120
    1270:	6a e1       	ldi	r22, 0x1A	; 26
    1272:	73 e2       	ldi	r23, 0x23	; 35
    1274:	80 ea       	ldi	r24, 0xA0	; 160
    1276:	94 e0       	ldi	r25, 0x04	; 4
    1278:	0e 94 9c 33 	call	0x6738	; 0x6738 <_Z9twi_writeP10TWI_structPhhjhbbb>
			break;
    127c:	2d c0       	rjmp	.+90     	; 0x12d8 <_Z8lcd_putcc+0x24c>
    127e:	e0 e8       	ldi	r30, 0x80	; 128
    1280:	f7 e0       	ldi	r31, 0x07	; 7
    1282:	aa e1       	ldi	r26, 0x1A	; 26
    1284:	b3 e2       	ldi	r27, 0x23	; 35
    1286:	20 e2       	ldi	r18, 0x20	; 32
    1288:	33 e2       	ldi	r19, 0x23	; 35
		case 100:
			c = 98; // Ä
			for (uint8_t i = 0; i < 6; i++)
			{
				data[i] = pgm_read_byte(&ssd1306oled_font6x8[c * 6 + i]);	// print font to ram, print 6 columns
    128a:	84 91       	lpm	r24, Z
    128c:	8d 93       	st	X+, r24
    128e:	31 96       	adiw	r30, 0x01	; 1
			}
			twi_write(&TWIE,data,LCD_I2C_ADDR,DATA,6,0,0,1);
			break;
		case 100:
			c = 98; // Ä
			for (uint8_t i = 0; i < 6; i++)
    1290:	2a 17       	cp	r18, r26
    1292:	3b 07       	cpc	r19, r27
    1294:	d1 f7       	brne	.-12     	; 0x128a <_Z8lcd_putcc+0x1fe>
			{
				data[i] = pgm_read_byte(&ssd1306oled_font6x8[c * 6 + i]);	// print font to ram, print 6 columns
			}
			twi_write(&TWIE,data,LCD_I2C_ADDR,DATA,6,0,0,1);
    1296:	aa 24       	eor	r10, r10
    1298:	a3 94       	inc	r10
    129a:	c1 2c       	mov	r12, r1
    129c:	e1 2c       	mov	r14, r1
    129e:	06 e0       	ldi	r16, 0x06	; 6
    12a0:	20 e4       	ldi	r18, 0x40	; 64
    12a2:	30 e0       	ldi	r19, 0x00	; 0
    12a4:	48 e7       	ldi	r20, 0x78	; 120
    12a6:	6a e1       	ldi	r22, 0x1A	; 26
    12a8:	73 e2       	ldi	r23, 0x23	; 35
    12aa:	80 ea       	ldi	r24, 0xA0	; 160
    12ac:	94 e0       	ldi	r25, 0x04	; 4
    12ae:	0e 94 9c 33 	call	0x6738	; 0x6738 <_Z9twi_writeP10TWI_structPhhjhbbb>
			break;
    12b2:	12 c0       	rjmp	.+36     	; 0x12d8 <_Z8lcd_putcc+0x24c>
		c != 159 &&
		c != 156 &&
		c != 150 &&
		c != 132 ) ) return;
    c -= 32;
	if( c < 127-32 ) {
    12b4:	ef 35       	cpi	r30, 0x5F	; 95
    12b6:	08 f0       	brcs	.+2      	; 0x12ba <_Z8lcd_putcc+0x22e>
    12b8:	18 cf       	rjmp	.-464    	; 0x10ea <_Z8lcd_putcc+0x5e>
    12ba:	f0 e0       	ldi	r31, 0x00	; 0
    12bc:	cf 01       	movw	r24, r30
    12be:	88 0f       	add	r24, r24
    12c0:	99 1f       	adc	r25, r25
    12c2:	e8 0f       	add	r30, r24
    12c4:	f9 1f       	adc	r31, r25
    12c6:	ee 0f       	add	r30, r30
    12c8:	ff 1f       	adc	r31, r31
    12ca:	ec 5c       	subi	r30, 0xCC	; 204
    12cc:	fa 4f       	sbci	r31, 0xFA	; 250
    12ce:	aa e1       	ldi	r26, 0x1A	; 26
    12d0:	b3 e2       	ldi	r27, 0x23	; 35
    12d2:	20 e2       	ldi	r18, 0x20	; 32
    12d4:	33 e2       	ldi	r19, 0x23	; 35
    12d6:	f4 ce       	rjmp	.-536    	; 0x10c0 <_Z8lcd_putcc+0x34>
			break;
		default:
			break;
	}
    
}
    12d8:	0f 91       	pop	r16
    12da:	ef 90       	pop	r14
    12dc:	cf 90       	pop	r12
    12de:	af 90       	pop	r10
    12e0:	08 95       	ret

000012e2 <_Z15lcd_putc_invertc>:

void lcd_putc_invert(char c){
    12e2:	af 92       	push	r10
    12e4:	cf 92       	push	r12
    12e6:	ef 92       	push	r14
    12e8:	0f 93       	push	r16
	static uint8_t data[6];
	if((c > 127 ||
    12ea:	e0 ee       	ldi	r30, 0xE0	; 224
    12ec:	e8 0f       	add	r30, r24
    12ee:	e0 36       	cpi	r30, 0x60	; 96
    12f0:	08 f4       	brcc	.+2      	; 0x12f4 <_Z15lcd_putc_invertc+0x12>
    12f2:	0c c1       	rjmp	.+536    	; 0x150c <_Z15lcd_putc_invertc+0x22a>
	c < 32) &&
	(c != 188 &&
	c != 182 &&
    12f4:	80 3b       	cpi	r24, 0xB0	; 176
    12f6:	09 f4       	brne	.+2      	; 0x12fa <_Z15lcd_putc_invertc+0x18>
    12f8:	09 c1       	rjmp	.+530    	; 0x150c <_Z15lcd_putc_invertc+0x22a>
	c != 176 &&
	c != 164 &&
    12fa:	8f 39       	cpi	r24, 0x9F	; 159
    12fc:	09 f4       	brne	.+2      	; 0x1300 <_Z15lcd_putc_invertc+0x1e>
    12fe:	06 c1       	rjmp	.+524    	; 0x150c <_Z15lcd_putc_invertc+0x22a>
	c != 159 &&
    1300:	8f 7d       	andi	r24, 0xDF	; 223
    1302:	8c 39       	cpi	r24, 0x9C	; 156
    1304:	09 f4       	brne	.+2      	; 0x1308 <_Z15lcd_putc_invertc+0x26>
    1306:	02 c1       	rjmp	.+516    	; 0x150c <_Z15lcd_putc_invertc+0x22a>
	c != 156 &&
    1308:	86 39       	cpi	r24, 0x96	; 150
    130a:	09 f4       	brne	.+2      	; 0x130e <_Z15lcd_putc_invertc+0x2c>
    130c:	ff c0       	rjmp	.+510    	; 0x150c <_Z15lcd_putc_invertc+0x22a>
	c != 150 &&
    130e:	84 38       	cpi	r24, 0x84	; 132
    1310:	09 f0       	breq	.+2      	; 0x1314 <_Z15lcd_putc_invertc+0x32>
    1312:	0e c1       	rjmp	.+540    	; 0x1530 <_Z15lcd_putc_invertc+0x24e>
    1314:	fb c0       	rjmp	.+502    	; 0x150c <_Z15lcd_putc_invertc+0x22a>
	c != 132 ) ) return;
	c -= 32;
	if( c < 127-32 ) {
		for (uint8_t i = 0; i < 6; i++)
		{
			data[i] = (pgm_read_byte(&ssd1306oled_font6x8[c * 6 + i]))^0xff;	// print font to ram, print 6 columns
    1316:	84 91       	lpm	r24, Z
    1318:	80 95       	com	r24
    131a:	8d 93       	st	X+, r24
    131c:	31 96       	adiw	r30, 0x01	; 1
	c != 156 &&
	c != 150 &&
	c != 132 ) ) return;
	c -= 32;
	if( c < 127-32 ) {
		for (uint8_t i = 0; i < 6; i++)
    131e:	a2 17       	cp	r26, r18
    1320:	b3 07       	cpc	r27, r19
    1322:	c9 f7       	brne	.-14     	; 0x1316 <_Z15lcd_putc_invertc+0x34>
		{
			data[i] = (pgm_read_byte(&ssd1306oled_font6x8[c * 6 + i]))^0xff;	// print font to ram, print 6 columns
		}
		twi_write(&TWIE,data,LCD_I2C_ADDR,DATA,6,0,0,1);
    1324:	aa 24       	eor	r10, r10
    1326:	a3 94       	inc	r10
    1328:	c1 2c       	mov	r12, r1
    132a:	e1 2c       	mov	r14, r1
    132c:	06 e0       	ldi	r16, 0x06	; 6
    132e:	20 e4       	ldi	r18, 0x40	; 64
    1330:	30 e0       	ldi	r19, 0x00	; 0
    1332:	48 e7       	ldi	r20, 0x78	; 120
    1334:	64 e1       	ldi	r22, 0x14	; 20
    1336:	73 e2       	ldi	r23, 0x23	; 35
    1338:	80 ea       	ldi	r24, 0xA0	; 160
    133a:	94 e0       	ldi	r25, 0x04	; 4
    133c:	0e 94 9c 33 	call	0x6738	; 0x6738 <_Z9twi_writeP10TWI_structPhhjhbbb>
		return;
    1340:	f7 c0       	rjmp	.+494    	; 0x1530 <_Z15lcd_putc_invertc+0x24e>
	}
	switch (c) {
    1342:	8e 2f       	mov	r24, r30
    1344:	90 e0       	ldi	r25, 0x00	; 0
    1346:	fc 01       	movw	r30, r24
    1348:	e4 56       	subi	r30, 0x64	; 100
    134a:	f1 09       	sbc	r31, r1
    134c:	e9 33       	cpi	r30, 0x39	; 57
    134e:	f1 05       	cpc	r31, r1
    1350:	08 f0       	brcs	.+2      	; 0x1354 <_Z15lcd_putc_invertc+0x72>
    1352:	ee c0       	rjmp	.+476    	; 0x1530 <_Z15lcd_putc_invertc+0x24e>
    1354:	e9 5c       	subi	r30, 0xC9	; 201
    1356:	fe 4f       	sbci	r31, 0xFE	; 254
    1358:	0c 94 50 3b 	jmp	0x76a0	; 0x76a0 <__tablejump2__>
    135c:	ee e6       	ldi	r30, 0x6E	; 110
    135e:	f7 e0       	ldi	r31, 0x07	; 7
    1360:	a4 e1       	ldi	r26, 0x14	; 20
    1362:	b3 e2       	ldi	r27, 0x23	; 35
    1364:	2a e1       	ldi	r18, 0x1A	; 26
    1366:	33 e2       	ldi	r19, 0x23	; 35
		case 156:
		c = 95; // ü
		for (uint8_t i = 0; i < 6; i++)
		{
			data[i] = pgm_read_byte(&ssd1306oled_font6x8[c * 6 + i]);	// print font to ram, print 6 columns
    1368:	84 91       	lpm	r24, Z
    136a:	8d 93       	st	X+, r24
    136c:	31 96       	adiw	r30, 0x01	; 1
		return;
	}
	switch (c) {
		case 156:
		c = 95; // ü
		for (uint8_t i = 0; i < 6; i++)
    136e:	2a 17       	cp	r18, r26
    1370:	3b 07       	cpc	r19, r27
    1372:	d1 f7       	brne	.-12     	; 0x1368 <_Z15lcd_putc_invertc+0x86>
		{
			data[i] = pgm_read_byte(&ssd1306oled_font6x8[c * 6 + i]);	// print font to ram, print 6 columns
		}
		twi_write(&TWIE,data,LCD_I2C_ADDR,DATA,6,0,0,1);
    1374:	aa 24       	eor	r10, r10
    1376:	a3 94       	inc	r10
    1378:	c1 2c       	mov	r12, r1
    137a:	e1 2c       	mov	r14, r1
    137c:	06 e0       	ldi	r16, 0x06	; 6
    137e:	20 e4       	ldi	r18, 0x40	; 64
    1380:	30 e0       	ldi	r19, 0x00	; 0
    1382:	48 e7       	ldi	r20, 0x78	; 120
    1384:	64 e1       	ldi	r22, 0x14	; 20
    1386:	73 e2       	ldi	r23, 0x23	; 35
    1388:	80 ea       	ldi	r24, 0xA0	; 160
    138a:	94 e0       	ldi	r25, 0x04	; 4
    138c:	0e 94 9c 33 	call	0x6738	; 0x6738 <_Z9twi_writeP10TWI_structPhhjhbbb>
		break;
    1390:	cf c0       	rjmp	.+414    	; 0x1530 <_Z15lcd_putc_invertc+0x24e>
    1392:	e6 e8       	ldi	r30, 0x86	; 134
    1394:	f7 e0       	ldi	r31, 0x07	; 7
    1396:	a4 e1       	ldi	r26, 0x14	; 20
    1398:	b3 e2       	ldi	r27, 0x23	; 35
    139a:	2a e1       	ldi	r18, 0x1A	; 26
    139c:	33 e2       	ldi	r19, 0x23	; 35
		case 150:
		c = 99; // ö
		for (uint8_t i = 0; i < 6; i++)
		{
			data[i] = pgm_read_byte(&ssd1306oled_font6x8[c * 6 + i]);	// print font to ram, print 6 columns
    139e:	84 91       	lpm	r24, Z
    13a0:	8d 93       	st	X+, r24
    13a2:	31 96       	adiw	r30, 0x01	; 1
		}
		twi_write(&TWIE,data,LCD_I2C_ADDR,DATA,6,0,0,1);
		break;
		case 150:
		c = 99; // ö
		for (uint8_t i = 0; i < 6; i++)
    13a4:	2a 17       	cp	r18, r26
    13a6:	3b 07       	cpc	r19, r27
    13a8:	d1 f7       	brne	.-12     	; 0x139e <_Z15lcd_putc_invertc+0xbc>
		{
			data[i] = pgm_read_byte(&ssd1306oled_font6x8[c * 6 + i]);	// print font to ram, print 6 columns
		}
		twi_write(&TWIE,data,LCD_I2C_ADDR,DATA,6,0,0,1);
    13aa:	aa 24       	eor	r10, r10
    13ac:	a3 94       	inc	r10
    13ae:	c1 2c       	mov	r12, r1
    13b0:	e1 2c       	mov	r14, r1
    13b2:	06 e0       	ldi	r16, 0x06	; 6
    13b4:	20 e4       	ldi	r18, 0x40	; 64
    13b6:	30 e0       	ldi	r19, 0x00	; 0
    13b8:	48 e7       	ldi	r20, 0x78	; 120
    13ba:	64 e1       	ldi	r22, 0x14	; 20
    13bc:	73 e2       	ldi	r23, 0x23	; 35
    13be:	80 ea       	ldi	r24, 0xA0	; 160
    13c0:	94 e0       	ldi	r25, 0x04	; 4
    13c2:	0e 94 9c 33 	call	0x6738	; 0x6738 <_Z9twi_writeP10TWI_structPhhjhbbb>
		break;
    13c6:	b4 c0       	rjmp	.+360    	; 0x1530 <_Z15lcd_putc_invertc+0x24e>
    13c8:	e2 e9       	ldi	r30, 0x92	; 146
    13ca:	f7 e0       	ldi	r31, 0x07	; 7
    13cc:	a4 e1       	ldi	r26, 0x14	; 20
    13ce:	b3 e2       	ldi	r27, 0x23	; 35
    13d0:	2a e1       	ldi	r18, 0x1A	; 26
    13d2:	33 e2       	ldi	r19, 0x23	; 35
		case 144:
		c = 101; // °
		for (uint8_t i = 0; i < 6; i++)
		{
			data[i] = pgm_read_byte(&ssd1306oled_font6x8[c * 6 + i]);	// print font to ram, print 6 columns
    13d4:	84 91       	lpm	r24, Z
    13d6:	8d 93       	st	X+, r24
    13d8:	31 96       	adiw	r30, 0x01	; 1
		}
		twi_write(&TWIE,data,LCD_I2C_ADDR,DATA,6,0,0,1);
		break;
		case 144:
		c = 101; // °
		for (uint8_t i = 0; i < 6; i++)
    13da:	a2 17       	cp	r26, r18
    13dc:	b3 07       	cpc	r27, r19
    13de:	d1 f7       	brne	.-12     	; 0x13d4 <_Z15lcd_putc_invertc+0xf2>
		{
			data[i] = pgm_read_byte(&ssd1306oled_font6x8[c * 6 + i]);	// print font to ram, print 6 columns
		}
		twi_write(&TWIE,data,LCD_I2C_ADDR,DATA,6,0,0,1);
    13e0:	aa 24       	eor	r10, r10
    13e2:	a3 94       	inc	r10
    13e4:	c1 2c       	mov	r12, r1
    13e6:	e1 2c       	mov	r14, r1
    13e8:	06 e0       	ldi	r16, 0x06	; 6
    13ea:	20 e4       	ldi	r18, 0x40	; 64
    13ec:	30 e0       	ldi	r19, 0x00	; 0
    13ee:	48 e7       	ldi	r20, 0x78	; 120
    13f0:	64 e1       	ldi	r22, 0x14	; 20
    13f2:	73 e2       	ldi	r23, 0x23	; 35
    13f4:	80 ea       	ldi	r24, 0xA0	; 160
    13f6:	94 e0       	ldi	r25, 0x04	; 4
    13f8:	0e 94 9c 33 	call	0x6738	; 0x6738 <_Z9twi_writeP10TWI_structPhhjhbbb>
		break;
    13fc:	99 c0       	rjmp	.+306    	; 0x1530 <_Z15lcd_putc_invertc+0x24e>
    13fe:	ea e7       	ldi	r30, 0x7A	; 122
    1400:	f7 e0       	ldi	r31, 0x07	; 7
    1402:	a4 e1       	ldi	r26, 0x14	; 20
    1404:	b3 e2       	ldi	r27, 0x23	; 35
    1406:	2a e1       	ldi	r18, 0x1A	; 26
    1408:	33 e2       	ldi	r19, 0x23	; 35
		case 132:
		c = 97; // ä
		for (uint8_t i = 0; i < 6; i++)
		{
			data[i] = pgm_read_byte(&ssd1306oled_font6x8[c * 6 + i]);	// print font to ram, print 6 columns
    140a:	84 91       	lpm	r24, Z
    140c:	8d 93       	st	X+, r24
    140e:	31 96       	adiw	r30, 0x01	; 1
		}
		twi_write(&TWIE,data,LCD_I2C_ADDR,DATA,6,0,0,1);
		break;
		case 132:
		c = 97; // ä
		for (uint8_t i = 0; i < 6; i++)
    1410:	2a 17       	cp	r18, r26
    1412:	3b 07       	cpc	r19, r27
    1414:	d1 f7       	brne	.-12     	; 0x140a <_Z15lcd_putc_invertc+0x128>
		{
			data[i] = pgm_read_byte(&ssd1306oled_font6x8[c * 6 + i]);	// print font to ram, print 6 columns
		}
		twi_write(&TWIE,data,LCD_I2C_ADDR,DATA,6,0,0,1);
    1416:	aa 24       	eor	r10, r10
    1418:	a3 94       	inc	r10
    141a:	c1 2c       	mov	r12, r1
    141c:	e1 2c       	mov	r14, r1
    141e:	06 e0       	ldi	r16, 0x06	; 6
    1420:	20 e4       	ldi	r18, 0x40	; 64
    1422:	30 e0       	ldi	r19, 0x00	; 0
    1424:	48 e7       	ldi	r20, 0x78	; 120
    1426:	64 e1       	ldi	r22, 0x14	; 20
    1428:	73 e2       	ldi	r23, 0x23	; 35
    142a:	80 ea       	ldi	r24, 0xA0	; 160
    142c:	94 e0       	ldi	r25, 0x04	; 4
    142e:	0e 94 9c 33 	call	0x6738	; 0x6738 <_Z9twi_writeP10TWI_structPhhjhbbb>
		break;
    1432:	7e c0       	rjmp	.+252    	; 0x1530 <_Z15lcd_putc_invertc+0x24e>
    1434:	e8 e9       	ldi	r30, 0x98	; 152
    1436:	f7 e0       	ldi	r31, 0x07	; 7
    1438:	a4 e1       	ldi	r26, 0x14	; 20
    143a:	b3 e2       	ldi	r27, 0x23	; 35
    143c:	2a e1       	ldi	r18, 0x1A	; 26
    143e:	33 e2       	ldi	r19, 0x23	; 35
		case 127:
		c = 102; // ß
		for (uint8_t i = 0; i < 6; i++)
		{
			data[i] = pgm_read_byte(&ssd1306oled_font6x8[c * 6 + i]);	// print font to ram, print 6 columns
    1440:	84 91       	lpm	r24, Z
    1442:	8d 93       	st	X+, r24
    1444:	31 96       	adiw	r30, 0x01	; 1
		}
		twi_write(&TWIE,data,LCD_I2C_ADDR,DATA,6,0,0,1);
		break;
		case 127:
		c = 102; // ß
		for (uint8_t i = 0; i < 6; i++)
    1446:	a2 17       	cp	r26, r18
    1448:	b3 07       	cpc	r27, r19
    144a:	d1 f7       	brne	.-12     	; 0x1440 <_Z15lcd_putc_invertc+0x15e>
		{
			data[i] = pgm_read_byte(&ssd1306oled_font6x8[c * 6 + i]);	// print font to ram, print 6 columns
		}
		twi_write(&TWIE,data,LCD_I2C_ADDR,DATA,6,0,0,1);
    144c:	aa 24       	eor	r10, r10
    144e:	a3 94       	inc	r10
    1450:	c1 2c       	mov	r12, r1
    1452:	e1 2c       	mov	r14, r1
    1454:	06 e0       	ldi	r16, 0x06	; 6
    1456:	20 e4       	ldi	r18, 0x40	; 64
    1458:	30 e0       	ldi	r19, 0x00	; 0
    145a:	48 e7       	ldi	r20, 0x78	; 120
    145c:	64 e1       	ldi	r22, 0x14	; 20
    145e:	73 e2       	ldi	r23, 0x23	; 35
    1460:	80 ea       	ldi	r24, 0xA0	; 160
    1462:	94 e0       	ldi	r25, 0x04	; 4
    1464:	0e 94 9c 33 	call	0x6738	; 0x6738 <_Z9twi_writeP10TWI_structPhhjhbbb>
		break;
    1468:	63 c0       	rjmp	.+198    	; 0x1530 <_Z15lcd_putc_invertc+0x24e>
    146a:	e4 e7       	ldi	r30, 0x74	; 116
    146c:	f7 e0       	ldi	r31, 0x07	; 7
    146e:	a4 e1       	ldi	r26, 0x14	; 20
    1470:	b3 e2       	ldi	r27, 0x23	; 35
    1472:	2a e1       	ldi	r18, 0x1A	; 26
    1474:	33 e2       	ldi	r19, 0x23	; 35
		case 124:
		c = 96; // Ü
		for (uint8_t i = 0; i < 6; i++)
		{
			data[i] = pgm_read_byte(&ssd1306oled_font6x8[c * 6 + i]);	// print font to ram, print 6 columns
    1476:	84 91       	lpm	r24, Z
    1478:	8d 93       	st	X+, r24
    147a:	31 96       	adiw	r30, 0x01	; 1
		}
		twi_write(&TWIE,data,LCD_I2C_ADDR,DATA,6,0,0,1);
		break;
		case 124:
		c = 96; // Ü
		for (uint8_t i = 0; i < 6; i++)
    147c:	a2 17       	cp	r26, r18
    147e:	b3 07       	cpc	r27, r19
    1480:	d1 f7       	brne	.-12     	; 0x1476 <_Z15lcd_putc_invertc+0x194>
		{
			data[i] = pgm_read_byte(&ssd1306oled_font6x8[c * 6 + i]);	// print font to ram, print 6 columns
		}
		twi_write(&TWIE,data,LCD_I2C_ADDR,DATA,6,0,0,1);
    1482:	aa 24       	eor	r10, r10
    1484:	a3 94       	inc	r10
    1486:	c1 2c       	mov	r12, r1
    1488:	e1 2c       	mov	r14, r1
    148a:	06 e0       	ldi	r16, 0x06	; 6
    148c:	20 e4       	ldi	r18, 0x40	; 64
    148e:	30 e0       	ldi	r19, 0x00	; 0
    1490:	48 e7       	ldi	r20, 0x78	; 120
    1492:	64 e1       	ldi	r22, 0x14	; 20
    1494:	73 e2       	ldi	r23, 0x23	; 35
    1496:	80 ea       	ldi	r24, 0xA0	; 160
    1498:	94 e0       	ldi	r25, 0x04	; 4
    149a:	0e 94 9c 33 	call	0x6738	; 0x6738 <_Z9twi_writeP10TWI_structPhhjhbbb>
		break;
    149e:	48 c0       	rjmp	.+144    	; 0x1530 <_Z15lcd_putc_invertc+0x24e>
    14a0:	ec e8       	ldi	r30, 0x8C	; 140
    14a2:	f7 e0       	ldi	r31, 0x07	; 7
    14a4:	a4 e1       	ldi	r26, 0x14	; 20
    14a6:	b3 e2       	ldi	r27, 0x23	; 35
    14a8:	2a e1       	ldi	r18, 0x1A	; 26
    14aa:	33 e2       	ldi	r19, 0x23	; 35
		case 118:
		c = 100; // Ö
		for (uint8_t i = 0; i < 6; i++)
		{
			data[i] = pgm_read_byte(&ssd1306oled_font6x8[c * 6 + i]);	// print font to ram, print 6 columns
    14ac:	84 91       	lpm	r24, Z
    14ae:	8d 93       	st	X+, r24
    14b0:	31 96       	adiw	r30, 0x01	; 1
		}
		twi_write(&TWIE,data,LCD_I2C_ADDR,DATA,6,0,0,1);
		break;
		case 118:
		c = 100; // Ö
		for (uint8_t i = 0; i < 6; i++)
    14b2:	2a 17       	cp	r18, r26
    14b4:	3b 07       	cpc	r19, r27
    14b6:	d1 f7       	brne	.-12     	; 0x14ac <_Z15lcd_putc_invertc+0x1ca>
		{
			data[i] = pgm_read_byte(&ssd1306oled_font6x8[c * 6 + i]);	// print font to ram, print 6 columns
		}
		twi_write(&TWIE,data,LCD_I2C_ADDR,DATA,6,0,0,1);
    14b8:	aa 24       	eor	r10, r10
    14ba:	a3 94       	inc	r10
    14bc:	c1 2c       	mov	r12, r1
    14be:	e1 2c       	mov	r14, r1
    14c0:	06 e0       	ldi	r16, 0x06	; 6
    14c2:	20 e4       	ldi	r18, 0x40	; 64
    14c4:	30 e0       	ldi	r19, 0x00	; 0
    14c6:	48 e7       	ldi	r20, 0x78	; 120
    14c8:	64 e1       	ldi	r22, 0x14	; 20
    14ca:	73 e2       	ldi	r23, 0x23	; 35
    14cc:	80 ea       	ldi	r24, 0xA0	; 160
    14ce:	94 e0       	ldi	r25, 0x04	; 4
    14d0:	0e 94 9c 33 	call	0x6738	; 0x6738 <_Z9twi_writeP10TWI_structPhhjhbbb>
		break;
    14d4:	2d c0       	rjmp	.+90     	; 0x1530 <_Z15lcd_putc_invertc+0x24e>
    14d6:	e0 e8       	ldi	r30, 0x80	; 128
    14d8:	f7 e0       	ldi	r31, 0x07	; 7
    14da:	a4 e1       	ldi	r26, 0x14	; 20
    14dc:	b3 e2       	ldi	r27, 0x23	; 35
    14de:	2a e1       	ldi	r18, 0x1A	; 26
    14e0:	33 e2       	ldi	r19, 0x23	; 35
		case 100:
		c = 98; // Ä
		for (uint8_t i = 0; i < 6; i++)
		{
			data[i] = pgm_read_byte(&ssd1306oled_font6x8[c * 6 + i]);	// print font to ram, print 6 columns
    14e2:	84 91       	lpm	r24, Z
    14e4:	8d 93       	st	X+, r24
    14e6:	31 96       	adiw	r30, 0x01	; 1
		}
		twi_write(&TWIE,data,LCD_I2C_ADDR,DATA,6,0,0,1);
		break;
		case 100:
		c = 98; // Ä
		for (uint8_t i = 0; i < 6; i++)
    14e8:	2a 17       	cp	r18, r26
    14ea:	3b 07       	cpc	r19, r27
    14ec:	d1 f7       	brne	.-12     	; 0x14e2 <_Z15lcd_putc_invertc+0x200>
		{
			data[i] = pgm_read_byte(&ssd1306oled_font6x8[c * 6 + i]);	// print font to ram, print 6 columns
		}
		twi_write(&TWIE,data,LCD_I2C_ADDR,DATA,6,0,0,1);
    14ee:	aa 24       	eor	r10, r10
    14f0:	a3 94       	inc	r10
    14f2:	c1 2c       	mov	r12, r1
    14f4:	e1 2c       	mov	r14, r1
    14f6:	06 e0       	ldi	r16, 0x06	; 6
    14f8:	20 e4       	ldi	r18, 0x40	; 64
    14fa:	30 e0       	ldi	r19, 0x00	; 0
    14fc:	48 e7       	ldi	r20, 0x78	; 120
    14fe:	64 e1       	ldi	r22, 0x14	; 20
    1500:	73 e2       	ldi	r23, 0x23	; 35
    1502:	80 ea       	ldi	r24, 0xA0	; 160
    1504:	94 e0       	ldi	r25, 0x04	; 4
    1506:	0e 94 9c 33 	call	0x6738	; 0x6738 <_Z9twi_writeP10TWI_structPhhjhbbb>
		break;
    150a:	12 c0       	rjmp	.+36     	; 0x1530 <_Z15lcd_putc_invertc+0x24e>
	c != 159 &&
	c != 156 &&
	c != 150 &&
	c != 132 ) ) return;
	c -= 32;
	if( c < 127-32 ) {
    150c:	ef 35       	cpi	r30, 0x5F	; 95
    150e:	08 f0       	brcs	.+2      	; 0x1512 <_Z15lcd_putc_invertc+0x230>
    1510:	18 cf       	rjmp	.-464    	; 0x1342 <_Z15lcd_putc_invertc+0x60>
    1512:	f0 e0       	ldi	r31, 0x00	; 0
    1514:	cf 01       	movw	r24, r30
    1516:	88 0f       	add	r24, r24
    1518:	99 1f       	adc	r25, r25
    151a:	e8 0f       	add	r30, r24
    151c:	f9 1f       	adc	r31, r25
    151e:	ee 0f       	add	r30, r30
    1520:	ff 1f       	adc	r31, r31
    1522:	ec 5c       	subi	r30, 0xCC	; 204
    1524:	fa 4f       	sbci	r31, 0xFA	; 250
    1526:	a4 e1       	ldi	r26, 0x14	; 20
    1528:	b3 e2       	ldi	r27, 0x23	; 35
    152a:	2a e1       	ldi	r18, 0x1A	; 26
    152c:	33 e2       	ldi	r19, 0x23	; 35
    152e:	f3 ce       	rjmp	.-538    	; 0x1316 <_Z15lcd_putc_invertc+0x34>
		break;
		default:
		break;
	}
	
}
    1530:	0f 91       	pop	r16
    1532:	ef 90       	pop	r14
    1534:	cf 90       	pop	r12
    1536:	af 90       	pop	r10
    1538:	08 95       	ret

0000153a <_Z8lcd_putsPKc>:
void lcd_puts(const char* s){
    153a:	cf 93       	push	r28
    153c:	df 93       	push	r29
    153e:	ec 01       	movw	r28, r24
	while (*s) {
    1540:	88 81       	ld	r24, Y
    1542:	88 23       	and	r24, r24
    1544:	31 f0       	breq	.+12     	; 0x1552 <_Z8lcd_putsPKc+0x18>
    1546:	21 96       	adiw	r28, 0x01	; 1
		lcd_putc(*s++);
    1548:	0e 94 46 08 	call	0x108c	; 0x108c <_Z8lcd_putcc>
		break;
	}
	
}
void lcd_puts(const char* s){
	while (*s) {
    154c:	89 91       	ld	r24, Y+
    154e:	81 11       	cpse	r24, r1
    1550:	fb cf       	rjmp	.-10     	; 0x1548 <_Z8lcd_putsPKc+0xe>
		lcd_putc(*s++);
	}
}
    1552:	df 91       	pop	r29
    1554:	cf 91       	pop	r28
    1556:	08 95       	ret

00001558 <_Z15lcd_puts_invertPKc>:
void lcd_puts_invert(const char* s){
    1558:	cf 93       	push	r28
    155a:	df 93       	push	r29
    155c:	ec 01       	movw	r28, r24
	while (*s) {
    155e:	88 81       	ld	r24, Y
    1560:	88 23       	and	r24, r24
    1562:	31 f0       	breq	.+12     	; 0x1570 <_Z15lcd_puts_invertPKc+0x18>
    1564:	21 96       	adiw	r28, 0x01	; 1
		lcd_putc_invert(*s++);
    1566:	0e 94 71 09 	call	0x12e2	; 0x12e2 <_Z15lcd_putc_invertc>
	while (*s) {
		lcd_putc(*s++);
	}
}
void lcd_puts_invert(const char* s){
	while (*s) {
    156a:	89 91       	ld	r24, Y+
    156c:	81 11       	cpse	r24, r1
    156e:	fb cf       	rjmp	.-10     	; 0x1566 <_Z15lcd_puts_invertPKc+0xe>
		lcd_putc_invert(*s++);
	}
}
    1570:	df 91       	pop	r29
    1572:	cf 91       	pop	r28
    1574:	08 95       	ret

00001576 <_Z19lcd_puts_invert_posPKchh>:

void lcd_puts_invert_pos(const char* s,uint8_t start,uint8_t ende){
    1576:	df 92       	push	r13
    1578:	ef 92       	push	r14
    157a:	ff 92       	push	r15
    157c:	0f 93       	push	r16
    157e:	1f 93       	push	r17
    1580:	cf 93       	push	r28
    1582:	df 93       	push	r29
    1584:	fc 01       	movw	r30, r24
	uint8_t position  = 0;
	while (*s) {
    1586:	80 81       	ld	r24, Z
    1588:	88 23       	and	r24, r24
    158a:	c1 f0       	breq	.+48     	; 0x15bc <_Z19lcd_puts_invert_posPKchh+0x46>
    158c:	d4 2e       	mov	r13, r20
    158e:	d6 2f       	mov	r29, r22
    1590:	8f 01       	movw	r16, r30
    1592:	0f 5f       	subi	r16, 0xFF	; 255
    1594:	1f 4f       	sbci	r17, 0xFF	; 255
    1596:	c0 e0       	ldi	r28, 0x00	; 0
		if(position >= start && position <= ende)
    1598:	cd 17       	cp	r28, r29
    159a:	30 f0       	brcs	.+12     	; 0x15a8 <_Z19lcd_puts_invert_posPKchh+0x32>
    159c:	dc 16       	cp	r13, r28
    159e:	20 f0       	brcs	.+8      	; 0x15a8 <_Z19lcd_puts_invert_posPKchh+0x32>
			lcd_putc_invert(*s++);
    15a0:	78 01       	movw	r14, r16
    15a2:	0e 94 71 09 	call	0x12e2	; 0x12e2 <_Z15lcd_putc_invertc>
    15a6:	03 c0       	rjmp	.+6      	; 0x15ae <_Z19lcd_puts_invert_posPKchh+0x38>
		else
			lcd_putc(*s++);
    15a8:	78 01       	movw	r14, r16
    15aa:	0e 94 46 08 	call	0x108c	; 0x108c <_Z8lcd_putcc>
		position++;
    15ae:	cf 5f       	subi	r28, 0xFF	; 255
	}
}

void lcd_puts_invert_pos(const char* s,uint8_t start,uint8_t ende){
	uint8_t position  = 0;
	while (*s) {
    15b0:	f7 01       	movw	r30, r14
    15b2:	80 81       	ld	r24, Z
    15b4:	0f 5f       	subi	r16, 0xFF	; 255
    15b6:	1f 4f       	sbci	r17, 0xFF	; 255
    15b8:	81 11       	cpse	r24, r1
    15ba:	ee cf       	rjmp	.-36     	; 0x1598 <_Z19lcd_puts_invert_posPKchh+0x22>
			lcd_putc_invert(*s++);
		else
			lcd_putc(*s++);
		position++;
	}
}
    15bc:	df 91       	pop	r29
    15be:	cf 91       	pop	r28
    15c0:	1f 91       	pop	r17
    15c2:	0f 91       	pop	r16
    15c4:	ff 90       	pop	r15
    15c6:	ef 90       	pop	r14
    15c8:	df 90       	pop	r13
    15ca:	08 95       	ret

000015cc <__vector_10>:
	p_profile_mod->slowdown_switch = false;
	p_profile_mod->speedup = false;
	p_profile_mod->CRC_value = calculate_crc32_checksum((unsigned char *)p_profile_mod,sizeof(Speed_profile_t)-4);
	write_profile(p_Profile_b,ID_mod,TWI_FRAM_present,offset_profiles);
	
}
    15cc:	1f 92       	push	r1
    15ce:	0f 92       	push	r0
    15d0:	0f b6       	in	r0, 0x3f	; 63
    15d2:	0f 92       	push	r0
    15d4:	11 24       	eor	r1, r1
    15d6:	8f 93       	push	r24
    15d8:	9f 93       	push	r25
    15da:	af 93       	push	r26
    15dc:	bf 93       	push	r27
    15de:	80 91 1d 24 	lds	r24, 0x241D	; 0x80241d <Blink>
    15e2:	8f 5f       	subi	r24, 0xFF	; 255
    15e4:	80 93 1d 24 	sts	0x241D, r24	; 0x80241d <Blink>
    15e8:	80 91 1d 24 	lds	r24, 0x241D	; 0x80241d <Blink>
    15ec:	87 70       	andi	r24, 0x07	; 7
    15ee:	b1 f4       	brne	.+44     	; 0x161c <__vector_10+0x50>
    15f0:	80 91 1e 24 	lds	r24, 0x241E	; 0x80241e <Unixtimestamp>
    15f4:	90 91 1f 24 	lds	r25, 0x241F	; 0x80241f <Unixtimestamp+0x1>
    15f8:	a0 91 20 24 	lds	r26, 0x2420	; 0x802420 <Unixtimestamp+0x2>
    15fc:	b0 91 21 24 	lds	r27, 0x2421	; 0x802421 <Unixtimestamp+0x3>
    1600:	01 96       	adiw	r24, 0x01	; 1
    1602:	a1 1d       	adc	r26, r1
    1604:	b1 1d       	adc	r27, r1
    1606:	80 93 1e 24 	sts	0x241E, r24	; 0x80241e <Unixtimestamp>
    160a:	90 93 1f 24 	sts	0x241F, r25	; 0x80241f <Unixtimestamp+0x1>
    160e:	a0 93 20 24 	sts	0x2420, r26	; 0x802420 <Unixtimestamp+0x2>
    1612:	b0 93 21 24 	sts	0x2421, r27	; 0x802421 <Unixtimestamp+0x3>
    1616:	81 e0       	ldi	r24, 0x01	; 1
    1618:	80 93 11 24 	sts	0x2411, r24	; 0x802411 <recalc_time>
    161c:	81 e0       	ldi	r24, 0x01	; 1
    161e:	80 93 14 24 	sts	0x2414, r24	; 0x802414 <calc_regulator>
    1622:	bf 91       	pop	r27
    1624:	af 91       	pop	r26
    1626:	9f 91       	pop	r25
    1628:	8f 91       	pop	r24
    162a:	0f 90       	pop	r0
    162c:	0f be       	out	0x3f, r0	; 63
    162e:	0f 90       	pop	r0
    1630:	1f 90       	pop	r1
    1632:	18 95       	reti

00001634 <__vector_47>:
    1634:	1f 92       	push	r1
    1636:	0f 92       	push	r0
    1638:	0f b6       	in	r0, 0x3f	; 63
    163a:	0f 92       	push	r0
    163c:	11 24       	eor	r1, r1
    163e:	2f 93       	push	r18
    1640:	3f 93       	push	r19
    1642:	8f 93       	push	r24
    1644:	9f 93       	push	r25
    1646:	80 91 23 23 	lds	r24, 0x2323	; 0x802323 <_ZZ11__vector_47E7counter>
    164a:	8f 5f       	subi	r24, 0xFF	; 255
    164c:	80 93 23 23 	sts	0x2323, r24	; 0x802323 <_ZZ11__vector_47E7counter>
    1650:	8a 30       	cpi	r24, 0x0A	; 10
    1652:	08 f4       	brcc	.+2      	; 0x1656 <__vector_47+0x22>
    1654:	4c c0       	rjmp	.+152    	; 0x16ee <__vector_47+0xba>
    1656:	90 91 08 06 	lds	r25, 0x0608	; 0x800608 <__TEXT_REGION_LENGTH__+0x700608>
    165a:	20 91 0c 24 	lds	r18, 0x240C	; 0x80240c <key_state>
    165e:	90 95       	com	r25
    1660:	39 2f       	mov	r19, r25
    1662:	32 27       	eor	r19, r18
    1664:	20 91 03 21 	lds	r18, 0x2103	; 0x802103 <_ZZ11__vector_47E3ct0>
    1668:	23 23       	and	r18, r19
    166a:	92 2f       	mov	r25, r18
    166c:	90 95       	com	r25
    166e:	90 93 03 21 	sts	0x2103, r25	; 0x802103 <_ZZ11__vector_47E3ct0>
    1672:	20 91 02 21 	lds	r18, 0x2102	; 0x802102 <_ZZ11__vector_47E3ct1>
    1676:	23 23       	and	r18, r19
    1678:	29 27       	eor	r18, r25
    167a:	20 93 02 21 	sts	0x2102, r18	; 0x802102 <_ZZ11__vector_47E3ct1>
    167e:	93 23       	and	r25, r19
    1680:	92 23       	and	r25, r18
    1682:	20 91 0c 24 	lds	r18, 0x240C	; 0x80240c <key_state>
    1686:	29 27       	eor	r18, r25
    1688:	20 93 0c 24 	sts	0x240C, r18	; 0x80240c <key_state>
    168c:	30 91 0c 24 	lds	r19, 0x240C	; 0x80240c <key_state>
    1690:	20 91 0b 24 	lds	r18, 0x240B	; 0x80240b <key_press>
    1694:	93 23       	and	r25, r19
    1696:	92 2b       	or	r25, r18
    1698:	90 93 0b 24 	sts	0x240B, r25	; 0x80240b <key_press>
    169c:	90 91 0c 24 	lds	r25, 0x240C	; 0x80240c <key_state>
    16a0:	94 fd       	sbrc	r25, 4
    16a2:	04 c0       	rjmp	.+8      	; 0x16ac <__vector_47+0x78>
    16a4:	91 e3       	ldi	r25, 0x31	; 49
    16a6:	90 93 22 23 	sts	0x2322, r25	; 0x802322 <_ZZ11__vector_47E3rpt>
    16aa:	12 c0       	rjmp	.+36     	; 0x16d0 <__vector_47+0x9c>
    16ac:	90 91 22 23 	lds	r25, 0x2322	; 0x802322 <_ZZ11__vector_47E3rpt>
    16b0:	91 50       	subi	r25, 0x01	; 1
    16b2:	19 f0       	breq	.+6      	; 0x16ba <__vector_47+0x86>
    16b4:	90 93 22 23 	sts	0x2322, r25	; 0x802322 <_ZZ11__vector_47E3rpt>
    16b8:	0b c0       	rjmp	.+22     	; 0x16d0 <__vector_47+0x9c>
    16ba:	94 e1       	ldi	r25, 0x14	; 20
    16bc:	90 93 22 23 	sts	0x2322, r25	; 0x802322 <_ZZ11__vector_47E3rpt>
    16c0:	90 91 0c 24 	lds	r25, 0x240C	; 0x80240c <key_state>
    16c4:	20 91 0a 24 	lds	r18, 0x240A	; 0x80240a <key_rpt>
    16c8:	90 71       	andi	r25, 0x10	; 16
    16ca:	92 2b       	or	r25, r18
    16cc:	90 93 0a 24 	sts	0x240A, r25	; 0x80240a <key_rpt>
    16d0:	9d ec       	ldi	r25, 0xCD	; 205
    16d2:	89 9f       	mul	r24, r25
    16d4:	91 2d       	mov	r25, r1
    16d6:	11 24       	eor	r1, r1
    16d8:	96 95       	lsr	r25
    16da:	96 95       	lsr	r25
    16dc:	96 95       	lsr	r25
    16de:	99 0f       	add	r25, r25
    16e0:	29 2f       	mov	r18, r25
    16e2:	22 0f       	add	r18, r18
    16e4:	22 0f       	add	r18, r18
    16e6:	92 0f       	add	r25, r18
    16e8:	89 1b       	sub	r24, r25
    16ea:	80 93 23 23 	sts	0x2323, r24	; 0x802323 <_ZZ11__vector_47E7counter>
    16ee:	80 91 08 06 	lds	r24, 0x0608	; 0x800608 <__TEXT_REGION_LENGTH__+0x700608>
    16f2:	82 ff       	sbrs	r24, 2
    16f4:	02 c0       	rjmp	.+4      	; 0x16fa <__vector_47+0xc6>
    16f6:	93 e0       	ldi	r25, 0x03	; 3
    16f8:	01 c0       	rjmp	.+2      	; 0x16fc <__vector_47+0xc8>
    16fa:	90 e0       	ldi	r25, 0x00	; 0
    16fc:	80 91 08 06 	lds	r24, 0x0608	; 0x800608 <__TEXT_REGION_LENGTH__+0x700608>
    1700:	83 ff       	sbrs	r24, 3
    1702:	02 c0       	rjmp	.+4      	; 0x1708 <__vector_47+0xd4>
    1704:	81 e0       	ldi	r24, 0x01	; 1
    1706:	98 27       	eor	r25, r24
    1708:	80 91 12 24 	lds	r24, 0x2412	; 0x802412 <_ZL4last>
    170c:	89 1b       	sub	r24, r25
    170e:	80 ff       	sbrs	r24, 0
    1710:	09 c0       	rjmp	.+18     	; 0x1724 <__vector_47+0xf0>
    1712:	90 93 12 24 	sts	0x2412, r25	; 0x802412 <_ZL4last>
    1716:	90 91 13 24 	lds	r25, 0x2413	; 0x802413 <enc_delta>
    171a:	82 70       	andi	r24, 0x02	; 2
    171c:	91 50       	subi	r25, 0x01	; 1
    171e:	89 0f       	add	r24, r25
    1720:	80 93 13 24 	sts	0x2413, r24	; 0x802413 <enc_delta>
    1724:	9f 91       	pop	r25
    1726:	8f 91       	pop	r24
    1728:	3f 91       	pop	r19
    172a:	2f 91       	pop	r18
    172c:	0f 90       	pop	r0
    172e:	0f be       	out	0x3f, r0	; 63
    1730:	0f 90       	pop	r0
    1732:	1f 90       	pop	r1
    1734:	18 95       	reti

00001736 <_Z13get_key_pressh>:
    1736:	f8 94       	cli
    1738:	90 91 0b 24 	lds	r25, 0x240B	; 0x80240b <key_press>
    173c:	89 23       	and	r24, r25
    173e:	90 91 0b 24 	lds	r25, 0x240B	; 0x80240b <key_press>
    1742:	98 27       	eor	r25, r24
    1744:	90 93 0b 24 	sts	0x240B, r25	; 0x80240b <key_press>
    1748:	78 94       	sei
    174a:	08 95       	ret

0000174c <_Z11get_key_rpth>:
    174c:	f8 94       	cli
    174e:	90 91 0a 24 	lds	r25, 0x240A	; 0x80240a <key_rpt>
    1752:	89 23       	and	r24, r25
    1754:	90 91 0a 24 	lds	r25, 0x240A	; 0x80240a <key_rpt>
    1758:	98 27       	eor	r25, r24
    175a:	90 93 0a 24 	sts	0x240A, r25	; 0x80240a <key_rpt>
    175e:	78 94       	sei
    1760:	08 95       	ret

00001762 <_Z13get_key_shorth>:
    1762:	f8 94       	cli
    1764:	90 91 0c 24 	lds	r25, 0x240C	; 0x80240c <key_state>
    1768:	90 95       	com	r25
    176a:	89 23       	and	r24, r25
    176c:	0e 94 9b 0b 	call	0x1736	; 0x1736 <_Z13get_key_pressh>
    1770:	08 95       	ret

00001772 <_Z12get_key_longh>:
    1772:	0e 94 a6 0b 	call	0x174c	; 0x174c <_Z11get_key_rpth>
    1776:	0e 94 9b 0b 	call	0x1736	; 0x1736 <_Z13get_key_pressh>
    177a:	08 95       	ret

0000177c <_Z8twi_initP10TWI_struct>:
    177c:	fc 01       	movw	r30, r24
    177e:	a0 e8       	ldi	r26, 0x80	; 128
    1780:	b6 e0       	ldi	r27, 0x06	; 6
    1782:	88 e2       	ldi	r24, 0x28	; 40
    1784:	50 96       	adiw	r26, 0x10	; 16
    1786:	8c 93       	st	X, r24
    1788:	50 97       	sbiw	r26, 0x10	; 16
    178a:	51 96       	adiw	r26, 0x11	; 17
    178c:	8c 93       	st	X, r24
    178e:	81 e0       	ldi	r24, 0x01	; 1
    1790:	82 83       	std	Z+2, r24	; 0x02
    1792:	93 e2       	ldi	r25, 0x23	; 35
    1794:	95 83       	std	Z+5, r25	; 0x05
    1796:	98 e0       	ldi	r25, 0x08	; 8
    1798:	91 83       	std	Z+1, r25	; 0x01
    179a:	84 83       	std	Z+4, r24	; 0x04
    179c:	08 95       	ret

0000179e <_Z9AddTotAvgPjPhj>:
    179e:	fb 01       	movw	r30, r22
    17a0:	20 81       	ld	r18, Z
    17a2:	30 e0       	ldi	r19, 0x00	; 0
    17a4:	22 0f       	add	r18, r18
    17a6:	33 1f       	adc	r19, r19
    17a8:	82 0f       	add	r24, r18
    17aa:	93 1f       	adc	r25, r19
    17ac:	dc 01       	movw	r26, r24
    17ae:	4d 93       	st	X+, r20
    17b0:	5c 93       	st	X, r21
    17b2:	80 81       	ld	r24, Z
    17b4:	8f 5f       	subi	r24, 0xFF	; 255
    17b6:	8f 70       	andi	r24, 0x0F	; 15
    17b8:	80 83       	st	Z, r24
    17ba:	08 95       	ret

000017bc <__vector_22>:
    17bc:	1f 92       	push	r1
    17be:	0f 92       	push	r0
    17c0:	0f b6       	in	r0, 0x3f	; 63
    17c2:	0f 92       	push	r0
    17c4:	11 24       	eor	r1, r1
    17c6:	0b b6       	in	r0, 0x3b	; 59
    17c8:	0f 92       	push	r0
    17ca:	2f 93       	push	r18
    17cc:	3f 93       	push	r19
    17ce:	4f 93       	push	r20
    17d0:	5f 93       	push	r21
    17d2:	6f 93       	push	r22
    17d4:	7f 93       	push	r23
    17d6:	8f 93       	push	r24
    17d8:	9f 93       	push	r25
    17da:	af 93       	push	r26
    17dc:	bf 93       	push	r27
    17de:	ef 93       	push	r30
    17e0:	ff 93       	push	r31
    17e2:	20 91 68 08 	lds	r18, 0x0868	; 0x800868 <__TEXT_REGION_LENGTH__+0x700868>
    17e6:	30 91 69 08 	lds	r19, 0x0869	; 0x800869 <__TEXT_REGION_LENGTH__+0x700869>
    17ea:	40 e0       	ldi	r20, 0x00	; 0
    17ec:	50 e0       	ldi	r21, 0x00	; 0
    17ee:	60 ec       	ldi	r22, 0xC0	; 192
    17f0:	71 ee       	ldi	r23, 0xE1	; 225
    17f2:	84 ee       	ldi	r24, 0xE4	; 228
    17f4:	90 e0       	ldi	r25, 0x00	; 0
    17f6:	0e 94 0f 3b 	call	0x761e	; 0x761e <__udivmodsi4>
    17fa:	a9 01       	movw	r20, r18
    17fc:	64 e5       	ldi	r22, 0x54	; 84
    17fe:	73 e2       	ldi	r23, 0x23	; 35
    1800:	85 e5       	ldi	r24, 0x55	; 85
    1802:	93 e2       	ldi	r25, 0x23	; 35
    1804:	0e 94 cf 0b 	call	0x179e	; 0x179e <_Z9AddTotAvgPjPhj>
    1808:	ff 91       	pop	r31
    180a:	ef 91       	pop	r30
    180c:	bf 91       	pop	r27
    180e:	af 91       	pop	r26
    1810:	9f 91       	pop	r25
    1812:	8f 91       	pop	r24
    1814:	7f 91       	pop	r23
    1816:	6f 91       	pop	r22
    1818:	5f 91       	pop	r21
    181a:	4f 91       	pop	r20
    181c:	3f 91       	pop	r19
    181e:	2f 91       	pop	r18
    1820:	0f 90       	pop	r0
    1822:	0b be       	out	0x3b, r0	; 59
    1824:	0f 90       	pop	r0
    1826:	0f be       	out	0x3f, r0	; 63
    1828:	0f 90       	pop	r0
    182a:	1f 90       	pop	r1
    182c:	18 95       	reti

0000182e <__vector_20>:
    182e:	1f 92       	push	r1
    1830:	0f 92       	push	r0
    1832:	0f b6       	in	r0, 0x3f	; 63
    1834:	0f 92       	push	r0
    1836:	11 24       	eor	r1, r1
    1838:	0b b6       	in	r0, 0x3b	; 59
    183a:	0f 92       	push	r0
    183c:	2f 93       	push	r18
    183e:	3f 93       	push	r19
    1840:	4f 93       	push	r20
    1842:	5f 93       	push	r21
    1844:	6f 93       	push	r22
    1846:	7f 93       	push	r23
    1848:	8f 93       	push	r24
    184a:	9f 93       	push	r25
    184c:	af 93       	push	r26
    184e:	bf 93       	push	r27
    1850:	ef 93       	push	r30
    1852:	ff 93       	push	r31
    1854:	40 e0       	ldi	r20, 0x00	; 0
    1856:	50 e0       	ldi	r21, 0x00	; 0
    1858:	64 e5       	ldi	r22, 0x54	; 84
    185a:	73 e2       	ldi	r23, 0x23	; 35
    185c:	85 e5       	ldi	r24, 0x55	; 85
    185e:	93 e2       	ldi	r25, 0x23	; 35
    1860:	0e 94 cf 0b 	call	0x179e	; 0x179e <_Z9AddTotAvgPjPhj>
    1864:	ff 91       	pop	r31
    1866:	ef 91       	pop	r30
    1868:	bf 91       	pop	r27
    186a:	af 91       	pop	r26
    186c:	9f 91       	pop	r25
    186e:	8f 91       	pop	r24
    1870:	7f 91       	pop	r23
    1872:	6f 91       	pop	r22
    1874:	5f 91       	pop	r21
    1876:	4f 91       	pop	r20
    1878:	3f 91       	pop	r19
    187a:	2f 91       	pop	r18
    187c:	0f 90       	pop	r0
    187e:	0b be       	out	0x3b, r0	; 59
    1880:	0f 90       	pop	r0
    1882:	0f be       	out	0x3f, r0	; 63
    1884:	0f 90       	pop	r0
    1886:	1f 90       	pop	r1
    1888:	18 95       	reti

0000188a <__vector_85>:
    188a:	1f 92       	push	r1
    188c:	0f 92       	push	r0
    188e:	0f b6       	in	r0, 0x3f	; 63
    1890:	0f 92       	push	r0
    1892:	11 24       	eor	r1, r1
    1894:	0b b6       	in	r0, 0x3b	; 59
    1896:	0f 92       	push	r0
    1898:	2f 93       	push	r18
    189a:	3f 93       	push	r19
    189c:	4f 93       	push	r20
    189e:	5f 93       	push	r21
    18a0:	6f 93       	push	r22
    18a2:	7f 93       	push	r23
    18a4:	8f 93       	push	r24
    18a6:	9f 93       	push	r25
    18a8:	af 93       	push	r26
    18aa:	bf 93       	push	r27
    18ac:	ef 93       	push	r30
    18ae:	ff 93       	push	r31
    18b0:	20 91 68 09 	lds	r18, 0x0968	; 0x800968 <__TEXT_REGION_LENGTH__+0x700968>
    18b4:	30 91 69 09 	lds	r19, 0x0969	; 0x800969 <__TEXT_REGION_LENGTH__+0x700969>
    18b8:	40 e0       	ldi	r20, 0x00	; 0
    18ba:	50 e0       	ldi	r21, 0x00	; 0
    18bc:	60 ec       	ldi	r22, 0xC0	; 192
    18be:	71 ee       	ldi	r23, 0xE1	; 225
    18c0:	84 ee       	ldi	r24, 0xE4	; 228
    18c2:	90 e0       	ldi	r25, 0x00	; 0
    18c4:	0e 94 0f 3b 	call	0x761e	; 0x761e <__udivmodsi4>
    18c8:	a9 01       	movw	r20, r18
    18ca:	65 e7       	ldi	r22, 0x75	; 117
    18cc:	73 e2       	ldi	r23, 0x23	; 35
    18ce:	86 e7       	ldi	r24, 0x76	; 118
    18d0:	93 e2       	ldi	r25, 0x23	; 35
    18d2:	0e 94 cf 0b 	call	0x179e	; 0x179e <_Z9AddTotAvgPjPhj>
    18d6:	ff 91       	pop	r31
    18d8:	ef 91       	pop	r30
    18da:	bf 91       	pop	r27
    18dc:	af 91       	pop	r26
    18de:	9f 91       	pop	r25
    18e0:	8f 91       	pop	r24
    18e2:	7f 91       	pop	r23
    18e4:	6f 91       	pop	r22
    18e6:	5f 91       	pop	r21
    18e8:	4f 91       	pop	r20
    18ea:	3f 91       	pop	r19
    18ec:	2f 91       	pop	r18
    18ee:	0f 90       	pop	r0
    18f0:	0b be       	out	0x3b, r0	; 59
    18f2:	0f 90       	pop	r0
    18f4:	0f be       	out	0x3f, r0	; 63
    18f6:	0f 90       	pop	r0
    18f8:	1f 90       	pop	r1
    18fa:	18 95       	reti

000018fc <__vector_83>:
    18fc:	1f 92       	push	r1
    18fe:	0f 92       	push	r0
    1900:	0f b6       	in	r0, 0x3f	; 63
    1902:	0f 92       	push	r0
    1904:	11 24       	eor	r1, r1
    1906:	0b b6       	in	r0, 0x3b	; 59
    1908:	0f 92       	push	r0
    190a:	2f 93       	push	r18
    190c:	3f 93       	push	r19
    190e:	4f 93       	push	r20
    1910:	5f 93       	push	r21
    1912:	6f 93       	push	r22
    1914:	7f 93       	push	r23
    1916:	8f 93       	push	r24
    1918:	9f 93       	push	r25
    191a:	af 93       	push	r26
    191c:	bf 93       	push	r27
    191e:	ef 93       	push	r30
    1920:	ff 93       	push	r31
    1922:	40 e0       	ldi	r20, 0x00	; 0
    1924:	50 e0       	ldi	r21, 0x00	; 0
    1926:	65 e7       	ldi	r22, 0x75	; 117
    1928:	73 e2       	ldi	r23, 0x23	; 35
    192a:	86 e7       	ldi	r24, 0x76	; 118
    192c:	93 e2       	ldi	r25, 0x23	; 35
    192e:	0e 94 cf 0b 	call	0x179e	; 0x179e <_Z9AddTotAvgPjPhj>
    1932:	ff 91       	pop	r31
    1934:	ef 91       	pop	r30
    1936:	bf 91       	pop	r27
    1938:	af 91       	pop	r26
    193a:	9f 91       	pop	r25
    193c:	8f 91       	pop	r24
    193e:	7f 91       	pop	r23
    1940:	6f 91       	pop	r22
    1942:	5f 91       	pop	r21
    1944:	4f 91       	pop	r20
    1946:	3f 91       	pop	r19
    1948:	2f 91       	pop	r18
    194a:	0f 90       	pop	r0
    194c:	0b be       	out	0x3b, r0	; 59
    194e:	0f 90       	pop	r0
    1950:	0f be       	out	0x3f, r0	; 63
    1952:	0f 90       	pop	r0
    1954:	1f 90       	pop	r1
    1956:	18 95       	reti

00001958 <_Z14GetOutputValuePj>:
    1958:	f8 94       	cli
    195a:	fc 01       	movw	r30, r24
    195c:	ac 01       	movw	r20, r24
    195e:	40 5e       	subi	r20, 0xE0	; 224
    1960:	5f 4f       	sbci	r21, 0xFF	; 255
    1962:	80 e0       	ldi	r24, 0x00	; 0
    1964:	90 e0       	ldi	r25, 0x00	; 0
    1966:	dc 01       	movw	r26, r24
    1968:	21 91       	ld	r18, Z+
    196a:	31 91       	ld	r19, Z+
    196c:	82 0f       	add	r24, r18
    196e:	93 1f       	adc	r25, r19
    1970:	a1 1d       	adc	r26, r1
    1972:	b1 1d       	adc	r27, r1
    1974:	e4 17       	cp	r30, r20
    1976:	f5 07       	cpc	r31, r21
    1978:	b9 f7       	brne	.-18     	; 0x1968 <_Z14GetOutputValuePj+0x10>
    197a:	00 97       	sbiw	r24, 0x00	; 0
    197c:	a1 05       	cpc	r26, r1
    197e:	b1 05       	cpc	r27, r1
    1980:	49 f0       	breq	.+18     	; 0x1994 <_Z14GetOutputValuePj+0x3c>
    1982:	68 94       	set
    1984:	13 f8       	bld	r1, 3
    1986:	b6 95       	lsr	r27
    1988:	a7 95       	ror	r26
    198a:	97 95       	ror	r25
    198c:	87 95       	ror	r24
    198e:	16 94       	lsr	r1
    1990:	d1 f7       	brne	.-12     	; 0x1986 <_Z14GetOutputValuePj+0x2e>
    1992:	02 c0       	rjmp	.+4      	; 0x1998 <_Z14GetOutputValuePj+0x40>
    1994:	80 e0       	ldi	r24, 0x00	; 0
    1996:	90 e0       	ldi	r25, 0x00	; 0
    1998:	78 94       	sei
    199a:	08 95       	ret

0000199c <_Z9regulatorv>:
    199c:	cf 92       	push	r12
    199e:	df 92       	push	r13
    19a0:	ef 92       	push	r14
    19a2:	ff 92       	push	r15
    19a4:	cf 93       	push	r28
    19a6:	df 93       	push	r29
    19a8:	cd b7       	in	r28, 0x3d	; 61
    19aa:	de b7       	in	r29, 0x3e	; 62
    19ac:	a8 97       	sbiw	r28, 0x28	; 40
    19ae:	cd bf       	out	0x3d, r28	; 61
    19b0:	de bf       	out	0x3e, r29	; 62
    19b2:	80 91 10 24 	lds	r24, 0x2410	; 0x802410 <running_a>
    19b6:	88 23       	and	r24, r24
    19b8:	09 f4       	brne	.+2      	; 0x19bc <_Z9regulatorv+0x20>
    19ba:	36 c1       	rjmp	.+620    	; 0x1c28 <_Z9regulatorv+0x28c>
    19bc:	85 e5       	ldi	r24, 0x55	; 85
    19be:	93 e2       	ldi	r25, 0x23	; 35
    19c0:	0e 94 ac 0c 	call	0x1958	; 0x1958 <_Z14GetOutputValuePj>
    19c4:	a0 e0       	ldi	r26, 0x00	; 0
    19c6:	b0 e0       	ldi	r27, 0x00	; 0
    19c8:	80 93 19 24 	sts	0x2419, r24	; 0x802419 <RPM_a>
    19cc:	90 93 1a 24 	sts	0x241A, r25	; 0x80241a <RPM_a+0x1>
    19d0:	a0 93 1b 24 	sts	0x241B, r26	; 0x80241b <RPM_a+0x2>
    19d4:	b0 93 1c 24 	sts	0x241C, r27	; 0x80241c <RPM_a+0x3>
    19d8:	80 91 21 21 	lds	r24, 0x2121	; 0x802121 <Sollwert_RPM_a>
    19dc:	90 91 22 21 	lds	r25, 0x2122	; 0x802122 <Sollwert_RPM_a+0x1>
    19e0:	40 91 19 24 	lds	r20, 0x2419	; 0x802419 <RPM_a>
    19e4:	50 91 1a 24 	lds	r21, 0x241A	; 0x80241a <RPM_a+0x1>
    19e8:	60 91 1b 24 	lds	r22, 0x241B	; 0x80241b <RPM_a+0x2>
    19ec:	70 91 1c 24 	lds	r23, 0x241C	; 0x80241c <RPM_a+0x3>
    19f0:	a0 e0       	ldi	r26, 0x00	; 0
    19f2:	b0 e0       	ldi	r27, 0x00	; 0
    19f4:	84 1b       	sub	r24, r20
    19f6:	95 0b       	sbc	r25, r21
    19f8:	a6 0b       	sbc	r26, r22
    19fa:	b7 0b       	sbc	r27, r23
    19fc:	8d a3       	std	Y+37, r24	; 0x25
    19fe:	9e a3       	std	Y+38, r25	; 0x26
    1a00:	af a3       	std	Y+39, r26	; 0x27
    1a02:	b8 a7       	std	Y+40, r27	; 0x28
    1a04:	cd a0       	ldd	r12, Y+37	; 0x25
    1a06:	de a0       	ldd	r13, Y+38	; 0x26
    1a08:	ef a0       	ldd	r14, Y+39	; 0x27
    1a0a:	f8 a4       	ldd	r15, Y+40	; 0x28
    1a0c:	cc 0c       	add	r12, r12
    1a0e:	dd 1c       	adc	r13, r13
    1a10:	ee 1c       	adc	r14, r14
    1a12:	ff 1c       	adc	r15, r15
    1a14:	cc 0c       	add	r12, r12
    1a16:	dd 1c       	adc	r13, r13
    1a18:	ee 1c       	adc	r14, r14
    1a1a:	ff 1c       	adc	r15, r15
    1a1c:	cc 0c       	add	r12, r12
    1a1e:	dd 1c       	adc	r13, r13
    1a20:	ee 1c       	adc	r14, r14
    1a22:	ff 1c       	adc	r15, r15
    1a24:	cc 0c       	add	r12, r12
    1a26:	dd 1c       	adc	r13, r13
    1a28:	ee 1c       	adc	r14, r14
    1a2a:	ff 1c       	adc	r15, r15
    1a2c:	cc 0c       	add	r12, r12
    1a2e:	dd 1c       	adc	r13, r13
    1a30:	ee 1c       	adc	r14, r14
    1a32:	ff 1c       	adc	r15, r15
    1a34:	60 91 17 21 	lds	r22, 0x2117	; 0x802117 <I_Anteil_speed_a>
    1a38:	70 91 18 21 	lds	r23, 0x2118	; 0x802118 <I_Anteil_speed_a+0x1>
    1a3c:	80 91 19 21 	lds	r24, 0x2119	; 0x802119 <I_Anteil_speed_a+0x2>
    1a40:	90 91 1a 21 	lds	r25, 0x211A	; 0x80211a <I_Anteil_speed_a+0x3>
    1a44:	2d e7       	ldi	r18, 0x7D	; 125
    1a46:	30 e0       	ldi	r19, 0x00	; 0
    1a48:	40 e0       	ldi	r20, 0x00	; 0
    1a4a:	50 e0       	ldi	r21, 0x00	; 0
    1a4c:	0e 94 0f 3b 	call	0x761e	; 0x761e <__udivmodsi4>
    1a50:	c7 01       	movw	r24, r14
    1a52:	b6 01       	movw	r22, r12
    1a54:	0e 94 31 3b 	call	0x7662	; 0x7662 <__divmodsi4>
    1a58:	29 a3       	std	Y+33, r18	; 0x21
    1a5a:	3a a3       	std	Y+34, r19	; 0x22
    1a5c:	4b a3       	std	Y+35, r20	; 0x23
    1a5e:	5c a3       	std	Y+36, r21	; 0x24
    1a60:	80 91 28 09 	lds	r24, 0x0928	; 0x800928 <__TEXT_REGION_LENGTH__+0x700928>
    1a64:	90 91 29 09 	lds	r25, 0x0929	; 0x800929 <__TEXT_REGION_LENGTH__+0x700929>
    1a68:	49 a1       	ldd	r20, Y+33	; 0x21
    1a6a:	5a a1       	ldd	r21, Y+34	; 0x22
    1a6c:	6b a1       	ldd	r22, Y+35	; 0x23
    1a6e:	7c a1       	ldd	r23, Y+36	; 0x24
    1a70:	a0 e0       	ldi	r26, 0x00	; 0
    1a72:	b0 e0       	ldi	r27, 0x00	; 0
    1a74:	84 1b       	sub	r24, r20
    1a76:	95 0b       	sbc	r25, r21
    1a78:	a6 0b       	sbc	r26, r22
    1a7a:	b7 0b       	sbc	r27, r23
    1a7c:	8d 8f       	std	Y+29, r24	; 0x1d
    1a7e:	9e 8f       	std	Y+30, r25	; 0x1e
    1a80:	af 8f       	std	Y+31, r26	; 0x1f
    1a82:	b8 a3       	std	Y+32, r27	; 0x20
    1a84:	8d 8d       	ldd	r24, Y+29	; 0x1d
    1a86:	9e 8d       	ldd	r25, Y+30	; 0x1e
    1a88:	af 8d       	ldd	r26, Y+31	; 0x1f
    1a8a:	b8 a1       	ldd	r27, Y+32	; 0x20
    1a8c:	bb 23       	and	r27, r27
    1a8e:	24 f4       	brge	.+8      	; 0x1a98 <_Z9regulatorv+0xfc>
    1a90:	1d 8e       	std	Y+29, r1	; 0x1d
    1a92:	1e 8e       	std	Y+30, r1	; 0x1e
    1a94:	1f 8e       	std	Y+31, r1	; 0x1f
    1a96:	18 a2       	std	Y+32, r1	; 0x20
    1a98:	8d 8d       	ldd	r24, Y+29	; 0x1d
    1a9a:	9e 8d       	ldd	r25, Y+30	; 0x1e
    1a9c:	af 8d       	ldd	r26, Y+31	; 0x1f
    1a9e:	b8 a1       	ldd	r27, Y+32	; 0x20
    1aa0:	81 32       	cpi	r24, 0x21	; 33
    1aa2:	93 40       	sbci	r25, 0x03	; 3
    1aa4:	a1 05       	cpc	r26, r1
    1aa6:	b1 05       	cpc	r27, r1
    1aa8:	44 f0       	brlt	.+16     	; 0x1aba <_Z9regulatorv+0x11e>
    1aaa:	80 e2       	ldi	r24, 0x20	; 32
    1aac:	93 e0       	ldi	r25, 0x03	; 3
    1aae:	a0 e0       	ldi	r26, 0x00	; 0
    1ab0:	b0 e0       	ldi	r27, 0x00	; 0
    1ab2:	8d 8f       	std	Y+29, r24	; 0x1d
    1ab4:	9e 8f       	std	Y+30, r25	; 0x1e
    1ab6:	af 8f       	std	Y+31, r26	; 0x1f
    1ab8:	b8 a3       	std	Y+32, r27	; 0x20
    1aba:	8d 8d       	ldd	r24, Y+29	; 0x1d
    1abc:	9e 8d       	ldd	r25, Y+30	; 0x1e
    1abe:	af 8d       	ldd	r26, Y+31	; 0x1f
    1ac0:	b8 a1       	ldd	r27, Y+32	; 0x20
    1ac2:	80 93 28 09 	sts	0x0928, r24	; 0x800928 <__TEXT_REGION_LENGTH__+0x700928>
    1ac6:	90 93 29 09 	sts	0x0929, r25	; 0x800929 <__TEXT_REGION_LENGTH__+0x700929>
    1aca:	8d 8d       	ldd	r24, Y+29	; 0x1d
    1acc:	9e 8d       	ldd	r25, Y+30	; 0x1e
    1ace:	af 8d       	ldd	r26, Y+31	; 0x1f
    1ad0:	b8 a1       	ldd	r27, Y+32	; 0x20
    1ad2:	81 15       	cp	r24, r1
    1ad4:	93 40       	sbci	r25, 0x03	; 3
    1ad6:	a1 05       	cpc	r26, r1
    1ad8:	b1 05       	cpc	r27, r1
    1ada:	4c f0       	brlt	.+18     	; 0x1aee <_Z9regulatorv+0x152>
    1adc:	80 91 25 21 	lds	r24, 0x2125	; 0x802125 <Sollwert_a>
    1ae0:	90 91 26 21 	lds	r25, 0x2126	; 0x802126 <Sollwert_a+0x1>
    1ae4:	02 97       	sbiw	r24, 0x02	; 2
    1ae6:	80 93 25 21 	sts	0x2125, r24	; 0x802125 <Sollwert_a>
    1aea:	90 93 26 21 	sts	0x2126, r25	; 0x802126 <Sollwert_a+0x1>
    1aee:	8d 8d       	ldd	r24, Y+29	; 0x1d
    1af0:	9e 8d       	ldd	r25, Y+30	; 0x1e
    1af2:	af 8d       	ldd	r26, Y+31	; 0x1f
    1af4:	b8 a1       	ldd	r27, Y+32	; 0x20
    1af6:	8a 3f       	cpi	r24, 0xFA	; 250
    1af8:	91 05       	cpc	r25, r1
    1afa:	a1 05       	cpc	r26, r1
    1afc:	b1 05       	cpc	r27, r1
    1afe:	4c f4       	brge	.+18     	; 0x1b12 <_Z9regulatorv+0x176>
    1b00:	80 91 25 21 	lds	r24, 0x2125	; 0x802125 <Sollwert_a>
    1b04:	90 91 26 21 	lds	r25, 0x2126	; 0x802126 <Sollwert_a+0x1>
    1b08:	02 96       	adiw	r24, 0x02	; 2
    1b0a:	80 93 25 21 	sts	0x2125, r24	; 0x802125 <Sollwert_a>
    1b0e:	90 93 26 21 	sts	0x2126, r25	; 0x802126 <Sollwert_a+0x1>
    1b12:	80 91 25 21 	lds	r24, 0x2125	; 0x802125 <Sollwert_a>
    1b16:	90 91 26 21 	lds	r25, 0x2126	; 0x802126 <Sollwert_a+0x1>
    1b1a:	81 30       	cpi	r24, 0x01	; 1
    1b1c:	90 41       	sbci	r25, 0x10	; 16
    1b1e:	30 f0       	brcs	.+12     	; 0x1b2c <_Z9regulatorv+0x190>
    1b20:	80 e0       	ldi	r24, 0x00	; 0
    1b22:	90 e1       	ldi	r25, 0x10	; 16
    1b24:	80 93 25 21 	sts	0x2125, r24	; 0x802125 <Sollwert_a>
    1b28:	90 93 26 21 	sts	0x2126, r25	; 0x802126 <Sollwert_a+0x1>
    1b2c:	80 91 25 21 	lds	r24, 0x2125	; 0x802125 <Sollwert_a>
    1b30:	90 91 26 21 	lds	r25, 0x2126	; 0x802126 <Sollwert_a+0x1>
    1b34:	85 3a       	cpi	r24, 0xA5	; 165
    1b36:	95 40       	sbci	r25, 0x05	; 5
    1b38:	30 f4       	brcc	.+12     	; 0x1b46 <_Z9regulatorv+0x1aa>
    1b3a:	85 ea       	ldi	r24, 0xA5	; 165
    1b3c:	95 e0       	ldi	r25, 0x05	; 5
    1b3e:	80 93 25 21 	sts	0x2125, r24	; 0x802125 <Sollwert_a>
    1b42:	90 93 26 21 	sts	0x2126, r25	; 0x802126 <Sollwert_a+0x1>
    1b46:	80 91 25 21 	lds	r24, 0x2125	; 0x802125 <Sollwert_a>
    1b4a:	90 91 26 21 	lds	r25, 0x2126	; 0x802126 <Sollwert_a+0x1>
    1b4e:	20 91 29 21 	lds	r18, 0x2129	; 0x802129 <ADC_Value_a>
    1b52:	30 91 2a 21 	lds	r19, 0x212A	; 0x80212a <ADC_Value_a+0x1>
    1b56:	a0 e0       	ldi	r26, 0x00	; 0
    1b58:	b0 e0       	ldi	r27, 0x00	; 0
    1b5a:	82 1b       	sub	r24, r18
    1b5c:	93 0b       	sbc	r25, r19
    1b5e:	a1 09       	sbc	r26, r1
    1b60:	b1 09       	sbc	r27, r1
    1b62:	8d a3       	std	Y+37, r24	; 0x25
    1b64:	9e a3       	std	Y+38, r25	; 0x26
    1b66:	af a3       	std	Y+39, r26	; 0x27
    1b68:	b8 a7       	std	Y+40, r27	; 0x28
    1b6a:	cd a0       	ldd	r12, Y+37	; 0x25
    1b6c:	de a0       	ldd	r13, Y+38	; 0x26
    1b6e:	ef a0       	ldd	r14, Y+39	; 0x27
    1b70:	f8 a4       	ldd	r15, Y+40	; 0x28
    1b72:	cc 0c       	add	r12, r12
    1b74:	dd 1c       	adc	r13, r13
    1b76:	ee 1c       	adc	r14, r14
    1b78:	ff 1c       	adc	r15, r15
    1b7a:	cc 0c       	add	r12, r12
    1b7c:	dd 1c       	adc	r13, r13
    1b7e:	ee 1c       	adc	r14, r14
    1b80:	ff 1c       	adc	r15, r15
    1b82:	cc 0c       	add	r12, r12
    1b84:	dd 1c       	adc	r13, r13
    1b86:	ee 1c       	adc	r14, r14
    1b88:	ff 1c       	adc	r15, r15
    1b8a:	cc 0c       	add	r12, r12
    1b8c:	dd 1c       	adc	r13, r13
    1b8e:	ee 1c       	adc	r14, r14
    1b90:	ff 1c       	adc	r15, r15
    1b92:	cc 0c       	add	r12, r12
    1b94:	dd 1c       	adc	r13, r13
    1b96:	ee 1c       	adc	r14, r14
    1b98:	ff 1c       	adc	r15, r15
    1b9a:	60 91 1b 21 	lds	r22, 0x211B	; 0x80211b <I_Anteil_a>
    1b9e:	70 91 1c 21 	lds	r23, 0x211C	; 0x80211c <I_Anteil_a+0x1>
    1ba2:	80 91 1d 21 	lds	r24, 0x211D	; 0x80211d <I_Anteil_a+0x2>
    1ba6:	90 91 1e 21 	lds	r25, 0x211E	; 0x80211e <I_Anteil_a+0x3>
    1baa:	2d e7       	ldi	r18, 0x7D	; 125
    1bac:	30 e0       	ldi	r19, 0x00	; 0
    1bae:	40 e0       	ldi	r20, 0x00	; 0
    1bb0:	50 e0       	ldi	r21, 0x00	; 0
    1bb2:	0e 94 0f 3b 	call	0x761e	; 0x761e <__udivmodsi4>
    1bb6:	c7 01       	movw	r24, r14
    1bb8:	b6 01       	movw	r22, r12
    1bba:	0e 94 31 3b 	call	0x7662	; 0x7662 <__divmodsi4>
    1bbe:	29 8f       	std	Y+25, r18	; 0x19
    1bc0:	3a 8f       	std	Y+26, r19	; 0x1a
    1bc2:	4b 8f       	std	Y+27, r20	; 0x1b
    1bc4:	5c 8f       	std	Y+28, r21	; 0x1c
    1bc6:	20 91 2a 08 	lds	r18, 0x082A	; 0x80082a <__TEXT_REGION_LENGTH__+0x70082a>
    1bca:	30 91 2b 08 	lds	r19, 0x082B	; 0x80082b <__TEXT_REGION_LENGTH__+0x70082b>
    1bce:	89 8d       	ldd	r24, Y+25	; 0x19
    1bd0:	9a 8d       	ldd	r25, Y+26	; 0x1a
    1bd2:	ab 8d       	ldd	r26, Y+27	; 0x1b
    1bd4:	bc 8d       	ldd	r27, Y+28	; 0x1c
    1bd6:	82 0f       	add	r24, r18
    1bd8:	93 1f       	adc	r25, r19
    1bda:	a1 1d       	adc	r26, r1
    1bdc:	b1 1d       	adc	r27, r1
    1bde:	8d 8f       	std	Y+29, r24	; 0x1d
    1be0:	9e 8f       	std	Y+30, r25	; 0x1e
    1be2:	af 8f       	std	Y+31, r26	; 0x1f
    1be4:	b8 a3       	std	Y+32, r27	; 0x20
    1be6:	8d 8d       	ldd	r24, Y+29	; 0x1d
    1be8:	9e 8d       	ldd	r25, Y+30	; 0x1e
    1bea:	af 8d       	ldd	r26, Y+31	; 0x1f
    1bec:	b8 a1       	ldd	r27, Y+32	; 0x20
    1bee:	81 15       	cp	r24, r1
    1bf0:	92 40       	sbci	r25, 0x02	; 2
    1bf2:	a1 05       	cpc	r26, r1
    1bf4:	b1 05       	cpc	r27, r1
    1bf6:	0c f0       	brlt	.+2      	; 0x1bfa <_Z9regulatorv+0x25e>
    1bf8:	6a c1       	rjmp	.+724    	; 0x1ece <_Z9regulatorv+0x532>
    1bfa:	8d 8d       	ldd	r24, Y+29	; 0x1d
    1bfc:	9e 8d       	ldd	r25, Y+30	; 0x1e
    1bfe:	af 8d       	ldd	r26, Y+31	; 0x1f
    1c00:	b8 a1       	ldd	r27, Y+32	; 0x20
    1c02:	18 16       	cp	r1, r24
    1c04:	19 06       	cpc	r1, r25
    1c06:	1a 06       	cpc	r1, r26
    1c08:	1b 06       	cpc	r1, r27
    1c0a:	0c f4       	brge	.+2      	; 0x1c0e <_Z9regulatorv+0x272>
    1c0c:	57 c1       	rjmp	.+686    	; 0x1ebc <_Z9regulatorv+0x520>
    1c0e:	5f c1       	rjmp	.+702    	; 0x1ece <_Z9regulatorv+0x532>
    1c10:	10 92 2a 08 	sts	0x082A, r1	; 0x80082a <__TEXT_REGION_LENGTH__+0x70082a>
    1c14:	10 92 2b 08 	sts	0x082B, r1	; 0x80082b <__TEXT_REGION_LENGTH__+0x70082b>
    1c18:	0f c0       	rjmp	.+30     	; 0x1c38 <_Z9regulatorv+0x29c>
    1c1a:	8f ef       	ldi	r24, 0xFF	; 255
    1c1c:	91 e0       	ldi	r25, 0x01	; 1
    1c1e:	80 93 2a 08 	sts	0x082A, r24	; 0x80082a <__TEXT_REGION_LENGTH__+0x70082a>
    1c22:	90 93 2b 08 	sts	0x082B, r25	; 0x80082b <__TEXT_REGION_LENGTH__+0x70082b>
    1c26:	08 c0       	rjmp	.+16     	; 0x1c38 <_Z9regulatorv+0x29c>
    1c28:	10 92 28 09 	sts	0x0928, r1	; 0x800928 <__TEXT_REGION_LENGTH__+0x700928>
    1c2c:	10 92 29 09 	sts	0x0929, r1	; 0x800929 <__TEXT_REGION_LENGTH__+0x700929>
    1c30:	10 92 2a 08 	sts	0x082A, r1	; 0x80082a <__TEXT_REGION_LENGTH__+0x70082a>
    1c34:	10 92 2b 08 	sts	0x082B, r1	; 0x80082b <__TEXT_REGION_LENGTH__+0x70082b>
    1c38:	80 91 0f 24 	lds	r24, 0x240F	; 0x80240f <running_b>
    1c3c:	88 23       	and	r24, r24
    1c3e:	09 f4       	brne	.+2      	; 0x1c42 <_Z9regulatorv+0x2a6>
    1c40:	34 c1       	rjmp	.+616    	; 0x1eaa <_Z9regulatorv+0x50e>
    1c42:	86 e7       	ldi	r24, 0x76	; 118
    1c44:	93 e2       	ldi	r25, 0x23	; 35
    1c46:	0e 94 ac 0c 	call	0x1958	; 0x1958 <_Z14GetOutputValuePj>
    1c4a:	a0 e0       	ldi	r26, 0x00	; 0
    1c4c:	b0 e0       	ldi	r27, 0x00	; 0
    1c4e:	80 93 15 24 	sts	0x2415, r24	; 0x802415 <RPM_b>
    1c52:	90 93 16 24 	sts	0x2416, r25	; 0x802416 <RPM_b+0x1>
    1c56:	a0 93 17 24 	sts	0x2417, r26	; 0x802417 <RPM_b+0x2>
    1c5a:	b0 93 18 24 	sts	0x2418, r27	; 0x802418 <RPM_b+0x3>
    1c5e:	80 91 1f 21 	lds	r24, 0x211F	; 0x80211f <Sollwert_RPM_b>
    1c62:	90 91 20 21 	lds	r25, 0x2120	; 0x802120 <Sollwert_RPM_b+0x1>
    1c66:	40 91 15 24 	lds	r20, 0x2415	; 0x802415 <RPM_b>
    1c6a:	50 91 16 24 	lds	r21, 0x2416	; 0x802416 <RPM_b+0x1>
    1c6e:	60 91 17 24 	lds	r22, 0x2417	; 0x802417 <RPM_b+0x2>
    1c72:	70 91 18 24 	lds	r23, 0x2418	; 0x802418 <RPM_b+0x3>
    1c76:	a0 e0       	ldi	r26, 0x00	; 0
    1c78:	b0 e0       	ldi	r27, 0x00	; 0
    1c7a:	84 1b       	sub	r24, r20
    1c7c:	95 0b       	sbc	r25, r21
    1c7e:	a6 0b       	sbc	r26, r22
    1c80:	b7 0b       	sbc	r27, r23
    1c82:	8d 8b       	std	Y+21, r24	; 0x15
    1c84:	9e 8b       	std	Y+22, r25	; 0x16
    1c86:	af 8b       	std	Y+23, r26	; 0x17
    1c88:	b8 8f       	std	Y+24, r27	; 0x18
    1c8a:	cd 88       	ldd	r12, Y+21	; 0x15
    1c8c:	de 88       	ldd	r13, Y+22	; 0x16
    1c8e:	ef 88       	ldd	r14, Y+23	; 0x17
    1c90:	f8 8c       	ldd	r15, Y+24	; 0x18
    1c92:	cc 0c       	add	r12, r12
    1c94:	dd 1c       	adc	r13, r13
    1c96:	ee 1c       	adc	r14, r14
    1c98:	ff 1c       	adc	r15, r15
    1c9a:	cc 0c       	add	r12, r12
    1c9c:	dd 1c       	adc	r13, r13
    1c9e:	ee 1c       	adc	r14, r14
    1ca0:	ff 1c       	adc	r15, r15
    1ca2:	cc 0c       	add	r12, r12
    1ca4:	dd 1c       	adc	r13, r13
    1ca6:	ee 1c       	adc	r14, r14
    1ca8:	ff 1c       	adc	r15, r15
    1caa:	cc 0c       	add	r12, r12
    1cac:	dd 1c       	adc	r13, r13
    1cae:	ee 1c       	adc	r14, r14
    1cb0:	ff 1c       	adc	r15, r15
    1cb2:	cc 0c       	add	r12, r12
    1cb4:	dd 1c       	adc	r13, r13
    1cb6:	ee 1c       	adc	r14, r14
    1cb8:	ff 1c       	adc	r15, r15
    1cba:	60 91 0f 21 	lds	r22, 0x210F	; 0x80210f <I_Anteil_speed_b>
    1cbe:	70 91 10 21 	lds	r23, 0x2110	; 0x802110 <I_Anteil_speed_b+0x1>
    1cc2:	80 91 11 21 	lds	r24, 0x2111	; 0x802111 <I_Anteil_speed_b+0x2>
    1cc6:	90 91 12 21 	lds	r25, 0x2112	; 0x802112 <I_Anteil_speed_b+0x3>
    1cca:	2d e7       	ldi	r18, 0x7D	; 125
    1ccc:	30 e0       	ldi	r19, 0x00	; 0
    1cce:	40 e0       	ldi	r20, 0x00	; 0
    1cd0:	50 e0       	ldi	r21, 0x00	; 0
    1cd2:	0e 94 0f 3b 	call	0x761e	; 0x761e <__udivmodsi4>
    1cd6:	c7 01       	movw	r24, r14
    1cd8:	b6 01       	movw	r22, r12
    1cda:	0e 94 31 3b 	call	0x7662	; 0x7662 <__divmodsi4>
    1cde:	29 8b       	std	Y+17, r18	; 0x11
    1ce0:	3a 8b       	std	Y+18, r19	; 0x12
    1ce2:	4b 8b       	std	Y+19, r20	; 0x13
    1ce4:	5c 8b       	std	Y+20, r21	; 0x14
    1ce6:	80 91 2a 09 	lds	r24, 0x092A	; 0x80092a <__TEXT_REGION_LENGTH__+0x70092a>
    1cea:	90 91 2b 09 	lds	r25, 0x092B	; 0x80092b <__TEXT_REGION_LENGTH__+0x70092b>
    1cee:	49 89       	ldd	r20, Y+17	; 0x11
    1cf0:	5a 89       	ldd	r21, Y+18	; 0x12
    1cf2:	6b 89       	ldd	r22, Y+19	; 0x13
    1cf4:	7c 89       	ldd	r23, Y+20	; 0x14
    1cf6:	a0 e0       	ldi	r26, 0x00	; 0
    1cf8:	b0 e0       	ldi	r27, 0x00	; 0
    1cfa:	84 1b       	sub	r24, r20
    1cfc:	95 0b       	sbc	r25, r21
    1cfe:	a6 0b       	sbc	r26, r22
    1d00:	b7 0b       	sbc	r27, r23
    1d02:	8d 87       	std	Y+13, r24	; 0x0d
    1d04:	9e 87       	std	Y+14, r25	; 0x0e
    1d06:	af 87       	std	Y+15, r26	; 0x0f
    1d08:	b8 8b       	std	Y+16, r27	; 0x10
    1d0a:	8d 85       	ldd	r24, Y+13	; 0x0d
    1d0c:	9e 85       	ldd	r25, Y+14	; 0x0e
    1d0e:	af 85       	ldd	r26, Y+15	; 0x0f
    1d10:	b8 89       	ldd	r27, Y+16	; 0x10
    1d12:	bb 23       	and	r27, r27
    1d14:	24 f4       	brge	.+8      	; 0x1d1e <_Z9regulatorv+0x382>
    1d16:	1d 86       	std	Y+13, r1	; 0x0d
    1d18:	1e 86       	std	Y+14, r1	; 0x0e
    1d1a:	1f 86       	std	Y+15, r1	; 0x0f
    1d1c:	18 8a       	std	Y+16, r1	; 0x10
    1d1e:	8d 85       	ldd	r24, Y+13	; 0x0d
    1d20:	9e 85       	ldd	r25, Y+14	; 0x0e
    1d22:	af 85       	ldd	r26, Y+15	; 0x0f
    1d24:	b8 89       	ldd	r27, Y+16	; 0x10
    1d26:	81 32       	cpi	r24, 0x21	; 33
    1d28:	93 40       	sbci	r25, 0x03	; 3
    1d2a:	a1 05       	cpc	r26, r1
    1d2c:	b1 05       	cpc	r27, r1
    1d2e:	44 f0       	brlt	.+16     	; 0x1d40 <_Z9regulatorv+0x3a4>
    1d30:	80 e2       	ldi	r24, 0x20	; 32
    1d32:	93 e0       	ldi	r25, 0x03	; 3
    1d34:	a0 e0       	ldi	r26, 0x00	; 0
    1d36:	b0 e0       	ldi	r27, 0x00	; 0
    1d38:	8d 87       	std	Y+13, r24	; 0x0d
    1d3a:	9e 87       	std	Y+14, r25	; 0x0e
    1d3c:	af 87       	std	Y+15, r26	; 0x0f
    1d3e:	b8 8b       	std	Y+16, r27	; 0x10
    1d40:	8d 85       	ldd	r24, Y+13	; 0x0d
    1d42:	9e 85       	ldd	r25, Y+14	; 0x0e
    1d44:	af 85       	ldd	r26, Y+15	; 0x0f
    1d46:	b8 89       	ldd	r27, Y+16	; 0x10
    1d48:	80 93 2a 09 	sts	0x092A, r24	; 0x80092a <__TEXT_REGION_LENGTH__+0x70092a>
    1d4c:	90 93 2b 09 	sts	0x092B, r25	; 0x80092b <__TEXT_REGION_LENGTH__+0x70092b>
    1d50:	8d 85       	ldd	r24, Y+13	; 0x0d
    1d52:	9e 85       	ldd	r25, Y+14	; 0x0e
    1d54:	af 85       	ldd	r26, Y+15	; 0x0f
    1d56:	b8 89       	ldd	r27, Y+16	; 0x10
    1d58:	81 15       	cp	r24, r1
    1d5a:	93 40       	sbci	r25, 0x03	; 3
    1d5c:	a1 05       	cpc	r26, r1
    1d5e:	b1 05       	cpc	r27, r1
    1d60:	4c f0       	brlt	.+18     	; 0x1d74 <_Z9regulatorv+0x3d8>
    1d62:	80 91 23 21 	lds	r24, 0x2123	; 0x802123 <Sollwert_b>
    1d66:	90 91 24 21 	lds	r25, 0x2124	; 0x802124 <Sollwert_b+0x1>
    1d6a:	02 97       	sbiw	r24, 0x02	; 2
    1d6c:	80 93 23 21 	sts	0x2123, r24	; 0x802123 <Sollwert_b>
    1d70:	90 93 24 21 	sts	0x2124, r25	; 0x802124 <Sollwert_b+0x1>
    1d74:	8d 85       	ldd	r24, Y+13	; 0x0d
    1d76:	9e 85       	ldd	r25, Y+14	; 0x0e
    1d78:	af 85       	ldd	r26, Y+15	; 0x0f
    1d7a:	b8 89       	ldd	r27, Y+16	; 0x10
    1d7c:	8a 3f       	cpi	r24, 0xFA	; 250
    1d7e:	91 05       	cpc	r25, r1
    1d80:	a1 05       	cpc	r26, r1
    1d82:	b1 05       	cpc	r27, r1
    1d84:	4c f4       	brge	.+18     	; 0x1d98 <_Z9regulatorv+0x3fc>
    1d86:	80 91 23 21 	lds	r24, 0x2123	; 0x802123 <Sollwert_b>
    1d8a:	90 91 24 21 	lds	r25, 0x2124	; 0x802124 <Sollwert_b+0x1>
    1d8e:	02 96       	adiw	r24, 0x02	; 2
    1d90:	80 93 23 21 	sts	0x2123, r24	; 0x802123 <Sollwert_b>
    1d94:	90 93 24 21 	sts	0x2124, r25	; 0x802124 <Sollwert_b+0x1>
    1d98:	80 91 23 21 	lds	r24, 0x2123	; 0x802123 <Sollwert_b>
    1d9c:	90 91 24 21 	lds	r25, 0x2124	; 0x802124 <Sollwert_b+0x1>
    1da0:	81 30       	cpi	r24, 0x01	; 1
    1da2:	90 41       	sbci	r25, 0x10	; 16
    1da4:	30 f0       	brcs	.+12     	; 0x1db2 <_Z9regulatorv+0x416>
    1da6:	80 e0       	ldi	r24, 0x00	; 0
    1da8:	90 e1       	ldi	r25, 0x10	; 16
    1daa:	80 93 23 21 	sts	0x2123, r24	; 0x802123 <Sollwert_b>
    1dae:	90 93 24 21 	sts	0x2124, r25	; 0x802124 <Sollwert_b+0x1>
    1db2:	80 91 23 21 	lds	r24, 0x2123	; 0x802123 <Sollwert_b>
    1db6:	90 91 24 21 	lds	r25, 0x2124	; 0x802124 <Sollwert_b+0x1>
    1dba:	85 3a       	cpi	r24, 0xA5	; 165
    1dbc:	95 40       	sbci	r25, 0x05	; 5
    1dbe:	30 f4       	brcc	.+12     	; 0x1dcc <_Z9regulatorv+0x430>
    1dc0:	85 ea       	ldi	r24, 0xA5	; 165
    1dc2:	95 e0       	ldi	r25, 0x05	; 5
    1dc4:	80 93 23 21 	sts	0x2123, r24	; 0x802123 <Sollwert_b>
    1dc8:	90 93 24 21 	sts	0x2124, r25	; 0x802124 <Sollwert_b+0x1>
    1dcc:	80 91 23 21 	lds	r24, 0x2123	; 0x802123 <Sollwert_b>
    1dd0:	90 91 24 21 	lds	r25, 0x2124	; 0x802124 <Sollwert_b+0x1>
    1dd4:	20 91 27 21 	lds	r18, 0x2127	; 0x802127 <ADC_Value_b>
    1dd8:	30 91 28 21 	lds	r19, 0x2128	; 0x802128 <ADC_Value_b+0x1>
    1ddc:	a0 e0       	ldi	r26, 0x00	; 0
    1dde:	b0 e0       	ldi	r27, 0x00	; 0
    1de0:	82 1b       	sub	r24, r18
    1de2:	93 0b       	sbc	r25, r19
    1de4:	a1 09       	sbc	r26, r1
    1de6:	b1 09       	sbc	r27, r1
    1de8:	89 87       	std	Y+9, r24	; 0x09
    1dea:	9a 87       	std	Y+10, r25	; 0x0a
    1dec:	ab 87       	std	Y+11, r26	; 0x0b
    1dee:	bc 87       	std	Y+12, r27	; 0x0c
    1df0:	c9 84       	ldd	r12, Y+9	; 0x09
    1df2:	da 84       	ldd	r13, Y+10	; 0x0a
    1df4:	eb 84       	ldd	r14, Y+11	; 0x0b
    1df6:	fc 84       	ldd	r15, Y+12	; 0x0c
    1df8:	cc 0c       	add	r12, r12
    1dfa:	dd 1c       	adc	r13, r13
    1dfc:	ee 1c       	adc	r14, r14
    1dfe:	ff 1c       	adc	r15, r15
    1e00:	cc 0c       	add	r12, r12
    1e02:	dd 1c       	adc	r13, r13
    1e04:	ee 1c       	adc	r14, r14
    1e06:	ff 1c       	adc	r15, r15
    1e08:	cc 0c       	add	r12, r12
    1e0a:	dd 1c       	adc	r13, r13
    1e0c:	ee 1c       	adc	r14, r14
    1e0e:	ff 1c       	adc	r15, r15
    1e10:	cc 0c       	add	r12, r12
    1e12:	dd 1c       	adc	r13, r13
    1e14:	ee 1c       	adc	r14, r14
    1e16:	ff 1c       	adc	r15, r15
    1e18:	cc 0c       	add	r12, r12
    1e1a:	dd 1c       	adc	r13, r13
    1e1c:	ee 1c       	adc	r14, r14
    1e1e:	ff 1c       	adc	r15, r15
    1e20:	60 91 13 21 	lds	r22, 0x2113	; 0x802113 <I_Anteil_b>
    1e24:	70 91 14 21 	lds	r23, 0x2114	; 0x802114 <I_Anteil_b+0x1>
    1e28:	80 91 15 21 	lds	r24, 0x2115	; 0x802115 <I_Anteil_b+0x2>
    1e2c:	90 91 16 21 	lds	r25, 0x2116	; 0x802116 <I_Anteil_b+0x3>
    1e30:	2d e7       	ldi	r18, 0x7D	; 125
    1e32:	30 e0       	ldi	r19, 0x00	; 0
    1e34:	40 e0       	ldi	r20, 0x00	; 0
    1e36:	50 e0       	ldi	r21, 0x00	; 0
    1e38:	0e 94 0f 3b 	call	0x761e	; 0x761e <__udivmodsi4>
    1e3c:	c7 01       	movw	r24, r14
    1e3e:	b6 01       	movw	r22, r12
    1e40:	0e 94 31 3b 	call	0x7662	; 0x7662 <__divmodsi4>
    1e44:	2d 83       	std	Y+5, r18	; 0x05
    1e46:	3e 83       	std	Y+6, r19	; 0x06
    1e48:	4f 83       	std	Y+7, r20	; 0x07
    1e4a:	58 87       	std	Y+8, r21	; 0x08
    1e4c:	20 91 28 08 	lds	r18, 0x0828	; 0x800828 <__TEXT_REGION_LENGTH__+0x700828>
    1e50:	30 91 29 08 	lds	r19, 0x0829	; 0x800829 <__TEXT_REGION_LENGTH__+0x700829>
    1e54:	8d 81       	ldd	r24, Y+5	; 0x05
    1e56:	9e 81       	ldd	r25, Y+6	; 0x06
    1e58:	af 81       	ldd	r26, Y+7	; 0x07
    1e5a:	b8 85       	ldd	r27, Y+8	; 0x08
    1e5c:	82 0f       	add	r24, r18
    1e5e:	93 1f       	adc	r25, r19
    1e60:	a1 1d       	adc	r26, r1
    1e62:	b1 1d       	adc	r27, r1
    1e64:	89 83       	std	Y+1, r24	; 0x01
    1e66:	9a 83       	std	Y+2, r25	; 0x02
    1e68:	ab 83       	std	Y+3, r26	; 0x03
    1e6a:	bc 83       	std	Y+4, r27	; 0x04
    1e6c:	89 81       	ldd	r24, Y+1	; 0x01
    1e6e:	9a 81       	ldd	r25, Y+2	; 0x02
    1e70:	ab 81       	ldd	r26, Y+3	; 0x03
    1e72:	bc 81       	ldd	r27, Y+4	; 0x04
    1e74:	81 15       	cp	r24, r1
    1e76:	92 40       	sbci	r25, 0x02	; 2
    1e78:	a1 05       	cpc	r26, r1
    1e7a:	b1 05       	cpc	r27, r1
    1e7c:	84 f5       	brge	.+96     	; 0x1ede <_Z9regulatorv+0x542>
    1e7e:	89 81       	ldd	r24, Y+1	; 0x01
    1e80:	9a 81       	ldd	r25, Y+2	; 0x02
    1e82:	ab 81       	ldd	r26, Y+3	; 0x03
    1e84:	bc 81       	ldd	r27, Y+4	; 0x04
    1e86:	18 16       	cp	r1, r24
    1e88:	19 06       	cpc	r1, r25
    1e8a:	1a 06       	cpc	r1, r26
    1e8c:	1b 06       	cpc	r1, r27
    1e8e:	74 f1       	brlt	.+92     	; 0x1eec <_Z9regulatorv+0x550>
    1e90:	26 c0       	rjmp	.+76     	; 0x1ede <_Z9regulatorv+0x542>
    1e92:	10 92 28 08 	sts	0x0828, r1	; 0x800828 <__TEXT_REGION_LENGTH__+0x700828>
    1e96:	10 92 29 08 	sts	0x0829, r1	; 0x800829 <__TEXT_REGION_LENGTH__+0x700829>
    1e9a:	30 c0       	rjmp	.+96     	; 0x1efc <_Z9regulatorv+0x560>
    1e9c:	8f ef       	ldi	r24, 0xFF	; 255
    1e9e:	91 e0       	ldi	r25, 0x01	; 1
    1ea0:	80 93 28 08 	sts	0x0828, r24	; 0x800828 <__TEXT_REGION_LENGTH__+0x700828>
    1ea4:	90 93 29 08 	sts	0x0829, r25	; 0x800829 <__TEXT_REGION_LENGTH__+0x700829>
    1ea8:	29 c0       	rjmp	.+82     	; 0x1efc <_Z9regulatorv+0x560>
    1eaa:	10 92 2a 09 	sts	0x092A, r1	; 0x80092a <__TEXT_REGION_LENGTH__+0x70092a>
    1eae:	10 92 2b 09 	sts	0x092B, r1	; 0x80092b <__TEXT_REGION_LENGTH__+0x70092b>
    1eb2:	10 92 28 08 	sts	0x0828, r1	; 0x800828 <__TEXT_REGION_LENGTH__+0x700828>
    1eb6:	10 92 29 08 	sts	0x0829, r1	; 0x800829 <__TEXT_REGION_LENGTH__+0x700829>
    1eba:	20 c0       	rjmp	.+64     	; 0x1efc <_Z9regulatorv+0x560>
    1ebc:	8d 8d       	ldd	r24, Y+29	; 0x1d
    1ebe:	9e 8d       	ldd	r25, Y+30	; 0x1e
    1ec0:	af 8d       	ldd	r26, Y+31	; 0x1f
    1ec2:	b8 a1       	ldd	r27, Y+32	; 0x20
    1ec4:	80 93 2a 08 	sts	0x082A, r24	; 0x80082a <__TEXT_REGION_LENGTH__+0x70082a>
    1ec8:	90 93 2b 08 	sts	0x082B, r25	; 0x80082b <__TEXT_REGION_LENGTH__+0x70082b>
    1ecc:	b5 ce       	rjmp	.-662    	; 0x1c38 <_Z9regulatorv+0x29c>
    1ece:	89 8d       	ldd	r24, Y+25	; 0x19
    1ed0:	9a 8d       	ldd	r25, Y+26	; 0x1a
    1ed2:	ab 8d       	ldd	r26, Y+27	; 0x1b
    1ed4:	bc 8d       	ldd	r27, Y+28	; 0x1c
    1ed6:	bb 23       	and	r27, r27
    1ed8:	0c f0       	brlt	.+2      	; 0x1edc <_Z9regulatorv+0x540>
    1eda:	9f ce       	rjmp	.-706    	; 0x1c1a <_Z9regulatorv+0x27e>
    1edc:	99 ce       	rjmp	.-718    	; 0x1c10 <_Z9regulatorv+0x274>
    1ede:	8d 81       	ldd	r24, Y+5	; 0x05
    1ee0:	9e 81       	ldd	r25, Y+6	; 0x06
    1ee2:	af 81       	ldd	r26, Y+7	; 0x07
    1ee4:	b8 85       	ldd	r27, Y+8	; 0x08
    1ee6:	bb 23       	and	r27, r27
    1ee8:	cc f6       	brge	.-78     	; 0x1e9c <_Z9regulatorv+0x500>
    1eea:	d3 cf       	rjmp	.-90     	; 0x1e92 <_Z9regulatorv+0x4f6>
    1eec:	89 81       	ldd	r24, Y+1	; 0x01
    1eee:	9a 81       	ldd	r25, Y+2	; 0x02
    1ef0:	ab 81       	ldd	r26, Y+3	; 0x03
    1ef2:	bc 81       	ldd	r27, Y+4	; 0x04
    1ef4:	80 93 28 08 	sts	0x0828, r24	; 0x800828 <__TEXT_REGION_LENGTH__+0x700828>
    1ef8:	90 93 29 08 	sts	0x0829, r25	; 0x800829 <__TEXT_REGION_LENGTH__+0x700829>
    1efc:	a8 96       	adiw	r28, 0x28	; 40
    1efe:	cd bf       	out	0x3d, r28	; 61
    1f00:	de bf       	out	0x3e, r29	; 62
    1f02:	df 91       	pop	r29
    1f04:	cf 91       	pop	r28
    1f06:	ff 90       	pop	r15
    1f08:	ef 90       	pop	r14
    1f0a:	df 90       	pop	r13
    1f0c:	cf 90       	pop	r12
    1f0e:	08 95       	ret

00001f10 <_Z9Blink_LEDP11PORT_structhhh>:
    1f10:	cf 93       	push	r28
    1f12:	df 93       	push	r29
    1f14:	00 d0       	rcall	.+0      	; 0x1f16 <_Z9Blink_LEDP11PORT_structhhh+0x6>
    1f16:	cd b7       	in	r28, 0x3d	; 61
    1f18:	de b7       	in	r29, 0x3e	; 62
    1f1a:	19 82       	std	Y+1, r1	; 0x01
    1f1c:	dc 01       	movw	r26, r24
    1f1e:	14 96       	adiw	r26, 0x04	; 4
    1f20:	ec 91       	ld	r30, X
    1f22:	f0 e0       	ldi	r31, 0x00	; 0
    1f24:	06 2e       	mov	r0, r22
    1f26:	02 c0       	rjmp	.+4      	; 0x1f2c <_Z9Blink_LEDP11PORT_structhhh+0x1c>
    1f28:	f5 95       	asr	r31
    1f2a:	e7 95       	ror	r30
    1f2c:	0a 94       	dec	r0
    1f2e:	e2 f7       	brpl	.-8      	; 0x1f28 <_Z9Blink_LEDP11PORT_structhhh+0x18>
    1f30:	e0 ff       	sbrs	r30, 0
    1f32:	02 c0       	rjmp	.+4      	; 0x1f38 <_Z9Blink_LEDP11PORT_structhhh+0x28>
    1f34:	31 e0       	ldi	r19, 0x01	; 1
    1f36:	39 83       	std	Y+1, r19	; 0x01
    1f38:	1a 82       	std	Y+2, r1	; 0x02
    1f3a:	24 23       	and	r18, r20
    1f3c:	11 f0       	breq	.+4      	; 0x1f42 <_Z9Blink_LEDP11PORT_structhhh+0x32>
    1f3e:	21 e0       	ldi	r18, 0x01	; 1
    1f40:	2a 83       	std	Y+2, r18	; 0x02
    1f42:	39 81       	ldd	r19, Y+1	; 0x01
    1f44:	2a 81       	ldd	r18, Y+2	; 0x02
    1f46:	32 17       	cp	r19, r18
    1f48:	49 f0       	breq	.+18     	; 0x1f5c <_Z9Blink_LEDP11PORT_structhhh+0x4c>
    1f4a:	21 e0       	ldi	r18, 0x01	; 1
    1f4c:	30 e0       	ldi	r19, 0x00	; 0
    1f4e:	02 c0       	rjmp	.+4      	; 0x1f54 <_Z9Blink_LEDP11PORT_structhhh+0x44>
    1f50:	22 0f       	add	r18, r18
    1f52:	33 1f       	adc	r19, r19
    1f54:	6a 95       	dec	r22
    1f56:	e2 f7       	brpl	.-8      	; 0x1f50 <_Z9Blink_LEDP11PORT_structhhh+0x40>
    1f58:	fc 01       	movw	r30, r24
    1f5a:	27 83       	std	Z+7, r18	; 0x07
    1f5c:	0f 90       	pop	r0
    1f5e:	0f 90       	pop	r0
    1f60:	df 91       	pop	r29
    1f62:	cf 91       	pop	r28
    1f64:	08 95       	ret

00001f66 <_Z9info_datajPcPb>:
    1f66:	0f 93       	push	r16
    1f68:	1f 93       	push	r17
    1f6a:	cf 93       	push	r28
    1f6c:	df 93       	push	r29
    1f6e:	fa 01       	movw	r30, r20
    1f70:	20 81       	ld	r18, Z
    1f72:	22 23       	and	r18, r18
    1f74:	e1 f1       	breq	.+120    	; 0x1fee <_Z9info_datajPcPb+0x88>
    1f76:	eb 01       	movw	r28, r22
    1f78:	8c 01       	movw	r16, r24
    1f7a:	10 82       	st	Z, r1
    1f7c:	80 91 25 23 	lds	r24, 0x2325	; 0x802325 <port_expander_present>
    1f80:	0e 94 85 06 	call	0xd0a	; 0xd0a <_Z10lcd_clrscrb>
    1f84:	40 91 25 23 	lds	r20, 0x2325	; 0x802325 <port_expander_present>
    1f88:	60 e0       	ldi	r22, 0x00	; 0
    1f8a:	81 e0       	ldi	r24, 0x01	; 1
    1f8c:	0e 94 0f 06 	call	0xc1e	; 0xc1e <_Z10lcd_gotoxyhhb>
    1f90:	83 e5       	ldi	r24, 0x53	; 83
    1f92:	91 e2       	ldi	r25, 0x21	; 33
    1f94:	0e 94 9d 0a 	call	0x153a	; 0x153a <_Z8lcd_putsPKc>
    1f98:	40 91 25 23 	lds	r20, 0x2325	; 0x802325 <port_expander_present>
    1f9c:	61 e0       	ldi	r22, 0x01	; 1
    1f9e:	81 e0       	ldi	r24, 0x01	; 1
    1fa0:	0e 94 0f 06 	call	0xc1e	; 0xc1e <_Z10lcd_gotoxyhhb>
    1fa4:	88 e5       	ldi	r24, 0x58	; 88
    1fa6:	91 e2       	ldi	r25, 0x21	; 33
    1fa8:	0e 94 9d 0a 	call	0x153a	; 0x153a <_Z8lcd_putsPKc>
    1fac:	0a 30       	cpi	r16, 0x0A	; 10
    1fae:	11 05       	cpc	r17, r1
    1fb0:	20 f4       	brcc	.+8      	; 0x1fba <_Z9info_datajPcPb+0x54>
    1fb2:	8b ed       	ldi	r24, 0xDB	; 219
    1fb4:	91 e2       	ldi	r25, 0x21	; 33
    1fb6:	0e 94 9d 0a 	call	0x153a	; 0x153a <_Z8lcd_putsPKc>
    1fba:	4a e0       	ldi	r20, 0x0A	; 10
    1fbc:	be 01       	movw	r22, r28
    1fbe:	c8 01       	movw	r24, r16
    1fc0:	0e 94 b7 3b 	call	0x776e	; 0x776e <__utoa_ncheck>
    1fc4:	ce 01       	movw	r24, r28
    1fc6:	0e 94 9d 0a 	call	0x153a	; 0x153a <_Z8lcd_putsPKc>
    1fca:	83 e6       	ldi	r24, 0x63	; 99
    1fcc:	91 e2       	ldi	r25, 0x21	; 33
    1fce:	0e 94 9d 0a 	call	0x153a	; 0x153a <_Z8lcd_putsPKc>
    1fd2:	40 91 25 23 	lds	r20, 0x2325	; 0x802325 <port_expander_present>
    1fd6:	62 e0       	ldi	r22, 0x02	; 2
    1fd8:	81 e0       	ldi	r24, 0x01	; 1
    1fda:	0e 94 0f 06 	call	0xc1e	; 0xc1e <_Z10lcd_gotoxyhhb>
    1fde:	86 e6       	ldi	r24, 0x66	; 102
    1fe0:	91 e2       	ldi	r25, 0x21	; 33
    1fe2:	0e 94 9d 0a 	call	0x153a	; 0x153a <_Z8lcd_putsPKc>
    1fe6:	8e e6       	ldi	r24, 0x6E	; 110
    1fe8:	91 e2       	ldi	r25, 0x21	; 33
    1fea:	0e 94 9d 0a 	call	0x153a	; 0x153a <_Z8lcd_putsPKc>
    1fee:	df 91       	pop	r29
    1ff0:	cf 91       	pop	r28
    1ff2:	1f 91       	pop	r17
    1ff4:	0f 91       	pop	r16
    1ff6:	08 95       	ret

00001ff8 <_Z8RTC_Initv>:
    1ff8:	e0 e5       	ldi	r30, 0x50	; 80
    1ffa:	f0 e0       	ldi	r31, 0x00	; 0
    1ffc:	82 e2       	ldi	r24, 0x22	; 34
    1ffe:	82 83       	std	Z+2, r24	; 0x02
    2000:	80 81       	ld	r24, Z
    2002:	88 60       	ori	r24, 0x08	; 8
    2004:	80 83       	st	Z, r24
    2006:	81 81       	ldd	r24, Z+1	; 0x01
    2008:	83 ff       	sbrs	r24, 3
    200a:	fd cf       	rjmp	.-6      	; 0x2006 <_Z8RTC_Initv+0xe>
    200c:	a0 e0       	ldi	r26, 0x00	; 0
    200e:	b4 e0       	ldi	r27, 0x04	; 4
    2010:	8f e7       	ldi	r24, 0x7F	; 127
    2012:	90 e0       	ldi	r25, 0x00	; 0
    2014:	1a 96       	adiw	r26, 0x0a	; 10
    2016:	8d 93       	st	X+, r24
    2018:	9c 93       	st	X, r25
    201a:	1b 97       	sbiw	r26, 0x0b	; 11
    201c:	e0 e4       	ldi	r30, 0x40	; 64
    201e:	f0 e0       	ldi	r31, 0x00	; 0
    2020:	83 e0       	ldi	r24, 0x03	; 3
    2022:	83 83       	std	Z+3, r24	; 0x03
    2024:	91 e0       	ldi	r25, 0x01	; 1
    2026:	9c 93       	st	X, r25
    2028:	83 83       	std	Z+3, r24	; 0x03
    202a:	e0 e0       	ldi	r30, 0x00	; 0
    202c:	f4 e0       	ldi	r31, 0x04	; 4
    202e:	81 81       	ldd	r24, Z+1	; 0x01
    2030:	80 ff       	sbrs	r24, 0
    2032:	fd cf       	rjmp	.-6      	; 0x202e <_Z8RTC_Initv+0x36>
    2034:	83 e0       	ldi	r24, 0x03	; 3
    2036:	80 93 02 04 	sts	0x0402, r24	; 0x800402 <__TEXT_REGION_LENGTH__+0x700402>
    203a:	08 95       	ret

0000203c <_Z16Config32MHzClockv>:
    203c:	cf 93       	push	r28
    203e:	df 93       	push	r29
    2040:	82 e0       	ldi	r24, 0x02	; 2
    2042:	80 93 ca 01 	sts	0x01CA, r24	; 0x8001ca <__TEXT_REGION_LENGTH__+0x7001ca>
    2046:	ec e1       	ldi	r30, 0x1C	; 28
    2048:	f0 e0       	ldi	r31, 0x00	; 0
    204a:	e4 91       	lpm	r30, Z
    204c:	10 92 ca 01 	sts	0x01CA, r1	; 0x8001ca <__TEXT_REGION_LENGTH__+0x7001ca>
    2050:	c0 e5       	ldi	r28, 0x50	; 80
    2052:	d0 e0       	ldi	r29, 0x00	; 0
    2054:	84 e0       	ldi	r24, 0x04	; 4
    2056:	8e 83       	std	Y+6, r24	; 0x06
    2058:	a0 e6       	ldi	r26, 0x60	; 96
    205a:	b0 e0       	ldi	r27, 0x00	; 0
    205c:	13 96       	adiw	r26, 0x03	; 3
    205e:	ec 93       	st	X, r30
    2060:	13 97       	sbiw	r26, 0x03	; 3
    2062:	8b e1       	ldi	r24, 0x1B	; 27
    2064:	15 96       	adiw	r26, 0x05	; 5
    2066:	8c 93       	st	X, r24
    2068:	15 97       	sbiw	r26, 0x05	; 5
    206a:	87 eb       	ldi	r24, 0xB7	; 183
    206c:	16 96       	adiw	r26, 0x06	; 6
    206e:	8c 93       	st	X, r24
    2070:	16 97       	sbiw	r26, 0x06	; 6
    2072:	81 e0       	ldi	r24, 0x01	; 1
    2074:	8c 93       	st	X, r24
    2076:	88 ed       	ldi	r24, 0xD8	; 216
    2078:	84 bf       	out	0x34, r24	; 52
    207a:	83 e0       	ldi	r24, 0x03	; 3
    207c:	88 83       	st	Y, r24
    207e:	e0 e5       	ldi	r30, 0x50	; 80
    2080:	f0 e0       	ldi	r31, 0x00	; 0
    2082:	81 81       	ldd	r24, Z+1	; 0x01
    2084:	81 ff       	sbrs	r24, 1
    2086:	fd cf       	rjmp	.-6      	; 0x2082 <_Z16Config32MHzClockv+0x46>
    2088:	e0 e5       	ldi	r30, 0x50	; 80
    208a:	f0 e0       	ldi	r31, 0x00	; 0
    208c:	80 e1       	ldi	r24, 0x10	; 16
    208e:	85 83       	std	Z+5, r24	; 0x05
    2090:	88 ed       	ldi	r24, 0xD8	; 216
    2092:	84 bf       	out	0x34, r24	; 52
    2094:	83 e1       	ldi	r24, 0x13	; 19
    2096:	80 83       	st	Z, r24
    2098:	81 81       	ldd	r24, Z+1	; 0x01
    209a:	84 ff       	sbrs	r24, 4
    209c:	fd cf       	rjmp	.-6      	; 0x2098 <_Z16Config32MHzClockv+0x5c>
    209e:	81 e0       	ldi	r24, 0x01	; 1
    20a0:	80 93 68 00 	sts	0x0068, r24	; 0x800068 <__TEXT_REGION_LENGTH__+0x700068>
    20a4:	88 ed       	ldi	r24, 0xD8	; 216
    20a6:	84 bf       	out	0x34, r24	; 52
    20a8:	84 e0       	ldi	r24, 0x04	; 4
    20aa:	80 93 40 00 	sts	0x0040, r24	; 0x800040 <__TEXT_REGION_LENGTH__+0x700040>
    20ae:	df 91       	pop	r29
    20b0:	cf 91       	pop	r28
    20b2:	08 95       	ret

000020b4 <_Z10Timer_initv>:
    20b4:	cf 93       	push	r28
    20b6:	df 93       	push	r29
    20b8:	c0 e8       	ldi	r28, 0x80	; 128
    20ba:	d1 e0       	ldi	r29, 0x01	; 1
    20bc:	8a e6       	ldi	r24, 0x6A	; 106
    20be:	88 83       	st	Y, r24
    20c0:	a0 e6       	ldi	r26, 0x60	; 96
    20c2:	b6 e0       	ldi	r27, 0x06	; 6
    20c4:	52 96       	adiw	r26, 0x12	; 18
    20c6:	8c 91       	ld	r24, X
    20c8:	52 97       	sbiw	r26, 0x12	; 18
    20ca:	81 60       	ori	r24, 0x01	; 1
    20cc:	52 96       	adiw	r26, 0x12	; 18
    20ce:	8c 93       	st	X, r24
    20d0:	52 97       	sbiw	r26, 0x12	; 18
    20d2:	e0 e4       	ldi	r30, 0x40	; 64
    20d4:	f8 e0       	ldi	r31, 0x08	; 8
    20d6:	88 ea       	ldi	r24, 0xA8	; 168
    20d8:	83 83       	std	Z+3, r24	; 0x03
    20da:	30 e1       	ldi	r19, 0x10	; 16
    20dc:	31 83       	std	Z+1, r19	; 0x01
    20de:	25 e0       	ldi	r18, 0x05	; 5
    20e0:	20 83       	st	Z, r18
    20e2:	83 e0       	ldi	r24, 0x03	; 3
    20e4:	86 83       	std	Z+6, r24	; 0x06
    20e6:	87 83       	std	Z+7, r24	; 0x07
    20e8:	9b e6       	ldi	r25, 0x6B	; 107
    20ea:	9d 83       	std	Y+5, r25	; 0x05
    20ec:	53 96       	adiw	r26, 0x13	; 19
    20ee:	9c 91       	ld	r25, X
    20f0:	53 97       	sbiw	r26, 0x13	; 19
    20f2:	91 60       	ori	r25, 0x01	; 1
    20f4:	53 96       	adiw	r26, 0x13	; 19
    20f6:	9c 93       	st	X, r25
    20f8:	e0 e4       	ldi	r30, 0x40	; 64
    20fa:	f9 e0       	ldi	r31, 0x09	; 9
    20fc:	9d ea       	ldi	r25, 0xAD	; 173
    20fe:	93 83       	std	Z+3, r25	; 0x03
    2100:	31 83       	std	Z+1, r19	; 0x01
    2102:	20 83       	st	Z, r18
    2104:	86 83       	std	Z+6, r24	; 0x06
    2106:	87 83       	std	Z+7, r24	; 0x07
    2108:	e0 e0       	ldi	r30, 0x00	; 0
    210a:	f8 e0       	ldi	r31, 0x08	; 8
    210c:	93 e3       	ldi	r25, 0x33	; 51
    210e:	91 83       	std	Z+1, r25	; 0x01
    2110:	81 e0       	ldi	r24, 0x01	; 1
    2112:	80 83       	st	Z, r24
    2114:	2f ef       	ldi	r18, 0xFF	; 255
    2116:	31 e0       	ldi	r19, 0x01	; 1
    2118:	26 a3       	std	Z+38, r18	; 0x26
    211a:	37 a3       	std	Z+39, r19	; 0x27
    211c:	e0 e0       	ldi	r30, 0x00	; 0
    211e:	f9 e0       	ldi	r31, 0x09	; 9
    2120:	80 83       	st	Z, r24
    2122:	91 83       	std	Z+1, r25	; 0x01
    2124:	28 ee       	ldi	r18, 0xE8	; 232
    2126:	33 e0       	ldi	r19, 0x03	; 3
    2128:	26 a3       	std	Z+38, r18	; 0x26
    212a:	37 a3       	std	Z+39, r19	; 0x27
    212c:	e0 e0       	ldi	r30, 0x00	; 0
    212e:	fa e0       	ldi	r31, 0x0A	; 10
    2130:	20 e0       	ldi	r18, 0x00	; 0
    2132:	30 e1       	ldi	r19, 0x10	; 16
    2134:	26 a3       	std	Z+38, r18	; 0x26
    2136:	37 a3       	std	Z+39, r19	; 0x27
    2138:	86 83       	std	Z+6, r24	; 0x06
    213a:	84 e0       	ldi	r24, 0x04	; 4
    213c:	80 83       	st	Z, r24
    213e:	df 91       	pop	r29
    2140:	cf 91       	pop	r28
    2142:	08 95       	ret

00002144 <_Z11encode_initv>:
    2144:	80 91 08 06 	lds	r24, 0x0608	; 0x800608 <__TEXT_REGION_LENGTH__+0x700608>
    2148:	82 ff       	sbrs	r24, 2
    214a:	02 c0       	rjmp	.+4      	; 0x2150 <_Z11encode_initv+0xc>
    214c:	83 e0       	ldi	r24, 0x03	; 3
    214e:	01 c0       	rjmp	.+2      	; 0x2152 <_Z11encode_initv+0xe>
    2150:	80 e0       	ldi	r24, 0x00	; 0
    2152:	90 91 08 06 	lds	r25, 0x0608	; 0x800608 <__TEXT_REGION_LENGTH__+0x700608>
    2156:	93 ff       	sbrs	r25, 3
    2158:	02 c0       	rjmp	.+4      	; 0x215e <_Z11encode_initv+0x1a>
    215a:	91 e0       	ldi	r25, 0x01	; 1
    215c:	89 27       	eor	r24, r25
    215e:	80 93 12 24 	sts	0x2412, r24	; 0x802412 <_ZL4last>
    2162:	10 92 13 24 	sts	0x2413, r1	; 0x802413 <enc_delta>
    2166:	08 95       	ret

00002168 <_Z12encode_read2v>:
    2168:	80 91 06 21 	lds	r24, 0x2106	; 0x802106 <type_of_encoder>
    216c:	82 30       	cpi	r24, 0x02	; 2
    216e:	59 f0       	breq	.+22     	; 0x2186 <_Z12encode_read2v+0x1e>
    2170:	84 30       	cpi	r24, 0x04	; 4
    2172:	99 f0       	breq	.+38     	; 0x219a <_Z12encode_read2v+0x32>
    2174:	81 30       	cpi	r24, 0x01	; 1
    2176:	e1 f4       	brne	.+56     	; 0x21b0 <_Z12encode_read2v+0x48>
    2178:	f8 94       	cli
    217a:	80 91 13 24 	lds	r24, 0x2413	; 0x802413 <enc_delta>
    217e:	10 92 13 24 	sts	0x2413, r1	; 0x802413 <enc_delta>
    2182:	78 94       	sei
    2184:	08 95       	ret
    2186:	f8 94       	cli
    2188:	80 91 13 24 	lds	r24, 0x2413	; 0x802413 <enc_delta>
    218c:	98 2f       	mov	r25, r24
    218e:	91 70       	andi	r25, 0x01	; 1
    2190:	90 93 13 24 	sts	0x2413, r25	; 0x802413 <enc_delta>
    2194:	78 94       	sei
    2196:	85 95       	asr	r24
    2198:	08 95       	ret
    219a:	f8 94       	cli
    219c:	80 91 13 24 	lds	r24, 0x2413	; 0x802413 <enc_delta>
    21a0:	98 2f       	mov	r25, r24
    21a2:	93 70       	andi	r25, 0x03	; 3
    21a4:	90 93 13 24 	sts	0x2413, r25	; 0x802413 <enc_delta>
    21a8:	78 94       	sei
    21aa:	85 95       	asr	r24
    21ac:	85 95       	asr	r24
    21ae:	08 95       	ret
    21b0:	f8 94       	cli
    21b2:	80 91 13 24 	lds	r24, 0x2413	; 0x802413 <enc_delta>
    21b6:	98 2f       	mov	r25, r24
    21b8:	93 70       	andi	r25, 0x03	; 3
    21ba:	90 93 13 24 	sts	0x2413, r25	; 0x802413 <enc_delta>
    21be:	78 94       	sei
    21c0:	85 95       	asr	r24
    21c2:	85 95       	asr	r24
    21c4:	08 95       	ret

000021c6 <_Z25change_parameter_settingsP20regulator_parametersbPhPcPbS1_>:
    21c6:	4f 92       	push	r4
    21c8:	5f 92       	push	r5
    21ca:	6f 92       	push	r6
    21cc:	7f 92       	push	r7
    21ce:	9f 92       	push	r9
    21d0:	af 92       	push	r10
    21d2:	bf 92       	push	r11
    21d4:	cf 92       	push	r12
    21d6:	df 92       	push	r13
    21d8:	ef 92       	push	r14
    21da:	ff 92       	push	r15
    21dc:	0f 93       	push	r16
    21de:	1f 93       	push	r17
    21e0:	cf 93       	push	r28
    21e2:	df 93       	push	r29
    21e4:	ec 01       	movw	r28, r24
    21e6:	96 2e       	mov	r9, r22
    21e8:	5a 01       	movw	r10, r20
    21ea:	69 01       	movw	r12, r18
    21ec:	f8 01       	movw	r30, r16
    21ee:	80 81       	ld	r24, Z
    21f0:	88 23       	and	r24, r24
    21f2:	09 f4       	brne	.+2      	; 0x21f6 <_Z25change_parameter_settingsP20regulator_parametersbPhPcPbS1_+0x30>
    21f4:	26 c1       	rjmp	.+588    	; 0x2442 <_Z25change_parameter_settingsP20regulator_parametersbPhPcPbS1_+0x27c>
    21f6:	10 82       	st	Z, r1
    21f8:	80 91 25 23 	lds	r24, 0x2325	; 0x802325 <port_expander_present>
    21fc:	0e 94 85 06 	call	0xd0a	; 0xd0a <_Z10lcd_clrscrb>
    2200:	40 91 25 23 	lds	r20, 0x2325	; 0x802325 <port_expander_present>
    2204:	60 e0       	ldi	r22, 0x00	; 0
    2206:	81 e0       	ldi	r24, 0x01	; 1
    2208:	0e 94 0f 06 	call	0xc1e	; 0xc1e <_Z10lcd_gotoxyhhb>
    220c:	99 20       	and	r9, r9
    220e:	29 f0       	breq	.+10     	; 0x221a <_Z25change_parameter_settingsP20regulator_parametersbPhPcPbS1_+0x54>
    2210:	83 e7       	ldi	r24, 0x73	; 115
    2212:	91 e2       	ldi	r25, 0x21	; 33
    2214:	0e 94 9d 0a 	call	0x153a	; 0x153a <_Z8lcd_putsPKc>
    2218:	04 c0       	rjmp	.+8      	; 0x2222 <_Z25change_parameter_settingsP20regulator_parametersbPhPcPbS1_+0x5c>
    221a:	87 e8       	ldi	r24, 0x87	; 135
    221c:	91 e2       	ldi	r25, 0x21	; 33
    221e:	0e 94 9d 0a 	call	0x153a	; 0x153a <_Z8lcd_putsPKc>
    2222:	40 91 25 23 	lds	r20, 0x2325	; 0x802325 <port_expander_present>
    2226:	61 e0       	ldi	r22, 0x01	; 1
    2228:	81 e0       	ldi	r24, 0x01	; 1
    222a:	0e 94 0f 06 	call	0xc1e	; 0xc1e <_Z10lcd_gotoxyhhb>
    222e:	8c e9       	ldi	r24, 0x9C	; 156
    2230:	91 e2       	ldi	r25, 0x21	; 33
    2232:	0e 94 9d 0a 	call	0x153a	; 0x153a <_Z8lcd_putsPKc>
    2236:	8c 81       	ldd	r24, Y+4	; 0x04
    2238:	9d 81       	ldd	r25, Y+5	; 0x05
    223a:	ae 81       	ldd	r26, Y+6	; 0x06
    223c:	bf 81       	ldd	r27, Y+7	; 0x07
    223e:	80 34       	cpi	r24, 0x40	; 64
    2240:	92 44       	sbci	r25, 0x42	; 66
    2242:	af 40       	sbci	r26, 0x0F	; 15
    2244:	b1 05       	cpc	r27, r1
    2246:	20 f4       	brcc	.+8      	; 0x2250 <_Z25change_parameter_settingsP20regulator_parametersbPhPcPbS1_+0x8a>
    2248:	8b ed       	ldi	r24, 0xDB	; 219
    224a:	91 e2       	ldi	r25, 0x21	; 33
    224c:	0e 94 9d 0a 	call	0x153a	; 0x153a <_Z8lcd_putsPKc>
    2250:	8c 81       	ldd	r24, Y+4	; 0x04
    2252:	9d 81       	ldd	r25, Y+5	; 0x05
    2254:	ae 81       	ldd	r26, Y+6	; 0x06
    2256:	bf 81       	ldd	r27, Y+7	; 0x07
    2258:	80 31       	cpi	r24, 0x10	; 16
    225a:	97 42       	sbci	r25, 0x27	; 39
    225c:	a1 05       	cpc	r26, r1
    225e:	b1 05       	cpc	r27, r1
    2260:	20 f4       	brcc	.+8      	; 0x226a <_Z25change_parameter_settingsP20regulator_parametersbPhPcPbS1_+0xa4>
    2262:	8b ed       	ldi	r24, 0xDB	; 219
    2264:	91 e2       	ldi	r25, 0x21	; 33
    2266:	0e 94 9d 0a 	call	0x153a	; 0x153a <_Z8lcd_putsPKc>
    226a:	8c 81       	ldd	r24, Y+4	; 0x04
    226c:	9d 81       	ldd	r25, Y+5	; 0x05
    226e:	ae 81       	ldd	r26, Y+6	; 0x06
    2270:	bf 81       	ldd	r27, Y+7	; 0x07
    2272:	88 3e       	cpi	r24, 0xE8	; 232
    2274:	93 40       	sbci	r25, 0x03	; 3
    2276:	a1 05       	cpc	r26, r1
    2278:	b1 05       	cpc	r27, r1
    227a:	20 f4       	brcc	.+8      	; 0x2284 <_Z25change_parameter_settingsP20regulator_parametersbPhPcPbS1_+0xbe>
    227c:	8b ed       	ldi	r24, 0xDB	; 219
    227e:	91 e2       	ldi	r25, 0x21	; 33
    2280:	0e 94 9d 0a 	call	0x153a	; 0x153a <_Z8lcd_putsPKc>
    2284:	6c 81       	ldd	r22, Y+4	; 0x04
    2286:	7d 81       	ldd	r23, Y+5	; 0x05
    2288:	8e 81       	ldd	r24, Y+6	; 0x06
    228a:	9f 81       	ldd	r25, Y+7	; 0x07
    228c:	24 e6       	ldi	r18, 0x64	; 100
    228e:	30 e0       	ldi	r19, 0x00	; 0
    2290:	40 e0       	ldi	r20, 0x00	; 0
    2292:	50 e0       	ldi	r21, 0x00	; 0
    2294:	0e 94 0f 3b 	call	0x761e	; 0x761e <__udivmodsi4>
    2298:	da 01       	movw	r26, r20
    229a:	c9 01       	movw	r24, r18
    229c:	4a e0       	ldi	r20, 0x0A	; 10
    229e:	b6 01       	movw	r22, r12
    22a0:	0e 94 b7 3b 	call	0x776e	; 0x776e <__utoa_ncheck>
    22a4:	c6 01       	movw	r24, r12
    22a6:	0e 94 9d 0a 	call	0x153a	; 0x153a <_Z8lcd_putsPKc>
    22aa:	40 91 25 23 	lds	r20, 0x2325	; 0x802325 <port_expander_present>
    22ae:	62 e0       	ldi	r22, 0x02	; 2
    22b0:	81 e0       	ldi	r24, 0x01	; 1
    22b2:	0e 94 0f 06 	call	0xc1e	; 0xc1e <_Z10lcd_gotoxyhhb>
    22b6:	89 ea       	ldi	r24, 0xA9	; 169
    22b8:	91 e2       	ldi	r25, 0x21	; 33
    22ba:	0e 94 9d 0a 	call	0x153a	; 0x153a <_Z8lcd_putsPKc>
    22be:	88 81       	ld	r24, Y
    22c0:	99 81       	ldd	r25, Y+1	; 0x01
    22c2:	aa 81       	ldd	r26, Y+2	; 0x02
    22c4:	bb 81       	ldd	r27, Y+3	; 0x03
    22c6:	80 34       	cpi	r24, 0x40	; 64
    22c8:	92 44       	sbci	r25, 0x42	; 66
    22ca:	af 40       	sbci	r26, 0x0F	; 15
    22cc:	b1 05       	cpc	r27, r1
    22ce:	20 f4       	brcc	.+8      	; 0x22d8 <_Z25change_parameter_settingsP20regulator_parametersbPhPcPbS1_+0x112>
    22d0:	8b ed       	ldi	r24, 0xDB	; 219
    22d2:	91 e2       	ldi	r25, 0x21	; 33
    22d4:	0e 94 9d 0a 	call	0x153a	; 0x153a <_Z8lcd_putsPKc>
    22d8:	88 81       	ld	r24, Y
    22da:	99 81       	ldd	r25, Y+1	; 0x01
    22dc:	aa 81       	ldd	r26, Y+2	; 0x02
    22de:	bb 81       	ldd	r27, Y+3	; 0x03
    22e0:	80 3a       	cpi	r24, 0xA0	; 160
    22e2:	96 48       	sbci	r25, 0x86	; 134
    22e4:	a1 40       	sbci	r26, 0x01	; 1
    22e6:	b1 05       	cpc	r27, r1
    22e8:	20 f4       	brcc	.+8      	; 0x22f2 <_Z25change_parameter_settingsP20regulator_parametersbPhPcPbS1_+0x12c>
    22ea:	8b ed       	ldi	r24, 0xDB	; 219
    22ec:	91 e2       	ldi	r25, 0x21	; 33
    22ee:	0e 94 9d 0a 	call	0x153a	; 0x153a <_Z8lcd_putsPKc>
    22f2:	88 81       	ld	r24, Y
    22f4:	99 81       	ldd	r25, Y+1	; 0x01
    22f6:	aa 81       	ldd	r26, Y+2	; 0x02
    22f8:	bb 81       	ldd	r27, Y+3	; 0x03
    22fa:	80 31       	cpi	r24, 0x10	; 16
    22fc:	97 42       	sbci	r25, 0x27	; 39
    22fe:	a1 05       	cpc	r26, r1
    2300:	b1 05       	cpc	r27, r1
    2302:	20 f4       	brcc	.+8      	; 0x230c <_Z25change_parameter_settingsP20regulator_parametersbPhPcPbS1_+0x146>
    2304:	8b ed       	ldi	r24, 0xDB	; 219
    2306:	91 e2       	ldi	r25, 0x21	; 33
    2308:	0e 94 9d 0a 	call	0x153a	; 0x153a <_Z8lcd_putsPKc>
    230c:	68 81       	ld	r22, Y
    230e:	79 81       	ldd	r23, Y+1	; 0x01
    2310:	8a 81       	ldd	r24, Y+2	; 0x02
    2312:	9b 81       	ldd	r25, Y+3	; 0x03
    2314:	28 ee       	ldi	r18, 0xE8	; 232
    2316:	33 e0       	ldi	r19, 0x03	; 3
    2318:	40 e0       	ldi	r20, 0x00	; 0
    231a:	50 e0       	ldi	r21, 0x00	; 0
    231c:	0e 94 0f 3b 	call	0x761e	; 0x761e <__udivmodsi4>
    2320:	da 01       	movw	r26, r20
    2322:	c9 01       	movw	r24, r18
    2324:	4a e0       	ldi	r20, 0x0A	; 10
    2326:	b6 01       	movw	r22, r12
    2328:	0e 94 b7 3b 	call	0x776e	; 0x776e <__utoa_ncheck>
    232c:	c6 01       	movw	r24, r12
    232e:	0e 94 9d 0a 	call	0x153a	; 0x153a <_Z8lcd_putsPKc>
    2332:	40 91 25 23 	lds	r20, 0x2325	; 0x802325 <port_expander_present>
    2336:	63 e0       	ldi	r22, 0x03	; 3
    2338:	81 e0       	ldi	r24, 0x01	; 1
    233a:	0e 94 0f 06 	call	0xc1e	; 0xc1e <_Z10lcd_gotoxyhhb>
    233e:	88 eb       	ldi	r24, 0xB8	; 184
    2340:	91 e2       	ldi	r25, 0x21	; 33
    2342:	0e 94 9d 0a 	call	0x153a	; 0x153a <_Z8lcd_putsPKc>
    2346:	8c 85       	ldd	r24, Y+12	; 0x0c
    2348:	9d 85       	ldd	r25, Y+13	; 0x0d
    234a:	ae 85       	ldd	r26, Y+14	; 0x0e
    234c:	bf 85       	ldd	r27, Y+15	; 0x0f
    234e:	80 34       	cpi	r24, 0x40	; 64
    2350:	92 44       	sbci	r25, 0x42	; 66
    2352:	af 40       	sbci	r26, 0x0F	; 15
    2354:	b1 05       	cpc	r27, r1
    2356:	20 f4       	brcc	.+8      	; 0x2360 <_Z25change_parameter_settingsP20regulator_parametersbPhPcPbS1_+0x19a>
    2358:	8b ed       	ldi	r24, 0xDB	; 219
    235a:	91 e2       	ldi	r25, 0x21	; 33
    235c:	0e 94 9d 0a 	call	0x153a	; 0x153a <_Z8lcd_putsPKc>
    2360:	8c 85       	ldd	r24, Y+12	; 0x0c
    2362:	9d 85       	ldd	r25, Y+13	; 0x0d
    2364:	ae 85       	ldd	r26, Y+14	; 0x0e
    2366:	bf 85       	ldd	r27, Y+15	; 0x0f
    2368:	80 31       	cpi	r24, 0x10	; 16
    236a:	97 42       	sbci	r25, 0x27	; 39
    236c:	a1 05       	cpc	r26, r1
    236e:	b1 05       	cpc	r27, r1
    2370:	20 f4       	brcc	.+8      	; 0x237a <_Z25change_parameter_settingsP20regulator_parametersbPhPcPbS1_+0x1b4>
    2372:	8b ed       	ldi	r24, 0xDB	; 219
    2374:	91 e2       	ldi	r25, 0x21	; 33
    2376:	0e 94 9d 0a 	call	0x153a	; 0x153a <_Z8lcd_putsPKc>
    237a:	8c 85       	ldd	r24, Y+12	; 0x0c
    237c:	9d 85       	ldd	r25, Y+13	; 0x0d
    237e:	ae 85       	ldd	r26, Y+14	; 0x0e
    2380:	bf 85       	ldd	r27, Y+15	; 0x0f
    2382:	88 3e       	cpi	r24, 0xE8	; 232
    2384:	93 40       	sbci	r25, 0x03	; 3
    2386:	a1 05       	cpc	r26, r1
    2388:	b1 05       	cpc	r27, r1
    238a:	20 f4       	brcc	.+8      	; 0x2394 <_Z25change_parameter_settingsP20regulator_parametersbPhPcPbS1_+0x1ce>
    238c:	8b ed       	ldi	r24, 0xDB	; 219
    238e:	91 e2       	ldi	r25, 0x21	; 33
    2390:	0e 94 9d 0a 	call	0x153a	; 0x153a <_Z8lcd_putsPKc>
    2394:	6c 85       	ldd	r22, Y+12	; 0x0c
    2396:	7d 85       	ldd	r23, Y+13	; 0x0d
    2398:	8e 85       	ldd	r24, Y+14	; 0x0e
    239a:	9f 85       	ldd	r25, Y+15	; 0x0f
    239c:	24 e6       	ldi	r18, 0x64	; 100
    239e:	30 e0       	ldi	r19, 0x00	; 0
    23a0:	40 e0       	ldi	r20, 0x00	; 0
    23a2:	50 e0       	ldi	r21, 0x00	; 0
    23a4:	0e 94 0f 3b 	call	0x761e	; 0x761e <__udivmodsi4>
    23a8:	da 01       	movw	r26, r20
    23aa:	c9 01       	movw	r24, r18
    23ac:	4a e0       	ldi	r20, 0x0A	; 10
    23ae:	b6 01       	movw	r22, r12
    23b0:	0e 94 b7 3b 	call	0x776e	; 0x776e <__utoa_ncheck>
    23b4:	c6 01       	movw	r24, r12
    23b6:	0e 94 9d 0a 	call	0x153a	; 0x153a <_Z8lcd_putsPKc>
    23ba:	40 91 25 23 	lds	r20, 0x2325	; 0x802325 <port_expander_present>
    23be:	64 e0       	ldi	r22, 0x04	; 4
    23c0:	81 e0       	ldi	r24, 0x01	; 1
    23c2:	0e 94 0f 06 	call	0xc1e	; 0xc1e <_Z10lcd_gotoxyhhb>
    23c6:	85 ec       	ldi	r24, 0xC5	; 197
    23c8:	91 e2       	ldi	r25, 0x21	; 33
    23ca:	0e 94 9d 0a 	call	0x153a	; 0x153a <_Z8lcd_putsPKc>
    23ce:	88 85       	ldd	r24, Y+8	; 0x08
    23d0:	99 85       	ldd	r25, Y+9	; 0x09
    23d2:	aa 85       	ldd	r26, Y+10	; 0x0a
    23d4:	bb 85       	ldd	r27, Y+11	; 0x0b
    23d6:	80 34       	cpi	r24, 0x40	; 64
    23d8:	92 44       	sbci	r25, 0x42	; 66
    23da:	af 40       	sbci	r26, 0x0F	; 15
    23dc:	b1 05       	cpc	r27, r1
    23de:	20 f4       	brcc	.+8      	; 0x23e8 <_Z25change_parameter_settingsP20regulator_parametersbPhPcPbS1_+0x222>
    23e0:	8b ed       	ldi	r24, 0xDB	; 219
    23e2:	91 e2       	ldi	r25, 0x21	; 33
    23e4:	0e 94 9d 0a 	call	0x153a	; 0x153a <_Z8lcd_putsPKc>
    23e8:	88 85       	ldd	r24, Y+8	; 0x08
    23ea:	99 85       	ldd	r25, Y+9	; 0x09
    23ec:	aa 85       	ldd	r26, Y+10	; 0x0a
    23ee:	bb 85       	ldd	r27, Y+11	; 0x0b
    23f0:	80 3a       	cpi	r24, 0xA0	; 160
    23f2:	96 48       	sbci	r25, 0x86	; 134
    23f4:	a1 40       	sbci	r26, 0x01	; 1
    23f6:	b1 05       	cpc	r27, r1
    23f8:	20 f4       	brcc	.+8      	; 0x2402 <_Z25change_parameter_settingsP20regulator_parametersbPhPcPbS1_+0x23c>
    23fa:	8b ed       	ldi	r24, 0xDB	; 219
    23fc:	91 e2       	ldi	r25, 0x21	; 33
    23fe:	0e 94 9d 0a 	call	0x153a	; 0x153a <_Z8lcd_putsPKc>
    2402:	88 85       	ldd	r24, Y+8	; 0x08
    2404:	99 85       	ldd	r25, Y+9	; 0x09
    2406:	aa 85       	ldd	r26, Y+10	; 0x0a
    2408:	bb 85       	ldd	r27, Y+11	; 0x0b
    240a:	80 31       	cpi	r24, 0x10	; 16
    240c:	97 42       	sbci	r25, 0x27	; 39
    240e:	a1 05       	cpc	r26, r1
    2410:	b1 05       	cpc	r27, r1
    2412:	20 f4       	brcc	.+8      	; 0x241c <_Z25change_parameter_settingsP20regulator_parametersbPhPcPbS1_+0x256>
    2414:	8b ed       	ldi	r24, 0xDB	; 219
    2416:	91 e2       	ldi	r25, 0x21	; 33
    2418:	0e 94 9d 0a 	call	0x153a	; 0x153a <_Z8lcd_putsPKc>
    241c:	68 85       	ldd	r22, Y+8	; 0x08
    241e:	79 85       	ldd	r23, Y+9	; 0x09
    2420:	8a 85       	ldd	r24, Y+10	; 0x0a
    2422:	9b 85       	ldd	r25, Y+11	; 0x0b
    2424:	28 ee       	ldi	r18, 0xE8	; 232
    2426:	33 e0       	ldi	r19, 0x03	; 3
    2428:	40 e0       	ldi	r20, 0x00	; 0
    242a:	50 e0       	ldi	r21, 0x00	; 0
    242c:	0e 94 0f 3b 	call	0x761e	; 0x761e <__udivmodsi4>
    2430:	da 01       	movw	r26, r20
    2432:	c9 01       	movw	r24, r18
    2434:	4a e0       	ldi	r20, 0x0A	; 10
    2436:	b6 01       	movw	r22, r12
    2438:	0e 94 b7 3b 	call	0x776e	; 0x776e <__utoa_ncheck>
    243c:	c6 01       	movw	r24, r12
    243e:	0e 94 9d 0a 	call	0x153a	; 0x153a <_Z8lcd_putsPKc>
    2442:	80 91 a0 23 	lds	r24, 0x23A0	; 0x8023a0 <menu>
    2446:	88 23       	and	r24, r24
    2448:	09 f4       	brne	.+2      	; 0x244c <_Z25change_parameter_settingsP20regulator_parametersbPhPcPbS1_+0x286>
    244a:	bc c1       	rjmp	.+888    	; 0x27c4 <_Z25change_parameter_settingsP20regulator_parametersbPhPcPbS1_+0x5fe>
    244c:	80 32       	cpi	r24, 0x20	; 32
    244e:	09 f4       	brne	.+2      	; 0x2452 <_Z25change_parameter_settingsP20regulator_parametersbPhPcPbS1_+0x28c>
    2450:	73 c0       	rjmp	.+230    	; 0x2538 <_Z25change_parameter_settingsP20regulator_parametersbPhPcPbS1_+0x372>
    2452:	18 f4       	brcc	.+6      	; 0x245a <_Z25change_parameter_settingsP20regulator_parametersbPhPcPbS1_+0x294>
    2454:	80 31       	cpi	r24, 0x10	; 16
    2456:	41 f0       	breq	.+16     	; 0x2468 <_Z25change_parameter_settingsP20regulator_parametersbPhPcPbS1_+0x2a2>
    2458:	a6 c1       	rjmp	.+844    	; 0x27a6 <_Z25change_parameter_settingsP20regulator_parametersbPhPcPbS1_+0x5e0>
    245a:	80 33       	cpi	r24, 0x30	; 48
    245c:	09 f4       	brne	.+2      	; 0x2460 <_Z25change_parameter_settingsP20regulator_parametersbPhPcPbS1_+0x29a>
    245e:	d4 c0       	rjmp	.+424    	; 0x2608 <_Z25change_parameter_settingsP20regulator_parametersbPhPcPbS1_+0x442>
    2460:	80 34       	cpi	r24, 0x40	; 64
    2462:	09 f4       	brne	.+2      	; 0x2466 <_Z25change_parameter_settingsP20regulator_parametersbPhPcPbS1_+0x2a0>
    2464:	39 c1       	rjmp	.+626    	; 0x26d8 <_Z25change_parameter_settingsP20regulator_parametersbPhPcPbS1_+0x512>
    2466:	9f c1       	rjmp	.+830    	; 0x27a6 <_Z25change_parameter_settingsP20regulator_parametersbPhPcPbS1_+0x5e0>
    2468:	0e 94 b4 10 	call	0x2168	; 0x2168 <_Z12encode_read2v>
    246c:	a8 2f       	mov	r26, r24
    246e:	88 0f       	add	r24, r24
    2470:	bb 0b       	sbc	r27, r27
    2472:	24 e6       	ldi	r18, 0x64	; 100
    2474:	30 e0       	ldi	r19, 0x00	; 0
    2476:	0e 94 68 3b 	call	0x76d0	; 0x76d0 <__usmulhisi3>
    247a:	4c 80       	ldd	r4, Y+4	; 0x04
    247c:	5d 80       	ldd	r5, Y+5	; 0x05
    247e:	6e 80       	ldd	r6, Y+6	; 0x06
    2480:	7f 80       	ldd	r7, Y+7	; 0x07
    2482:	dc 01       	movw	r26, r24
    2484:	cb 01       	movw	r24, r22
    2486:	84 0d       	add	r24, r4
    2488:	95 1d       	adc	r25, r5
    248a:	a6 1d       	adc	r26, r6
    248c:	b7 1d       	adc	r27, r7
    248e:	8c 83       	std	Y+4, r24	; 0x04
    2490:	9d 83       	std	Y+5, r25	; 0x05
    2492:	ae 83       	std	Y+6, r26	; 0x06
    2494:	bf 83       	std	Y+7, r27	; 0x07
    2496:	40 91 25 23 	lds	r20, 0x2325	; 0x802325 <port_expander_present>
    249a:	61 e0       	ldi	r22, 0x01	; 1
    249c:	8c e0       	ldi	r24, 0x0C	; 12
    249e:	0e 94 0f 06 	call	0xc1e	; 0xc1e <_Z10lcd_gotoxyhhb>
    24a2:	8c 81       	ldd	r24, Y+4	; 0x04
    24a4:	9d 81       	ldd	r25, Y+5	; 0x05
    24a6:	ae 81       	ldd	r26, Y+6	; 0x06
    24a8:	bf 81       	ldd	r27, Y+7	; 0x07
    24aa:	80 34       	cpi	r24, 0x40	; 64
    24ac:	92 44       	sbci	r25, 0x42	; 66
    24ae:	af 40       	sbci	r26, 0x0F	; 15
    24b0:	b1 05       	cpc	r27, r1
    24b2:	20 f4       	brcc	.+8      	; 0x24bc <_Z25change_parameter_settingsP20regulator_parametersbPhPcPbS1_+0x2f6>
    24b4:	8b ed       	ldi	r24, 0xDB	; 219
    24b6:	91 e2       	ldi	r25, 0x21	; 33
    24b8:	0e 94 9d 0a 	call	0x153a	; 0x153a <_Z8lcd_putsPKc>
    24bc:	8c 81       	ldd	r24, Y+4	; 0x04
    24be:	9d 81       	ldd	r25, Y+5	; 0x05
    24c0:	ae 81       	ldd	r26, Y+6	; 0x06
    24c2:	bf 81       	ldd	r27, Y+7	; 0x07
    24c4:	80 31       	cpi	r24, 0x10	; 16
    24c6:	97 42       	sbci	r25, 0x27	; 39
    24c8:	a1 05       	cpc	r26, r1
    24ca:	b1 05       	cpc	r27, r1
    24cc:	20 f4       	brcc	.+8      	; 0x24d6 <_Z25change_parameter_settingsP20regulator_parametersbPhPcPbS1_+0x310>
    24ce:	8b ed       	ldi	r24, 0xDB	; 219
    24d0:	91 e2       	ldi	r25, 0x21	; 33
    24d2:	0e 94 9d 0a 	call	0x153a	; 0x153a <_Z8lcd_putsPKc>
    24d6:	8c 81       	ldd	r24, Y+4	; 0x04
    24d8:	9d 81       	ldd	r25, Y+5	; 0x05
    24da:	ae 81       	ldd	r26, Y+6	; 0x06
    24dc:	bf 81       	ldd	r27, Y+7	; 0x07
    24de:	88 3e       	cpi	r24, 0xE8	; 232
    24e0:	93 40       	sbci	r25, 0x03	; 3
    24e2:	a1 05       	cpc	r26, r1
    24e4:	b1 05       	cpc	r27, r1
    24e6:	20 f4       	brcc	.+8      	; 0x24f0 <_Z25change_parameter_settingsP20regulator_parametersbPhPcPbS1_+0x32a>
    24e8:	8b ed       	ldi	r24, 0xDB	; 219
    24ea:	91 e2       	ldi	r25, 0x21	; 33
    24ec:	0e 94 9d 0a 	call	0x153a	; 0x153a <_Z8lcd_putsPKc>
    24f0:	6c 81       	ldd	r22, Y+4	; 0x04
    24f2:	7d 81       	ldd	r23, Y+5	; 0x05
    24f4:	8e 81       	ldd	r24, Y+6	; 0x06
    24f6:	9f 81       	ldd	r25, Y+7	; 0x07
    24f8:	24 e6       	ldi	r18, 0x64	; 100
    24fa:	30 e0       	ldi	r19, 0x00	; 0
    24fc:	40 e0       	ldi	r20, 0x00	; 0
    24fe:	50 e0       	ldi	r21, 0x00	; 0
    2500:	0e 94 0f 3b 	call	0x761e	; 0x761e <__udivmodsi4>
    2504:	da 01       	movw	r26, r20
    2506:	c9 01       	movw	r24, r18
    2508:	4a e0       	ldi	r20, 0x0A	; 10
    250a:	b6 01       	movw	r22, r12
    250c:	0e 94 b7 3b 	call	0x776e	; 0x776e <__utoa_ncheck>
    2510:	c6 01       	movw	r24, r12
    2512:	0e 94 ac 0a 	call	0x1558	; 0x1558 <_Z15lcd_puts_invertPKc>
    2516:	80 e1       	ldi	r24, 0x10	; 16
    2518:	0e 94 b1 0b 	call	0x1762	; 0x1762 <_Z13get_key_shorth>
    251c:	88 23       	and	r24, r24
    251e:	09 f4       	brne	.+2      	; 0x2522 <_Z25change_parameter_settingsP20regulator_parametersbPhPcPbS1_+0x35c>
    2520:	51 c1       	rjmp	.+674    	; 0x27c4 <_Z25change_parameter_settingsP20regulator_parametersbPhPcPbS1_+0x5fe>
    2522:	81 e0       	ldi	r24, 0x01	; 1
    2524:	f8 01       	movw	r30, r16
    2526:	80 83       	st	Z, r24
    2528:	f5 01       	movw	r30, r10
    252a:	80 83       	st	Z, r24
    252c:	82 e0       	ldi	r24, 0x02	; 2
    252e:	f7 01       	movw	r30, r14
    2530:	80 83       	st	Z, r24
    2532:	10 92 a0 23 	sts	0x23A0, r1	; 0x8023a0 <menu>
    2536:	46 c1       	rjmp	.+652    	; 0x27c4 <_Z25change_parameter_settingsP20regulator_parametersbPhPcPbS1_+0x5fe>
    2538:	0e 94 b4 10 	call	0x2168	; 0x2168 <_Z12encode_read2v>
    253c:	a8 2f       	mov	r26, r24
    253e:	88 0f       	add	r24, r24
    2540:	bb 0b       	sbc	r27, r27
    2542:	24 e6       	ldi	r18, 0x64	; 100
    2544:	30 e0       	ldi	r19, 0x00	; 0
    2546:	0e 94 68 3b 	call	0x76d0	; 0x76d0 <__usmulhisi3>
    254a:	48 80       	ld	r4, Y
    254c:	59 80       	ldd	r5, Y+1	; 0x01
    254e:	6a 80       	ldd	r6, Y+2	; 0x02
    2550:	7b 80       	ldd	r7, Y+3	; 0x03
    2552:	dc 01       	movw	r26, r24
    2554:	cb 01       	movw	r24, r22
    2556:	84 0d       	add	r24, r4
    2558:	95 1d       	adc	r25, r5
    255a:	a6 1d       	adc	r26, r6
    255c:	b7 1d       	adc	r27, r7
    255e:	88 83       	st	Y, r24
    2560:	99 83       	std	Y+1, r25	; 0x01
    2562:	aa 83       	std	Y+2, r26	; 0x02
    2564:	bb 83       	std	Y+3, r27	; 0x03
    2566:	40 91 25 23 	lds	r20, 0x2325	; 0x802325 <port_expander_present>
    256a:	62 e0       	ldi	r22, 0x02	; 2
    256c:	8e e0       	ldi	r24, 0x0E	; 14
    256e:	0e 94 0f 06 	call	0xc1e	; 0xc1e <_Z10lcd_gotoxyhhb>
    2572:	88 81       	ld	r24, Y
    2574:	99 81       	ldd	r25, Y+1	; 0x01
    2576:	aa 81       	ldd	r26, Y+2	; 0x02
    2578:	bb 81       	ldd	r27, Y+3	; 0x03
    257a:	80 34       	cpi	r24, 0x40	; 64
    257c:	92 44       	sbci	r25, 0x42	; 66
    257e:	af 40       	sbci	r26, 0x0F	; 15
    2580:	b1 05       	cpc	r27, r1
    2582:	20 f4       	brcc	.+8      	; 0x258c <_Z25change_parameter_settingsP20regulator_parametersbPhPcPbS1_+0x3c6>
    2584:	8b ed       	ldi	r24, 0xDB	; 219
    2586:	91 e2       	ldi	r25, 0x21	; 33
    2588:	0e 94 9d 0a 	call	0x153a	; 0x153a <_Z8lcd_putsPKc>
    258c:	88 81       	ld	r24, Y
    258e:	99 81       	ldd	r25, Y+1	; 0x01
    2590:	aa 81       	ldd	r26, Y+2	; 0x02
    2592:	bb 81       	ldd	r27, Y+3	; 0x03
    2594:	80 31       	cpi	r24, 0x10	; 16
    2596:	97 42       	sbci	r25, 0x27	; 39
    2598:	a1 05       	cpc	r26, r1
    259a:	b1 05       	cpc	r27, r1
    259c:	20 f4       	brcc	.+8      	; 0x25a6 <_Z25change_parameter_settingsP20regulator_parametersbPhPcPbS1_+0x3e0>
    259e:	8b ed       	ldi	r24, 0xDB	; 219
    25a0:	91 e2       	ldi	r25, 0x21	; 33
    25a2:	0e 94 9d 0a 	call	0x153a	; 0x153a <_Z8lcd_putsPKc>
    25a6:	88 81       	ld	r24, Y
    25a8:	99 81       	ldd	r25, Y+1	; 0x01
    25aa:	aa 81       	ldd	r26, Y+2	; 0x02
    25ac:	bb 81       	ldd	r27, Y+3	; 0x03
    25ae:	88 3e       	cpi	r24, 0xE8	; 232
    25b0:	93 40       	sbci	r25, 0x03	; 3
    25b2:	a1 05       	cpc	r26, r1
    25b4:	b1 05       	cpc	r27, r1
    25b6:	20 f4       	brcc	.+8      	; 0x25c0 <_Z25change_parameter_settingsP20regulator_parametersbPhPcPbS1_+0x3fa>
    25b8:	8b ed       	ldi	r24, 0xDB	; 219
    25ba:	91 e2       	ldi	r25, 0x21	; 33
    25bc:	0e 94 9d 0a 	call	0x153a	; 0x153a <_Z8lcd_putsPKc>
    25c0:	68 81       	ld	r22, Y
    25c2:	79 81       	ldd	r23, Y+1	; 0x01
    25c4:	8a 81       	ldd	r24, Y+2	; 0x02
    25c6:	9b 81       	ldd	r25, Y+3	; 0x03
    25c8:	24 e6       	ldi	r18, 0x64	; 100
    25ca:	30 e0       	ldi	r19, 0x00	; 0
    25cc:	40 e0       	ldi	r20, 0x00	; 0
    25ce:	50 e0       	ldi	r21, 0x00	; 0
    25d0:	0e 94 0f 3b 	call	0x761e	; 0x761e <__udivmodsi4>
    25d4:	da 01       	movw	r26, r20
    25d6:	c9 01       	movw	r24, r18
    25d8:	4a e0       	ldi	r20, 0x0A	; 10
    25da:	b6 01       	movw	r22, r12
    25dc:	0e 94 b7 3b 	call	0x776e	; 0x776e <__utoa_ncheck>
    25e0:	c6 01       	movw	r24, r12
    25e2:	0e 94 ac 0a 	call	0x1558	; 0x1558 <_Z15lcd_puts_invertPKc>
    25e6:	80 e1       	ldi	r24, 0x10	; 16
    25e8:	0e 94 b1 0b 	call	0x1762	; 0x1762 <_Z13get_key_shorth>
    25ec:	88 23       	and	r24, r24
    25ee:	09 f4       	brne	.+2      	; 0x25f2 <_Z25change_parameter_settingsP20regulator_parametersbPhPcPbS1_+0x42c>
    25f0:	e9 c0       	rjmp	.+466    	; 0x27c4 <_Z25change_parameter_settingsP20regulator_parametersbPhPcPbS1_+0x5fe>
    25f2:	81 e0       	ldi	r24, 0x01	; 1
    25f4:	f8 01       	movw	r30, r16
    25f6:	80 83       	st	Z, r24
    25f8:	f5 01       	movw	r30, r10
    25fa:	80 83       	st	Z, r24
    25fc:	82 e0       	ldi	r24, 0x02	; 2
    25fe:	f7 01       	movw	r30, r14
    2600:	80 83       	st	Z, r24
    2602:	10 92 a0 23 	sts	0x23A0, r1	; 0x8023a0 <menu>
    2606:	de c0       	rjmp	.+444    	; 0x27c4 <_Z25change_parameter_settingsP20regulator_parametersbPhPcPbS1_+0x5fe>
    2608:	0e 94 b4 10 	call	0x2168	; 0x2168 <_Z12encode_read2v>
    260c:	a8 2f       	mov	r26, r24
    260e:	88 0f       	add	r24, r24
    2610:	bb 0b       	sbc	r27, r27
    2612:	24 e6       	ldi	r18, 0x64	; 100
    2614:	30 e0       	ldi	r19, 0x00	; 0
    2616:	0e 94 68 3b 	call	0x76d0	; 0x76d0 <__usmulhisi3>
    261a:	4c 84       	ldd	r4, Y+12	; 0x0c
    261c:	5d 84       	ldd	r5, Y+13	; 0x0d
    261e:	6e 84       	ldd	r6, Y+14	; 0x0e
    2620:	7f 84       	ldd	r7, Y+15	; 0x0f
    2622:	dc 01       	movw	r26, r24
    2624:	cb 01       	movw	r24, r22
    2626:	84 0d       	add	r24, r4
    2628:	95 1d       	adc	r25, r5
    262a:	a6 1d       	adc	r26, r6
    262c:	b7 1d       	adc	r27, r7
    262e:	8c 87       	std	Y+12, r24	; 0x0c
    2630:	9d 87       	std	Y+13, r25	; 0x0d
    2632:	ae 87       	std	Y+14, r26	; 0x0e
    2634:	bf 87       	std	Y+15, r27	; 0x0f
    2636:	40 91 25 23 	lds	r20, 0x2325	; 0x802325 <port_expander_present>
    263a:	63 e0       	ldi	r22, 0x03	; 3
    263c:	8c e0       	ldi	r24, 0x0C	; 12
    263e:	0e 94 0f 06 	call	0xc1e	; 0xc1e <_Z10lcd_gotoxyhhb>
    2642:	8c 85       	ldd	r24, Y+12	; 0x0c
    2644:	9d 85       	ldd	r25, Y+13	; 0x0d
    2646:	ae 85       	ldd	r26, Y+14	; 0x0e
    2648:	bf 85       	ldd	r27, Y+15	; 0x0f
    264a:	80 34       	cpi	r24, 0x40	; 64
    264c:	92 44       	sbci	r25, 0x42	; 66
    264e:	af 40       	sbci	r26, 0x0F	; 15
    2650:	b1 05       	cpc	r27, r1
    2652:	20 f4       	brcc	.+8      	; 0x265c <_Z25change_parameter_settingsP20regulator_parametersbPhPcPbS1_+0x496>
    2654:	8b ed       	ldi	r24, 0xDB	; 219
    2656:	91 e2       	ldi	r25, 0x21	; 33
    2658:	0e 94 9d 0a 	call	0x153a	; 0x153a <_Z8lcd_putsPKc>
    265c:	8c 85       	ldd	r24, Y+12	; 0x0c
    265e:	9d 85       	ldd	r25, Y+13	; 0x0d
    2660:	ae 85       	ldd	r26, Y+14	; 0x0e
    2662:	bf 85       	ldd	r27, Y+15	; 0x0f
    2664:	80 31       	cpi	r24, 0x10	; 16
    2666:	97 42       	sbci	r25, 0x27	; 39
    2668:	a1 05       	cpc	r26, r1
    266a:	b1 05       	cpc	r27, r1
    266c:	20 f4       	brcc	.+8      	; 0x2676 <_Z25change_parameter_settingsP20regulator_parametersbPhPcPbS1_+0x4b0>
    266e:	8b ed       	ldi	r24, 0xDB	; 219
    2670:	91 e2       	ldi	r25, 0x21	; 33
    2672:	0e 94 9d 0a 	call	0x153a	; 0x153a <_Z8lcd_putsPKc>
    2676:	8c 85       	ldd	r24, Y+12	; 0x0c
    2678:	9d 85       	ldd	r25, Y+13	; 0x0d
    267a:	ae 85       	ldd	r26, Y+14	; 0x0e
    267c:	bf 85       	ldd	r27, Y+15	; 0x0f
    267e:	88 3e       	cpi	r24, 0xE8	; 232
    2680:	93 40       	sbci	r25, 0x03	; 3
    2682:	a1 05       	cpc	r26, r1
    2684:	b1 05       	cpc	r27, r1
    2686:	20 f4       	brcc	.+8      	; 0x2690 <_Z25change_parameter_settingsP20regulator_parametersbPhPcPbS1_+0x4ca>
    2688:	8b ed       	ldi	r24, 0xDB	; 219
    268a:	91 e2       	ldi	r25, 0x21	; 33
    268c:	0e 94 9d 0a 	call	0x153a	; 0x153a <_Z8lcd_putsPKc>
    2690:	6c 85       	ldd	r22, Y+12	; 0x0c
    2692:	7d 85       	ldd	r23, Y+13	; 0x0d
    2694:	8e 85       	ldd	r24, Y+14	; 0x0e
    2696:	9f 85       	ldd	r25, Y+15	; 0x0f
    2698:	24 e6       	ldi	r18, 0x64	; 100
    269a:	30 e0       	ldi	r19, 0x00	; 0
    269c:	40 e0       	ldi	r20, 0x00	; 0
    269e:	50 e0       	ldi	r21, 0x00	; 0
    26a0:	0e 94 0f 3b 	call	0x761e	; 0x761e <__udivmodsi4>
    26a4:	da 01       	movw	r26, r20
    26a6:	c9 01       	movw	r24, r18
    26a8:	4a e0       	ldi	r20, 0x0A	; 10
    26aa:	b6 01       	movw	r22, r12
    26ac:	0e 94 b7 3b 	call	0x776e	; 0x776e <__utoa_ncheck>
    26b0:	c6 01       	movw	r24, r12
    26b2:	0e 94 ac 0a 	call	0x1558	; 0x1558 <_Z15lcd_puts_invertPKc>
    26b6:	80 e1       	ldi	r24, 0x10	; 16
    26b8:	0e 94 b1 0b 	call	0x1762	; 0x1762 <_Z13get_key_shorth>
    26bc:	88 23       	and	r24, r24
    26be:	09 f4       	brne	.+2      	; 0x26c2 <_Z25change_parameter_settingsP20regulator_parametersbPhPcPbS1_+0x4fc>
    26c0:	81 c0       	rjmp	.+258    	; 0x27c4 <_Z25change_parameter_settingsP20regulator_parametersbPhPcPbS1_+0x5fe>
    26c2:	81 e0       	ldi	r24, 0x01	; 1
    26c4:	f8 01       	movw	r30, r16
    26c6:	80 83       	st	Z, r24
    26c8:	f5 01       	movw	r30, r10
    26ca:	80 83       	st	Z, r24
    26cc:	82 e0       	ldi	r24, 0x02	; 2
    26ce:	f7 01       	movw	r30, r14
    26d0:	80 83       	st	Z, r24
    26d2:	10 92 a0 23 	sts	0x23A0, r1	; 0x8023a0 <menu>
    26d6:	76 c0       	rjmp	.+236    	; 0x27c4 <_Z25change_parameter_settingsP20regulator_parametersbPhPcPbS1_+0x5fe>
    26d8:	0e 94 b4 10 	call	0x2168	; 0x2168 <_Z12encode_read2v>
    26dc:	a8 2f       	mov	r26, r24
    26de:	88 0f       	add	r24, r24
    26e0:	bb 0b       	sbc	r27, r27
    26e2:	24 e6       	ldi	r18, 0x64	; 100
    26e4:	30 e0       	ldi	r19, 0x00	; 0
    26e6:	0e 94 68 3b 	call	0x76d0	; 0x76d0 <__usmulhisi3>
    26ea:	48 84       	ldd	r4, Y+8	; 0x08
    26ec:	59 84       	ldd	r5, Y+9	; 0x09
    26ee:	6a 84       	ldd	r6, Y+10	; 0x0a
    26f0:	7b 84       	ldd	r7, Y+11	; 0x0b
    26f2:	dc 01       	movw	r26, r24
    26f4:	cb 01       	movw	r24, r22
    26f6:	84 0d       	add	r24, r4
    26f8:	95 1d       	adc	r25, r5
    26fa:	a6 1d       	adc	r26, r6
    26fc:	b7 1d       	adc	r27, r7
    26fe:	88 87       	std	Y+8, r24	; 0x08
    2700:	99 87       	std	Y+9, r25	; 0x09
    2702:	aa 87       	std	Y+10, r26	; 0x0a
    2704:	bb 87       	std	Y+11, r27	; 0x0b
    2706:	40 91 25 23 	lds	r20, 0x2325	; 0x802325 <port_expander_present>
    270a:	64 e0       	ldi	r22, 0x04	; 4
    270c:	8e e0       	ldi	r24, 0x0E	; 14
    270e:	0e 94 0f 06 	call	0xc1e	; 0xc1e <_Z10lcd_gotoxyhhb>
    2712:	88 85       	ldd	r24, Y+8	; 0x08
    2714:	99 85       	ldd	r25, Y+9	; 0x09
    2716:	aa 85       	ldd	r26, Y+10	; 0x0a
    2718:	bb 85       	ldd	r27, Y+11	; 0x0b
    271a:	80 34       	cpi	r24, 0x40	; 64
    271c:	92 44       	sbci	r25, 0x42	; 66
    271e:	af 40       	sbci	r26, 0x0F	; 15
    2720:	b1 05       	cpc	r27, r1
    2722:	20 f4       	brcc	.+8      	; 0x272c <_Z25change_parameter_settingsP20regulator_parametersbPhPcPbS1_+0x566>
    2724:	8b ed       	ldi	r24, 0xDB	; 219
    2726:	91 e2       	ldi	r25, 0x21	; 33
    2728:	0e 94 9d 0a 	call	0x153a	; 0x153a <_Z8lcd_putsPKc>
    272c:	88 85       	ldd	r24, Y+8	; 0x08
    272e:	99 85       	ldd	r25, Y+9	; 0x09
    2730:	aa 85       	ldd	r26, Y+10	; 0x0a
    2732:	bb 85       	ldd	r27, Y+11	; 0x0b
    2734:	80 31       	cpi	r24, 0x10	; 16
    2736:	97 42       	sbci	r25, 0x27	; 39
    2738:	a1 05       	cpc	r26, r1
    273a:	b1 05       	cpc	r27, r1
    273c:	20 f4       	brcc	.+8      	; 0x2746 <_Z25change_parameter_settingsP20regulator_parametersbPhPcPbS1_+0x580>
    273e:	8b ed       	ldi	r24, 0xDB	; 219
    2740:	91 e2       	ldi	r25, 0x21	; 33
    2742:	0e 94 9d 0a 	call	0x153a	; 0x153a <_Z8lcd_putsPKc>
    2746:	88 85       	ldd	r24, Y+8	; 0x08
    2748:	99 85       	ldd	r25, Y+9	; 0x09
    274a:	aa 85       	ldd	r26, Y+10	; 0x0a
    274c:	bb 85       	ldd	r27, Y+11	; 0x0b
    274e:	88 3e       	cpi	r24, 0xE8	; 232
    2750:	93 40       	sbci	r25, 0x03	; 3
    2752:	a1 05       	cpc	r26, r1
    2754:	b1 05       	cpc	r27, r1
    2756:	20 f4       	brcc	.+8      	; 0x2760 <_Z25change_parameter_settingsP20regulator_parametersbPhPcPbS1_+0x59a>
    2758:	8b ed       	ldi	r24, 0xDB	; 219
    275a:	91 e2       	ldi	r25, 0x21	; 33
    275c:	0e 94 9d 0a 	call	0x153a	; 0x153a <_Z8lcd_putsPKc>
    2760:	68 85       	ldd	r22, Y+8	; 0x08
    2762:	79 85       	ldd	r23, Y+9	; 0x09
    2764:	8a 85       	ldd	r24, Y+10	; 0x0a
    2766:	9b 85       	ldd	r25, Y+11	; 0x0b
    2768:	24 e6       	ldi	r18, 0x64	; 100
    276a:	30 e0       	ldi	r19, 0x00	; 0
    276c:	40 e0       	ldi	r20, 0x00	; 0
    276e:	50 e0       	ldi	r21, 0x00	; 0
    2770:	0e 94 0f 3b 	call	0x761e	; 0x761e <__udivmodsi4>
    2774:	da 01       	movw	r26, r20
    2776:	c9 01       	movw	r24, r18
    2778:	4a e0       	ldi	r20, 0x0A	; 10
    277a:	b6 01       	movw	r22, r12
    277c:	0e 94 b7 3b 	call	0x776e	; 0x776e <__utoa_ncheck>
    2780:	c6 01       	movw	r24, r12
    2782:	0e 94 ac 0a 	call	0x1558	; 0x1558 <_Z15lcd_puts_invertPKc>
    2786:	80 e1       	ldi	r24, 0x10	; 16
    2788:	0e 94 b1 0b 	call	0x1762	; 0x1762 <_Z13get_key_shorth>
    278c:	88 23       	and	r24, r24
    278e:	d1 f0       	breq	.+52     	; 0x27c4 <_Z25change_parameter_settingsP20regulator_parametersbPhPcPbS1_+0x5fe>
    2790:	81 e0       	ldi	r24, 0x01	; 1
    2792:	f8 01       	movw	r30, r16
    2794:	80 83       	st	Z, r24
    2796:	f5 01       	movw	r30, r10
    2798:	80 83       	st	Z, r24
    279a:	82 e0       	ldi	r24, 0x02	; 2
    279c:	f7 01       	movw	r30, r14
    279e:	80 83       	st	Z, r24
    27a0:	10 92 a0 23 	sts	0x23A0, r1	; 0x8023a0 <menu>
    27a4:	0f c0       	rjmp	.+30     	; 0x27c4 <_Z25change_parameter_settingsP20regulator_parametersbPhPcPbS1_+0x5fe>
    27a6:	80 e1       	ldi	r24, 0x10	; 16
    27a8:	0e 94 b1 0b 	call	0x1762	; 0x1762 <_Z13get_key_shorth>
    27ac:	88 23       	and	r24, r24
    27ae:	51 f0       	breq	.+20     	; 0x27c4 <_Z25change_parameter_settingsP20regulator_parametersbPhPcPbS1_+0x5fe>
    27b0:	81 e0       	ldi	r24, 0x01	; 1
    27b2:	f8 01       	movw	r30, r16
    27b4:	80 83       	st	Z, r24
    27b6:	f5 01       	movw	r30, r10
    27b8:	80 83       	st	Z, r24
    27ba:	82 e0       	ldi	r24, 0x02	; 2
    27bc:	f7 01       	movw	r30, r14
    27be:	80 83       	st	Z, r24
    27c0:	10 92 a0 23 	sts	0x23A0, r1	; 0x8023a0 <menu>
    27c4:	df 91       	pop	r29
    27c6:	cf 91       	pop	r28
    27c8:	1f 91       	pop	r17
    27ca:	0f 91       	pop	r16
    27cc:	ff 90       	pop	r15
    27ce:	ef 90       	pop	r14
    27d0:	df 90       	pop	r13
    27d2:	cf 90       	pop	r12
    27d4:	bf 90       	pop	r11
    27d6:	af 90       	pop	r10
    27d8:	9f 90       	pop	r9
    27da:	7f 90       	pop	r7
    27dc:	6f 90       	pop	r6
    27de:	5f 90       	pop	r5
    27e0:	4f 90       	pop	r4
    27e2:	08 95       	ret

000027e4 <_Z18update_proile_timePmim>:
    27e4:	cf 92       	push	r12
    27e6:	df 92       	push	r13
    27e8:	ef 92       	push	r14
    27ea:	ff 92       	push	r15
    27ec:	0f 93       	push	r16
    27ee:	1f 93       	push	r17
    27f0:	fc 01       	movw	r30, r24
    27f2:	da 01       	movw	r26, r20
    27f4:	c9 01       	movw	r24, r18
    27f6:	ab 01       	movw	r20, r22
    27f8:	77 0f       	add	r23, r23
    27fa:	66 0b       	sbc	r22, r22
    27fc:	77 0b       	sbc	r23, r23
    27fe:	00 81       	ld	r16, Z
    2800:	11 81       	ldd	r17, Z+1	; 0x01
    2802:	22 81       	ldd	r18, Z+2	; 0x02
    2804:	33 81       	ldd	r19, Z+3	; 0x03
    2806:	40 0f       	add	r20, r16
    2808:	51 1f       	adc	r21, r17
    280a:	62 1f       	adc	r22, r18
    280c:	73 1f       	adc	r23, r19
    280e:	8a 01       	movw	r16, r20
    2810:	9b 01       	movw	r18, r22
    2812:	84 17       	cp	r24, r20
    2814:	95 07       	cpc	r25, r21
    2816:	a6 07       	cpc	r26, r22
    2818:	b7 07       	cpc	r27, r23
    281a:	2c f0       	brlt	.+10     	; 0x2826 <_Z18update_proile_timePmim+0x42>
    281c:	40 83       	st	Z, r20
    281e:	51 83       	std	Z+1, r21	; 0x01
    2820:	62 83       	std	Z+2, r22	; 0x02
    2822:	73 83       	std	Z+3, r23	; 0x03
    2824:	0a c0       	rjmp	.+20     	; 0x283a <_Z18update_proile_timePmim+0x56>
    2826:	6a 01       	movw	r12, r20
    2828:	7b 01       	movw	r14, r22
    282a:	c8 1a       	sub	r12, r24
    282c:	d9 0a       	sbc	r13, r25
    282e:	ea 0a       	sbc	r14, r26
    2830:	fb 0a       	sbc	r15, r27
    2832:	c0 82       	st	Z, r12
    2834:	d1 82       	std	Z+1, r13	; 0x01
    2836:	e2 82       	std	Z+2, r14	; 0x02
    2838:	f3 82       	std	Z+3, r15	; 0x03
    283a:	33 23       	and	r19, r19
    283c:	44 f4       	brge	.+16     	; 0x284e <_Z18update_proile_timePmim+0x6a>
    283e:	48 0f       	add	r20, r24
    2840:	59 1f       	adc	r21, r25
    2842:	6a 1f       	adc	r22, r26
    2844:	7b 1f       	adc	r23, r27
    2846:	40 83       	st	Z, r20
    2848:	51 83       	std	Z+1, r21	; 0x01
    284a:	62 83       	std	Z+2, r22	; 0x02
    284c:	73 83       	std	Z+3, r23	; 0x03
    284e:	1f 91       	pop	r17
    2850:	0f 91       	pop	r16
    2852:	ff 90       	pop	r15
    2854:	ef 90       	pop	r14
    2856:	df 90       	pop	r13
    2858:	cf 90       	pop	r12
    285a:	08 95       	ret

0000285c <_Z12display_timePVmS0_hhbb>:
    285c:	af 92       	push	r10
    285e:	bf 92       	push	r11
    2860:	df 92       	push	r13
    2862:	ef 92       	push	r14
    2864:	ff 92       	push	r15
    2866:	0f 93       	push	r16
    2868:	1f 93       	push	r17
    286a:	cf 93       	push	r28
    286c:	df 93       	push	r29
    286e:	cd b7       	in	r28, 0x3d	; 61
    2870:	de b7       	in	r29, 0x3e	; 62
    2872:	65 97       	sbiw	r28, 0x15	; 21
    2874:	cd bf       	out	0x3d, r28	; 61
    2876:	de bf       	out	0x3e, r29	; 62
    2878:	5c 01       	movw	r10, r24
    287a:	f4 2e       	mov	r15, r20
    287c:	d2 2e       	mov	r13, r18
    287e:	00 23       	and	r16, r16
    2880:	09 f4       	brne	.+2      	; 0x2884 <_Z12display_timePVmS0_hhbb+0x28>
    2882:	de c0       	rjmp	.+444    	; 0x2a40 <_Z12display_timePVmS0_hhbb+0x1e4>
    2884:	fb 01       	movw	r30, r22
    2886:	80 81       	ld	r24, Z
    2888:	91 81       	ldd	r25, Z+1	; 0x01
    288a:	a2 81       	ldd	r26, Z+2	; 0x02
    288c:	b3 81       	ldd	r27, Z+3	; 0x03
    288e:	f5 01       	movw	r30, r10
    2890:	40 81       	ld	r20, Z
    2892:	51 81       	ldd	r21, Z+1	; 0x01
    2894:	62 81       	ldd	r22, Z+2	; 0x02
    2896:	73 81       	ldd	r23, Z+3	; 0x03
    2898:	84 1b       	sub	r24, r20
    289a:	95 0b       	sbc	r25, r21
    289c:	a6 0b       	sbc	r26, r22
    289e:	b7 0b       	sbc	r27, r23
    28a0:	8f 87       	std	Y+15, r24	; 0x0f
    28a2:	98 8b       	std	Y+16, r25	; 0x10
    28a4:	a9 8b       	std	Y+17, r26	; 0x11
    28a6:	ba 8b       	std	Y+18, r27	; 0x12
    28a8:	6f 85       	ldd	r22, Y+15	; 0x0f
    28aa:	78 89       	ldd	r23, Y+16	; 0x10
    28ac:	89 89       	ldd	r24, Y+17	; 0x11
    28ae:	9a 89       	ldd	r25, Y+18	; 0x12
    28b0:	20 e1       	ldi	r18, 0x10	; 16
    28b2:	3e e0       	ldi	r19, 0x0E	; 14
    28b4:	40 e0       	ldi	r20, 0x00	; 0
    28b6:	50 e0       	ldi	r21, 0x00	; 0
    28b8:	0e 94 0f 3b 	call	0x761e	; 0x761e <__udivmodsi4>
    28bc:	2b 87       	std	Y+11, r18	; 0x0b
    28be:	3c 87       	std	Y+12, r19	; 0x0c
    28c0:	4d 87       	std	Y+13, r20	; 0x0d
    28c2:	5e 87       	std	Y+14, r21	; 0x0e
    28c4:	ee 20       	and	r14, r14
    28c6:	41 f0       	breq	.+16     	; 0x28d8 <_Z12display_timePVmS0_hhbb+0x7c>
    28c8:	1f 86       	std	Y+15, r1	; 0x0f
    28ca:	18 8a       	std	Y+16, r1	; 0x10
    28cc:	19 8a       	std	Y+17, r1	; 0x11
    28ce:	1a 8a       	std	Y+18, r1	; 0x12
    28d0:	1b 86       	std	Y+11, r1	; 0x0b
    28d2:	1c 86       	std	Y+12, r1	; 0x0c
    28d4:	1d 86       	std	Y+13, r1	; 0x0d
    28d6:	1e 86       	std	Y+14, r1	; 0x0e
    28d8:	6b 85       	ldd	r22, Y+11	; 0x0b
    28da:	7c 85       	ldd	r23, Y+12	; 0x0c
    28dc:	8d 85       	ldd	r24, Y+13	; 0x0d
    28de:	9e 85       	ldd	r25, Y+14	; 0x0e
    28e0:	2a e0       	ldi	r18, 0x0A	; 10
    28e2:	ae 01       	movw	r20, r28
    28e4:	4d 5e       	subi	r20, 0xED	; 237
    28e6:	5f 4f       	sbci	r21, 0xFF	; 255
    28e8:	0e 94 95 3b 	call	0x772a	; 0x772a <__ultoa_ncheck>
    28ec:	8b 85       	ldd	r24, Y+11	; 0x0b
    28ee:	9c 85       	ldd	r25, Y+12	; 0x0c
    28f0:	ad 85       	ldd	r26, Y+13	; 0x0d
    28f2:	be 85       	ldd	r27, Y+14	; 0x0e
    28f4:	0a 97       	sbiw	r24, 0x0a	; 10
    28f6:	a1 05       	cpc	r26, r1
    28f8:	b1 05       	cpc	r27, r1
    28fa:	60 f4       	brcc	.+24     	; 0x2914 <_Z12display_timePVmS0_hhbb+0xb8>
    28fc:	80 e3       	ldi	r24, 0x30	; 48
    28fe:	90 e0       	ldi	r25, 0x00	; 0
    2900:	89 83       	std	Y+1, r24	; 0x01
    2902:	9a 83       	std	Y+2, r25	; 0x02
    2904:	be 01       	movw	r22, r28
    2906:	6d 5e       	subi	r22, 0xED	; 237
    2908:	7f 4f       	sbci	r23, 0xFF	; 255
    290a:	ce 01       	movw	r24, r28
    290c:	01 96       	adiw	r24, 0x01	; 1
    290e:	0e 94 83 3b 	call	0x7706	; 0x7706 <strcat>
    2912:	07 c0       	rjmp	.+14     	; 0x2922 <_Z12display_timePVmS0_hhbb+0xc6>
    2914:	be 01       	movw	r22, r28
    2916:	6d 5e       	subi	r22, 0xED	; 237
    2918:	7f 4f       	sbci	r23, 0xFF	; 255
    291a:	ce 01       	movw	r24, r28
    291c:	01 96       	adiw	r24, 0x01	; 1
    291e:	0e 94 8e 3b 	call	0x771c	; 0x771c <strcpy>
    2922:	fe 01       	movw	r30, r28
    2924:	31 96       	adiw	r30, 0x01	; 1
    2926:	01 90       	ld	r0, Z+
    2928:	00 20       	and	r0, r0
    292a:	e9 f7       	brne	.-6      	; 0x2926 <_Z12display_timePVmS0_hhbb+0xca>
    292c:	31 97       	sbiw	r30, 0x01	; 1
    292e:	8a e3       	ldi	r24, 0x3A	; 58
    2930:	90 e0       	ldi	r25, 0x00	; 0
    2932:	80 83       	st	Z, r24
    2934:	91 83       	std	Z+1, r25	; 0x01
    2936:	6f 85       	ldd	r22, Y+15	; 0x0f
    2938:	78 89       	ldd	r23, Y+16	; 0x10
    293a:	89 89       	ldd	r24, Y+17	; 0x11
    293c:	9a 89       	ldd	r25, Y+18	; 0x12
    293e:	20 e1       	ldi	r18, 0x10	; 16
    2940:	3e e0       	ldi	r19, 0x0E	; 14
    2942:	40 e0       	ldi	r20, 0x00	; 0
    2944:	50 e0       	ldi	r21, 0x00	; 0
    2946:	0e 94 0f 3b 	call	0x761e	; 0x761e <__udivmodsi4>
    294a:	6f 87       	std	Y+15, r22	; 0x0f
    294c:	78 8b       	std	Y+16, r23	; 0x10
    294e:	89 8b       	std	Y+17, r24	; 0x11
    2950:	9a 8b       	std	Y+18, r25	; 0x12
    2952:	6f 85       	ldd	r22, Y+15	; 0x0f
    2954:	78 89       	ldd	r23, Y+16	; 0x10
    2956:	89 89       	ldd	r24, Y+17	; 0x11
    2958:	9a 89       	ldd	r25, Y+18	; 0x12
    295a:	2c e3       	ldi	r18, 0x3C	; 60
    295c:	30 e0       	ldi	r19, 0x00	; 0
    295e:	40 e0       	ldi	r20, 0x00	; 0
    2960:	50 e0       	ldi	r21, 0x00	; 0
    2962:	0e 94 0f 3b 	call	0x761e	; 0x761e <__udivmodsi4>
    2966:	2b 87       	std	Y+11, r18	; 0x0b
    2968:	3c 87       	std	Y+12, r19	; 0x0c
    296a:	4d 87       	std	Y+13, r20	; 0x0d
    296c:	5e 87       	std	Y+14, r21	; 0x0e
    296e:	6b 85       	ldd	r22, Y+11	; 0x0b
    2970:	7c 85       	ldd	r23, Y+12	; 0x0c
    2972:	8d 85       	ldd	r24, Y+13	; 0x0d
    2974:	9e 85       	ldd	r25, Y+14	; 0x0e
    2976:	2a e0       	ldi	r18, 0x0A	; 10
    2978:	ae 01       	movw	r20, r28
    297a:	4d 5e       	subi	r20, 0xED	; 237
    297c:	5f 4f       	sbci	r21, 0xFF	; 255
    297e:	0e 94 95 3b 	call	0x772a	; 0x772a <__ultoa_ncheck>
    2982:	8b 85       	ldd	r24, Y+11	; 0x0b
    2984:	9c 85       	ldd	r25, Y+12	; 0x0c
    2986:	ad 85       	ldd	r26, Y+13	; 0x0d
    2988:	be 85       	ldd	r27, Y+14	; 0x0e
    298a:	0a 97       	sbiw	r24, 0x0a	; 10
    298c:	a1 05       	cpc	r26, r1
    298e:	b1 05       	cpc	r27, r1
    2990:	50 f4       	brcc	.+20     	; 0x29a6 <_Z12display_timePVmS0_hhbb+0x14a>
    2992:	fe 01       	movw	r30, r28
    2994:	31 96       	adiw	r30, 0x01	; 1
    2996:	01 90       	ld	r0, Z+
    2998:	00 20       	and	r0, r0
    299a:	e9 f7       	brne	.-6      	; 0x2996 <_Z12display_timePVmS0_hhbb+0x13a>
    299c:	31 97       	sbiw	r30, 0x01	; 1
    299e:	80 e3       	ldi	r24, 0x30	; 48
    29a0:	90 e0       	ldi	r25, 0x00	; 0
    29a2:	80 83       	st	Z, r24
    29a4:	91 83       	std	Z+1, r25	; 0x01
    29a6:	be 01       	movw	r22, r28
    29a8:	6d 5e       	subi	r22, 0xED	; 237
    29aa:	7f 4f       	sbci	r23, 0xFF	; 255
    29ac:	8e 01       	movw	r16, r28
    29ae:	0f 5f       	subi	r16, 0xFF	; 255
    29b0:	1f 4f       	sbci	r17, 0xFF	; 255
    29b2:	c8 01       	movw	r24, r16
    29b4:	0e 94 83 3b 	call	0x7706	; 0x7706 <strcat>
    29b8:	f8 01       	movw	r30, r16
    29ba:	01 90       	ld	r0, Z+
    29bc:	00 20       	and	r0, r0
    29be:	e9 f7       	brne	.-6      	; 0x29ba <_Z12display_timePVmS0_hhbb+0x15e>
    29c0:	31 97       	sbiw	r30, 0x01	; 1
    29c2:	8a e3       	ldi	r24, 0x3A	; 58
    29c4:	90 e0       	ldi	r25, 0x00	; 0
    29c6:	80 83       	st	Z, r24
    29c8:	91 83       	std	Z+1, r25	; 0x01
    29ca:	6f 85       	ldd	r22, Y+15	; 0x0f
    29cc:	78 89       	ldd	r23, Y+16	; 0x10
    29ce:	89 89       	ldd	r24, Y+17	; 0x11
    29d0:	9a 89       	ldd	r25, Y+18	; 0x12
    29d2:	2c e3       	ldi	r18, 0x3C	; 60
    29d4:	30 e0       	ldi	r19, 0x00	; 0
    29d6:	40 e0       	ldi	r20, 0x00	; 0
    29d8:	50 e0       	ldi	r21, 0x00	; 0
    29da:	0e 94 0f 3b 	call	0x761e	; 0x761e <__udivmodsi4>
    29de:	6f 87       	std	Y+15, r22	; 0x0f
    29e0:	78 8b       	std	Y+16, r23	; 0x10
    29e2:	89 8b       	std	Y+17, r24	; 0x11
    29e4:	9a 8b       	std	Y+18, r25	; 0x12
    29e6:	6f 85       	ldd	r22, Y+15	; 0x0f
    29e8:	78 89       	ldd	r23, Y+16	; 0x10
    29ea:	89 89       	ldd	r24, Y+17	; 0x11
    29ec:	9a 89       	ldd	r25, Y+18	; 0x12
    29ee:	2a e0       	ldi	r18, 0x0A	; 10
    29f0:	ae 01       	movw	r20, r28
    29f2:	4d 5e       	subi	r20, 0xED	; 237
    29f4:	5f 4f       	sbci	r21, 0xFF	; 255
    29f6:	0e 94 95 3b 	call	0x772a	; 0x772a <__ultoa_ncheck>
    29fa:	8f 85       	ldd	r24, Y+15	; 0x0f
    29fc:	98 89       	ldd	r25, Y+16	; 0x10
    29fe:	a9 89       	ldd	r26, Y+17	; 0x11
    2a00:	ba 89       	ldd	r27, Y+18	; 0x12
    2a02:	0a 97       	sbiw	r24, 0x0a	; 10
    2a04:	a1 05       	cpc	r26, r1
    2a06:	b1 05       	cpc	r27, r1
    2a08:	48 f4       	brcc	.+18     	; 0x2a1c <_Z12display_timePVmS0_hhbb+0x1c0>
    2a0a:	f8 01       	movw	r30, r16
    2a0c:	01 90       	ld	r0, Z+
    2a0e:	00 20       	and	r0, r0
    2a10:	e9 f7       	brne	.-6      	; 0x2a0c <_Z12display_timePVmS0_hhbb+0x1b0>
    2a12:	31 97       	sbiw	r30, 0x01	; 1
    2a14:	80 e3       	ldi	r24, 0x30	; 48
    2a16:	90 e0       	ldi	r25, 0x00	; 0
    2a18:	80 83       	st	Z, r24
    2a1a:	91 83       	std	Z+1, r25	; 0x01
    2a1c:	be 01       	movw	r22, r28
    2a1e:	6d 5e       	subi	r22, 0xED	; 237
    2a20:	7f 4f       	sbci	r23, 0xFF	; 255
    2a22:	ce 01       	movw	r24, r28
    2a24:	01 96       	adiw	r24, 0x01	; 1
    2a26:	0e 94 83 3b 	call	0x7706	; 0x7706 <strcat>
    2a2a:	40 91 25 23 	lds	r20, 0x2325	; 0x802325 <port_expander_present>
    2a2e:	6d 2d       	mov	r22, r13
    2a30:	8f 2d       	mov	r24, r15
    2a32:	0e 94 0f 06 	call	0xc1e	; 0xc1e <_Z10lcd_gotoxyhhb>
    2a36:	ce 01       	movw	r24, r28
    2a38:	01 96       	adiw	r24, 0x01	; 1
    2a3a:	0e 94 9d 0a 	call	0x153a	; 0x153a <_Z8lcd_putsPKc>
    2a3e:	0a c0       	rjmp	.+20     	; 0x2a54 <_Z12display_timePVmS0_hhbb+0x1f8>
    2a40:	40 91 25 23 	lds	r20, 0x2325	; 0x802325 <port_expander_present>
    2a44:	62 2f       	mov	r22, r18
    2a46:	8f 2d       	mov	r24, r15
    2a48:	0e 94 0f 06 	call	0xc1e	; 0xc1e <_Z10lcd_gotoxyhhb>
    2a4c:	83 ed       	ldi	r24, 0xD3	; 211
    2a4e:	91 e2       	ldi	r25, 0x21	; 33
    2a50:	0e 94 9d 0a 	call	0x153a	; 0x153a <_Z8lcd_putsPKc>
    2a54:	65 96       	adiw	r28, 0x15	; 21
    2a56:	cd bf       	out	0x3d, r28	; 61
    2a58:	de bf       	out	0x3e, r29	; 62
    2a5a:	df 91       	pop	r29
    2a5c:	cf 91       	pop	r28
    2a5e:	1f 91       	pop	r17
    2a60:	0f 91       	pop	r16
    2a62:	ff 90       	pop	r15
    2a64:	ef 90       	pop	r14
    2a66:	df 90       	pop	r13
    2a68:	bf 90       	pop	r11
    2a6a:	af 90       	pop	r10
    2a6c:	08 95       	ret

00002a6e <_Z17display_time_menuPVmbhh>:
    2a6e:	df 92       	push	r13
    2a70:	ef 92       	push	r14
    2a72:	ff 92       	push	r15
    2a74:	0f 93       	push	r16
    2a76:	1f 93       	push	r17
    2a78:	cf 93       	push	r28
    2a7a:	df 93       	push	r29
    2a7c:	cd b7       	in	r28, 0x3d	; 61
    2a7e:	de b7       	in	r29, 0x3e	; 62
    2a80:	65 97       	sbiw	r28, 0x15	; 21
    2a82:	cd bf       	out	0x3d, r28	; 61
    2a84:	de bf       	out	0x3e, r29	; 62
    2a86:	f6 2e       	mov	r15, r22
    2a88:	e4 2e       	mov	r14, r20
    2a8a:	d2 2e       	mov	r13, r18
    2a8c:	fc 01       	movw	r30, r24
    2a8e:	80 81       	ld	r24, Z
    2a90:	91 81       	ldd	r25, Z+1	; 0x01
    2a92:	a2 81       	ldd	r26, Z+2	; 0x02
    2a94:	b3 81       	ldd	r27, Z+3	; 0x03
    2a96:	8e 87       	std	Y+14, r24	; 0x0e
    2a98:	9f 87       	std	Y+15, r25	; 0x0f
    2a9a:	a8 8b       	std	Y+16, r26	; 0x10
    2a9c:	b9 8b       	std	Y+17, r27	; 0x11
    2a9e:	8e 85       	ldd	r24, Y+14	; 0x0e
    2aa0:	9f 85       	ldd	r25, Y+15	; 0x0f
    2aa2:	a8 89       	ldd	r26, Y+16	; 0x10
    2aa4:	b9 89       	ldd	r27, Y+17	; 0x11
    2aa6:	81 30       	cpi	r24, 0x01	; 1
    2aa8:	96 44       	sbci	r25, 0x46	; 70
    2aaa:	a5 40       	sbci	r26, 0x05	; 5
    2aac:	b1 05       	cpc	r27, r1
    2aae:	40 f0       	brcs	.+16     	; 0x2ac0 <_Z17display_time_menuPVmbhh+0x52>
    2ab0:	80 e0       	ldi	r24, 0x00	; 0
    2ab2:	96 e4       	ldi	r25, 0x46	; 70
    2ab4:	a5 e0       	ldi	r26, 0x05	; 5
    2ab6:	b0 e0       	ldi	r27, 0x00	; 0
    2ab8:	8e 87       	std	Y+14, r24	; 0x0e
    2aba:	9f 87       	std	Y+15, r25	; 0x0f
    2abc:	a8 8b       	std	Y+16, r26	; 0x10
    2abe:	b9 8b       	std	Y+17, r27	; 0x11
    2ac0:	6e 85       	ldd	r22, Y+14	; 0x0e
    2ac2:	7f 85       	ldd	r23, Y+15	; 0x0f
    2ac4:	88 89       	ldd	r24, Y+16	; 0x10
    2ac6:	99 89       	ldd	r25, Y+17	; 0x11
    2ac8:	20 e1       	ldi	r18, 0x10	; 16
    2aca:	3e e0       	ldi	r19, 0x0E	; 14
    2acc:	40 e0       	ldi	r20, 0x00	; 0
    2ace:	50 e0       	ldi	r21, 0x00	; 0
    2ad0:	0e 94 0f 3b 	call	0x761e	; 0x761e <__udivmodsi4>
    2ad4:	2a 8b       	std	Y+18, r18	; 0x12
    2ad6:	3b 8b       	std	Y+19, r19	; 0x13
    2ad8:	4c 8b       	std	Y+20, r20	; 0x14
    2ada:	5d 8b       	std	Y+21, r21	; 0x15
    2adc:	6a 89       	ldd	r22, Y+18	; 0x12
    2ade:	7b 89       	ldd	r23, Y+19	; 0x13
    2ae0:	8c 89       	ldd	r24, Y+20	; 0x14
    2ae2:	9d 89       	ldd	r25, Y+21	; 0x15
    2ae4:	2a e0       	ldi	r18, 0x0A	; 10
    2ae6:	ae 01       	movw	r20, r28
    2ae8:	45 5f       	subi	r20, 0xF5	; 245
    2aea:	5f 4f       	sbci	r21, 0xFF	; 255
    2aec:	0e 94 95 3b 	call	0x772a	; 0x772a <__ultoa_ncheck>
    2af0:	8a 89       	ldd	r24, Y+18	; 0x12
    2af2:	9b 89       	ldd	r25, Y+19	; 0x13
    2af4:	ac 89       	ldd	r26, Y+20	; 0x14
    2af6:	bd 89       	ldd	r27, Y+21	; 0x15
    2af8:	0a 97       	sbiw	r24, 0x0a	; 10
    2afa:	a1 05       	cpc	r26, r1
    2afc:	b1 05       	cpc	r27, r1
    2afe:	60 f4       	brcc	.+24     	; 0x2b18 <_Z17display_time_menuPVmbhh+0xaa>
    2b00:	80 e3       	ldi	r24, 0x30	; 48
    2b02:	90 e0       	ldi	r25, 0x00	; 0
    2b04:	89 83       	std	Y+1, r24	; 0x01
    2b06:	9a 83       	std	Y+2, r25	; 0x02
    2b08:	be 01       	movw	r22, r28
    2b0a:	65 5f       	subi	r22, 0xF5	; 245
    2b0c:	7f 4f       	sbci	r23, 0xFF	; 255
    2b0e:	ce 01       	movw	r24, r28
    2b10:	01 96       	adiw	r24, 0x01	; 1
    2b12:	0e 94 83 3b 	call	0x7706	; 0x7706 <strcat>
    2b16:	07 c0       	rjmp	.+14     	; 0x2b26 <_Z17display_time_menuPVmbhh+0xb8>
    2b18:	be 01       	movw	r22, r28
    2b1a:	65 5f       	subi	r22, 0xF5	; 245
    2b1c:	7f 4f       	sbci	r23, 0xFF	; 255
    2b1e:	ce 01       	movw	r24, r28
    2b20:	01 96       	adiw	r24, 0x01	; 1
    2b22:	0e 94 8e 3b 	call	0x771c	; 0x771c <strcpy>
    2b26:	fe 01       	movw	r30, r28
    2b28:	31 96       	adiw	r30, 0x01	; 1
    2b2a:	01 90       	ld	r0, Z+
    2b2c:	00 20       	and	r0, r0
    2b2e:	e9 f7       	brne	.-6      	; 0x2b2a <_Z17display_time_menuPVmbhh+0xbc>
    2b30:	31 97       	sbiw	r30, 0x01	; 1
    2b32:	8a e3       	ldi	r24, 0x3A	; 58
    2b34:	90 e0       	ldi	r25, 0x00	; 0
    2b36:	80 83       	st	Z, r24
    2b38:	91 83       	std	Z+1, r25	; 0x01
    2b3a:	6e 85       	ldd	r22, Y+14	; 0x0e
    2b3c:	7f 85       	ldd	r23, Y+15	; 0x0f
    2b3e:	88 89       	ldd	r24, Y+16	; 0x10
    2b40:	99 89       	ldd	r25, Y+17	; 0x11
    2b42:	20 e1       	ldi	r18, 0x10	; 16
    2b44:	3e e0       	ldi	r19, 0x0E	; 14
    2b46:	40 e0       	ldi	r20, 0x00	; 0
    2b48:	50 e0       	ldi	r21, 0x00	; 0
    2b4a:	0e 94 0f 3b 	call	0x761e	; 0x761e <__udivmodsi4>
    2b4e:	6e 87       	std	Y+14, r22	; 0x0e
    2b50:	7f 87       	std	Y+15, r23	; 0x0f
    2b52:	88 8b       	std	Y+16, r24	; 0x10
    2b54:	99 8b       	std	Y+17, r25	; 0x11
    2b56:	6e 85       	ldd	r22, Y+14	; 0x0e
    2b58:	7f 85       	ldd	r23, Y+15	; 0x0f
    2b5a:	88 89       	ldd	r24, Y+16	; 0x10
    2b5c:	99 89       	ldd	r25, Y+17	; 0x11
    2b5e:	2c e3       	ldi	r18, 0x3C	; 60
    2b60:	30 e0       	ldi	r19, 0x00	; 0
    2b62:	40 e0       	ldi	r20, 0x00	; 0
    2b64:	50 e0       	ldi	r21, 0x00	; 0
    2b66:	0e 94 0f 3b 	call	0x761e	; 0x761e <__udivmodsi4>
    2b6a:	2a 8b       	std	Y+18, r18	; 0x12
    2b6c:	3b 8b       	std	Y+19, r19	; 0x13
    2b6e:	4c 8b       	std	Y+20, r20	; 0x14
    2b70:	5d 8b       	std	Y+21, r21	; 0x15
    2b72:	6a 89       	ldd	r22, Y+18	; 0x12
    2b74:	7b 89       	ldd	r23, Y+19	; 0x13
    2b76:	8c 89       	ldd	r24, Y+20	; 0x14
    2b78:	9d 89       	ldd	r25, Y+21	; 0x15
    2b7a:	2a e0       	ldi	r18, 0x0A	; 10
    2b7c:	ae 01       	movw	r20, r28
    2b7e:	45 5f       	subi	r20, 0xF5	; 245
    2b80:	5f 4f       	sbci	r21, 0xFF	; 255
    2b82:	0e 94 95 3b 	call	0x772a	; 0x772a <__ultoa_ncheck>
    2b86:	8a 89       	ldd	r24, Y+18	; 0x12
    2b88:	9b 89       	ldd	r25, Y+19	; 0x13
    2b8a:	ac 89       	ldd	r26, Y+20	; 0x14
    2b8c:	bd 89       	ldd	r27, Y+21	; 0x15
    2b8e:	0a 97       	sbiw	r24, 0x0a	; 10
    2b90:	a1 05       	cpc	r26, r1
    2b92:	b1 05       	cpc	r27, r1
    2b94:	50 f4       	brcc	.+20     	; 0x2baa <_Z17display_time_menuPVmbhh+0x13c>
    2b96:	fe 01       	movw	r30, r28
    2b98:	31 96       	adiw	r30, 0x01	; 1
    2b9a:	01 90       	ld	r0, Z+
    2b9c:	00 20       	and	r0, r0
    2b9e:	e9 f7       	brne	.-6      	; 0x2b9a <_Z17display_time_menuPVmbhh+0x12c>
    2ba0:	31 97       	sbiw	r30, 0x01	; 1
    2ba2:	80 e3       	ldi	r24, 0x30	; 48
    2ba4:	90 e0       	ldi	r25, 0x00	; 0
    2ba6:	80 83       	st	Z, r24
    2ba8:	91 83       	std	Z+1, r25	; 0x01
    2baa:	be 01       	movw	r22, r28
    2bac:	65 5f       	subi	r22, 0xF5	; 245
    2bae:	7f 4f       	sbci	r23, 0xFF	; 255
    2bb0:	8e 01       	movw	r16, r28
    2bb2:	0f 5f       	subi	r16, 0xFF	; 255
    2bb4:	1f 4f       	sbci	r17, 0xFF	; 255
    2bb6:	c8 01       	movw	r24, r16
    2bb8:	0e 94 83 3b 	call	0x7706	; 0x7706 <strcat>
    2bbc:	f8 01       	movw	r30, r16
    2bbe:	01 90       	ld	r0, Z+
    2bc0:	00 20       	and	r0, r0
    2bc2:	e9 f7       	brne	.-6      	; 0x2bbe <_Z17display_time_menuPVmbhh+0x150>
    2bc4:	31 97       	sbiw	r30, 0x01	; 1
    2bc6:	8a e3       	ldi	r24, 0x3A	; 58
    2bc8:	90 e0       	ldi	r25, 0x00	; 0
    2bca:	80 83       	st	Z, r24
    2bcc:	91 83       	std	Z+1, r25	; 0x01
    2bce:	6e 85       	ldd	r22, Y+14	; 0x0e
    2bd0:	7f 85       	ldd	r23, Y+15	; 0x0f
    2bd2:	88 89       	ldd	r24, Y+16	; 0x10
    2bd4:	99 89       	ldd	r25, Y+17	; 0x11
    2bd6:	2c e3       	ldi	r18, 0x3C	; 60
    2bd8:	30 e0       	ldi	r19, 0x00	; 0
    2bda:	40 e0       	ldi	r20, 0x00	; 0
    2bdc:	50 e0       	ldi	r21, 0x00	; 0
    2bde:	0e 94 0f 3b 	call	0x761e	; 0x761e <__udivmodsi4>
    2be2:	6e 87       	std	Y+14, r22	; 0x0e
    2be4:	7f 87       	std	Y+15, r23	; 0x0f
    2be6:	88 8b       	std	Y+16, r24	; 0x10
    2be8:	99 8b       	std	Y+17, r25	; 0x11
    2bea:	6e 85       	ldd	r22, Y+14	; 0x0e
    2bec:	7f 85       	ldd	r23, Y+15	; 0x0f
    2bee:	88 89       	ldd	r24, Y+16	; 0x10
    2bf0:	99 89       	ldd	r25, Y+17	; 0x11
    2bf2:	2a e0       	ldi	r18, 0x0A	; 10
    2bf4:	ae 01       	movw	r20, r28
    2bf6:	45 5f       	subi	r20, 0xF5	; 245
    2bf8:	5f 4f       	sbci	r21, 0xFF	; 255
    2bfa:	0e 94 95 3b 	call	0x772a	; 0x772a <__ultoa_ncheck>
    2bfe:	8e 85       	ldd	r24, Y+14	; 0x0e
    2c00:	9f 85       	ldd	r25, Y+15	; 0x0f
    2c02:	a8 89       	ldd	r26, Y+16	; 0x10
    2c04:	b9 89       	ldd	r27, Y+17	; 0x11
    2c06:	0a 97       	sbiw	r24, 0x0a	; 10
    2c08:	a1 05       	cpc	r26, r1
    2c0a:	b1 05       	cpc	r27, r1
    2c0c:	48 f4       	brcc	.+18     	; 0x2c20 <_Z17display_time_menuPVmbhh+0x1b2>
    2c0e:	f8 01       	movw	r30, r16
    2c10:	01 90       	ld	r0, Z+
    2c12:	00 20       	and	r0, r0
    2c14:	e9 f7       	brne	.-6      	; 0x2c10 <_Z17display_time_menuPVmbhh+0x1a2>
    2c16:	31 97       	sbiw	r30, 0x01	; 1
    2c18:	80 e3       	ldi	r24, 0x30	; 48
    2c1a:	90 e0       	ldi	r25, 0x00	; 0
    2c1c:	80 83       	st	Z, r24
    2c1e:	91 83       	std	Z+1, r25	; 0x01
    2c20:	be 01       	movw	r22, r28
    2c22:	65 5f       	subi	r22, 0xF5	; 245
    2c24:	7f 4f       	sbci	r23, 0xFF	; 255
    2c26:	ce 01       	movw	r24, r28
    2c28:	01 96       	adiw	r24, 0x01	; 1
    2c2a:	0e 94 83 3b 	call	0x7706	; 0x7706 <strcat>
    2c2e:	f1 10       	cpse	r15, r1
    2c30:	05 c0       	rjmp	.+10     	; 0x2c3c <_Z17display_time_menuPVmbhh+0x1ce>
    2c32:	ce 01       	movw	r24, r28
    2c34:	01 96       	adiw	r24, 0x01	; 1
    2c36:	0e 94 9d 0a 	call	0x153a	; 0x153a <_Z8lcd_putsPKc>
    2c3a:	06 c0       	rjmp	.+12     	; 0x2c48 <_Z17display_time_menuPVmbhh+0x1da>
    2c3c:	4d 2d       	mov	r20, r13
    2c3e:	6e 2d       	mov	r22, r14
    2c40:	ce 01       	movw	r24, r28
    2c42:	01 96       	adiw	r24, 0x01	; 1
    2c44:	0e 94 bb 0a 	call	0x1576	; 0x1576 <_Z19lcd_puts_invert_posPKchh>
    2c48:	65 96       	adiw	r28, 0x15	; 21
    2c4a:	cd bf       	out	0x3d, r28	; 61
    2c4c:	de bf       	out	0x3e, r29	; 62
    2c4e:	df 91       	pop	r29
    2c50:	cf 91       	pop	r28
    2c52:	1f 91       	pop	r17
    2c54:	0f 91       	pop	r16
    2c56:	ff 90       	pop	r15
    2c58:	ef 90       	pop	r14
    2c5a:	df 90       	pop	r13
    2c5c:	08 95       	ret

00002c5e <_Z9ADCA_initv>:
    2c5e:	e0 e0       	ldi	r30, 0x00	; 0
    2c60:	f2 e0       	ldi	r31, 0x02	; 2
    2c62:	86 e3       	ldi	r24, 0x36	; 54
    2c64:	84 87       	std	Z+12, r24	; 0x0c
    2c66:	83 e0       	ldi	r24, 0x03	; 3
    2c68:	85 87       	std	Z+13, r24	; 0x0d
    2c6a:	11 82       	std	Z+1, r1	; 0x01
    2c6c:	82 e0       	ldi	r24, 0x02	; 2
    2c6e:	82 83       	std	Z+2, r24	; 0x02
    2c70:	87 e0       	ldi	r24, 0x07	; 7
    2c72:	84 83       	std	Z+4, r24	; 0x04
    2c74:	81 e0       	ldi	r24, 0x01	; 1
    2c76:	80 83       	st	Z, r24
    2c78:	08 95       	ret

00002c7a <_Z15ADCA_ConversionP13ADC_CH_structc>:
    2c7a:	fc 01       	movw	r30, r24
    2c7c:	81 e0       	ldi	r24, 0x01	; 1
    2c7e:	80 83       	st	Z, r24
    2c80:	66 0f       	add	r22, r22
    2c82:	66 0f       	add	r22, r22
    2c84:	66 0f       	add	r22, r22
    2c86:	61 83       	std	Z+1, r22	; 0x01
    2c88:	80 81       	ld	r24, Z
    2c8a:	80 68       	ori	r24, 0x80	; 128
    2c8c:	80 83       	st	Z, r24
    2c8e:	83 81       	ldd	r24, Z+3	; 0x03
    2c90:	88 23       	and	r24, r24
    2c92:	e9 f3       	breq	.-6      	; 0x2c8e <_Z15ADCA_ConversionP13ADC_CH_structc+0x14>
    2c94:	a0 e0       	ldi	r26, 0x00	; 0
    2c96:	b2 e0       	ldi	r27, 0x02	; 2
    2c98:	16 96       	adiw	r26, 0x06	; 6
    2c9a:	8c 91       	ld	r24, X
    2c9c:	16 97       	sbiw	r26, 0x06	; 6
    2c9e:	16 96       	adiw	r26, 0x06	; 6
    2ca0:	8c 93       	st	X, r24
    2ca2:	80 81       	ld	r24, Z
    2ca4:	80 68       	ori	r24, 0x80	; 128
    2ca6:	80 83       	st	Z, r24
    2ca8:	83 81       	ldd	r24, Z+3	; 0x03
    2caa:	88 23       	and	r24, r24
    2cac:	e9 f3       	breq	.-6      	; 0x2ca8 <_Z15ADCA_ConversionP13ADC_CH_structc+0x2e>
    2cae:	a0 e0       	ldi	r26, 0x00	; 0
    2cb0:	b2 e0       	ldi	r27, 0x02	; 2
    2cb2:	16 96       	adiw	r26, 0x06	; 6
    2cb4:	8c 91       	ld	r24, X
    2cb6:	16 97       	sbiw	r26, 0x06	; 6
    2cb8:	16 96       	adiw	r26, 0x06	; 6
    2cba:	8c 93       	st	X, r24
    2cbc:	84 81       	ldd	r24, Z+4	; 0x04
    2cbe:	95 81       	ldd	r25, Z+5	; 0x05
    2cc0:	08 95       	ret

00002cc2 <_Z12calc_voltagej>:
    2cc2:	9c 01       	movw	r18, r24
    2cc4:	a8 ee       	ldi	r26, 0xE8	; 232
    2cc6:	b3 e0       	ldi	r27, 0x03	; 3
    2cc8:	0e 94 59 3b 	call	0x76b2	; 0x76b2 <__umulhisi3>
    2ccc:	6c 50       	subi	r22, 0x0C	; 12
    2cce:	7e 41       	sbci	r23, 0x1E	; 30
    2cd0:	83 40       	sbci	r24, 0x03	; 3
    2cd2:	91 09       	sbc	r25, r1
    2cd4:	28 ee       	ldi	r18, 0xE8	; 232
    2cd6:	33 e0       	ldi	r19, 0x03	; 3
    2cd8:	40 e0       	ldi	r20, 0x00	; 0
    2cda:	50 e0       	ldi	r21, 0x00	; 0
    2cdc:	0e 94 0f 3b 	call	0x761e	; 0x761e <__udivmodsi4>
    2ce0:	a4 e1       	ldi	r26, 0x14	; 20
    2ce2:	bc e3       	ldi	r27, 0x3C	; 60
    2ce4:	0e 94 6f 3b 	call	0x76de	; 0x76de <__muluhisi3>
    2ce8:	dc 01       	movw	r26, r24
    2cea:	cb 01       	movw	r24, r22
    2cec:	07 2e       	mov	r0, r23
    2cee:	7c e0       	ldi	r23, 0x0C	; 12
    2cf0:	b6 95       	lsr	r27
    2cf2:	a7 95       	ror	r26
    2cf4:	97 95       	ror	r25
    2cf6:	87 95       	ror	r24
    2cf8:	7a 95       	dec	r23
    2cfa:	d1 f7       	brne	.-12     	; 0x2cf0 <_Z12calc_voltagej+0x2e>
    2cfc:	70 2d       	mov	r23, r0
    2cfe:	08 95       	ret

00002d00 <_Z14init_profile_av>:
    2d00:	cf 93       	push	r28
    2d02:	df 93       	push	r29
    2d04:	e0 91 0d 21 	lds	r30, 0x210D	; 0x80210d <p_Profile_a>
    2d08:	f0 91 0e 21 	lds	r31, 0x210E	; 0x80210e <p_Profile_a+0x1>
    2d0c:	8c e4       	ldi	r24, 0x4C	; 76
    2d0e:	94 e0       	ldi	r25, 0x04	; 4
    2d10:	81 87       	std	Z+9, r24	; 0x09
    2d12:	92 87       	std	Z+10, r25	; 0x0a
    2d14:	88 e5       	ldi	r24, 0x58	; 88
    2d16:	92 e0       	ldi	r25, 0x02	; 2
    2d18:	87 83       	std	Z+7, r24	; 0x07
    2d1a:	90 87       	std	Z+8, r25	; 0x08
    2d1c:	80 e8       	ldi	r24, 0x80	; 128
    2d1e:	91 e5       	ldi	r25, 0x51	; 81
    2d20:	a1 e0       	ldi	r26, 0x01	; 1
    2d22:	b0 e0       	ldi	r27, 0x00	; 0
    2d24:	87 87       	std	Z+15, r24	; 0x0f
    2d26:	90 8b       	std	Z+16, r25	; 0x10
    2d28:	a1 8b       	std	Z+17, r26	; 0x11
    2d2a:	b2 8b       	std	Z+18, r27	; 0x12
    2d2c:	8c e2       	ldi	r24, 0x2C	; 44
    2d2e:	91 e0       	ldi	r25, 0x01	; 1
    2d30:	a0 e0       	ldi	r26, 0x00	; 0
    2d32:	b0 e0       	ldi	r27, 0x00	; 0
    2d34:	87 8b       	std	Z+23, r24	; 0x17
    2d36:	90 8f       	std	Z+24, r25	; 0x18
    2d38:	a1 8f       	std	Z+25, r26	; 0x19
    2d3a:	b2 8f       	std	Z+26, r27	; 0x1a
    2d3c:	80 e2       	ldi	r24, 0x20	; 32
    2d3e:	9c e1       	ldi	r25, 0x1C	; 28
    2d40:	a0 e0       	ldi	r26, 0x00	; 0
    2d42:	b0 e0       	ldi	r27, 0x00	; 0
    2d44:	83 87       	std	Z+11, r24	; 0x0b
    2d46:	94 87       	std	Z+12, r25	; 0x0c
    2d48:	a5 87       	std	Z+13, r26	; 0x0d
    2d4a:	b6 87       	std	Z+14, r27	; 0x0e
    2d4c:	11 82       	std	Z+1, r1	; 0x01
    2d4e:	c0 91 0d 21 	lds	r28, 0x210D	; 0x80210d <p_Profile_a>
    2d52:	d0 91 0e 21 	lds	r29, 0x210E	; 0x80210e <p_Profile_a+0x1>
    2d56:	1a 82       	std	Y+2, r1	; 0x02
    2d58:	80 e1       	ldi	r24, 0x10	; 16
    2d5a:	9e e0       	ldi	r25, 0x0E	; 14
    2d5c:	a0 e0       	ldi	r26, 0x00	; 0
    2d5e:	b0 e0       	ldi	r27, 0x00	; 0
    2d60:	8b 8b       	std	Y+19, r24	; 0x13
    2d62:	9c 8b       	std	Y+20, r25	; 0x14
    2d64:	ad 8b       	std	Y+21, r26	; 0x15
    2d66:	be 8b       	std	Y+22, r27	; 0x16
    2d68:	81 e0       	ldi	r24, 0x01	; 1
    2d6a:	8c 83       	std	Y+4, r24	; 0x04
    2d6c:	1e 82       	std	Y+6, r1	; 0x06
    2d6e:	1b 82       	std	Y+3, r1	; 0x03
    2d70:	1d 82       	std	Y+5, r1	; 0x05
    2d72:	6b e1       	ldi	r22, 0x1B	; 27
    2d74:	ce 01       	movw	r24, r28
    2d76:	0e 94 f8 03 	call	0x7f0	; 0x7f0 <_Z24calculate_crc32_checksumPhh>
    2d7a:	6b 8f       	std	Y+27, r22	; 0x1b
    2d7c:	7c 8f       	std	Y+28, r23	; 0x1c
    2d7e:	8d 8f       	std	Y+29, r24	; 0x1d
    2d80:	9e 8f       	std	Y+30, r25	; 0x1e
    2d82:	28 e2       	ldi	r18, 0x28	; 40
    2d84:	30 e0       	ldi	r19, 0x00	; 0
    2d86:	40 91 24 23 	lds	r20, 0x2324	; 0x802324 <TWI_FRAM_present>
    2d8a:	60 e0       	ldi	r22, 0x00	; 0
    2d8c:	80 91 0d 21 	lds	r24, 0x210D	; 0x80210d <p_Profile_a>
    2d90:	90 91 0e 21 	lds	r25, 0x210E	; 0x80210e <p_Profile_a+0x1>
    2d94:	0e 94 08 05 	call	0xa10	; 0xa10 <_Z13write_profileP13Speed_profilehbj>
    2d98:	df 91       	pop	r29
    2d9a:	cf 91       	pop	r28
    2d9c:	08 95       	ret

00002d9e <_Z14init_profile_bv>:
    2d9e:	cf 93       	push	r28
    2da0:	df 93       	push	r29
    2da2:	e0 91 0b 21 	lds	r30, 0x210B	; 0x80210b <p_Profile_b>
    2da6:	f0 91 0c 21 	lds	r31, 0x210C	; 0x80210c <p_Profile_b+0x1>
    2daa:	80 e2       	ldi	r24, 0x20	; 32
    2dac:	9c e1       	ldi	r25, 0x1C	; 28
    2dae:	a0 e0       	ldi	r26, 0x00	; 0
    2db0:	b0 e0       	ldi	r27, 0x00	; 0
    2db2:	83 87       	std	Z+11, r24	; 0x0b
    2db4:	94 87       	std	Z+12, r25	; 0x0c
    2db6:	a5 87       	std	Z+13, r26	; 0x0d
    2db8:	b6 87       	std	Z+14, r27	; 0x0e
    2dba:	8c e4       	ldi	r24, 0x4C	; 76
    2dbc:	94 e0       	ldi	r25, 0x04	; 4
    2dbe:	81 87       	std	Z+9, r24	; 0x09
    2dc0:	92 87       	std	Z+10, r25	; 0x0a
    2dc2:	88 e5       	ldi	r24, 0x58	; 88
    2dc4:	92 e0       	ldi	r25, 0x02	; 2
    2dc6:	87 83       	std	Z+7, r24	; 0x07
    2dc8:	90 87       	std	Z+8, r25	; 0x08
    2dca:	80 e8       	ldi	r24, 0x80	; 128
    2dcc:	91 e5       	ldi	r25, 0x51	; 81
    2dce:	a1 e0       	ldi	r26, 0x01	; 1
    2dd0:	b0 e0       	ldi	r27, 0x00	; 0
    2dd2:	87 87       	std	Z+15, r24	; 0x0f
    2dd4:	90 8b       	std	Z+16, r25	; 0x10
    2dd6:	a1 8b       	std	Z+17, r26	; 0x11
    2dd8:	b2 8b       	std	Z+18, r27	; 0x12
    2dda:	8c e3       	ldi	r24, 0x3C	; 60
    2ddc:	90 e0       	ldi	r25, 0x00	; 0
    2dde:	a0 e0       	ldi	r26, 0x00	; 0
    2de0:	b0 e0       	ldi	r27, 0x00	; 0
    2de2:	87 8b       	std	Z+23, r24	; 0x17
    2de4:	90 8f       	std	Z+24, r25	; 0x18
    2de6:	a1 8f       	std	Z+25, r26	; 0x19
    2de8:	b2 8f       	std	Z+26, r27	; 0x1a
    2dea:	11 82       	std	Z+1, r1	; 0x01
    2dec:	c0 91 0b 21 	lds	r28, 0x210B	; 0x80210b <p_Profile_b>
    2df0:	d0 91 0c 21 	lds	r29, 0x210C	; 0x80210c <p_Profile_b+0x1>
    2df4:	1a 82       	std	Y+2, r1	; 0x02
    2df6:	80 e1       	ldi	r24, 0x10	; 16
    2df8:	9e e0       	ldi	r25, 0x0E	; 14
    2dfa:	a0 e0       	ldi	r26, 0x00	; 0
    2dfc:	b0 e0       	ldi	r27, 0x00	; 0
    2dfe:	8b 8b       	std	Y+19, r24	; 0x13
    2e00:	9c 8b       	std	Y+20, r25	; 0x14
    2e02:	ad 8b       	std	Y+21, r26	; 0x15
    2e04:	be 8b       	std	Y+22, r27	; 0x16
    2e06:	81 e0       	ldi	r24, 0x01	; 1
    2e08:	8c 83       	std	Y+4, r24	; 0x04
    2e0a:	1b 82       	std	Y+3, r1	; 0x03
    2e0c:	1e 82       	std	Y+6, r1	; 0x06
    2e0e:	1d 82       	std	Y+5, r1	; 0x05
    2e10:	6b e1       	ldi	r22, 0x1B	; 27
    2e12:	ce 01       	movw	r24, r28
    2e14:	0e 94 f8 03 	call	0x7f0	; 0x7f0 <_Z24calculate_crc32_checksumPhh>
    2e18:	6b 8f       	std	Y+27, r22	; 0x1b
    2e1a:	7c 8f       	std	Y+28, r23	; 0x1c
    2e1c:	8d 8f       	std	Y+29, r24	; 0x1d
    2e1e:	9e 8f       	std	Y+30, r25	; 0x1e
    2e20:	27 e4       	ldi	r18, 0x47	; 71
    2e22:	30 e0       	ldi	r19, 0x00	; 0
    2e24:	40 91 24 23 	lds	r20, 0x2324	; 0x802324 <TWI_FRAM_present>
    2e28:	60 e0       	ldi	r22, 0x00	; 0
    2e2a:	80 91 0b 21 	lds	r24, 0x210B	; 0x80210b <p_Profile_b>
    2e2e:	90 91 0c 21 	lds	r25, 0x210C	; 0x80210c <p_Profile_b+0x1>
    2e32:	0e 94 08 05 	call	0xa10	; 0xa10 <_Z13write_profileP13Speed_profilehbj>
    2e36:	df 91       	pop	r29
    2e38:	cf 91       	pop	r28
    2e3a:	08 95       	ret

00002e3c <_Z14init_parameterP20regulator_parametershb>:
    2e3c:	0f 93       	push	r16
    2e3e:	1f 93       	push	r17
    2e40:	cf 93       	push	r28
    2e42:	df 93       	push	r29
    2e44:	ec 01       	movw	r28, r24
    2e46:	16 2f       	mov	r17, r22
    2e48:	04 2f       	mov	r16, r20
    2e4a:	80 ea       	ldi	r24, 0xA0	; 160
    2e4c:	96 e8       	ldi	r25, 0x86	; 134
    2e4e:	a1 e0       	ldi	r26, 0x01	; 1
    2e50:	b0 e0       	ldi	r27, 0x00	; 0
    2e52:	88 83       	st	Y, r24
    2e54:	99 83       	std	Y+1, r25	; 0x01
    2e56:	aa 83       	std	Y+2, r26	; 0x02
    2e58:	bb 83       	std	Y+3, r27	; 0x03
    2e5a:	88 87       	std	Y+8, r24	; 0x08
    2e5c:	99 87       	std	Y+9, r25	; 0x09
    2e5e:	aa 87       	std	Y+10, r26	; 0x0a
    2e60:	bb 87       	std	Y+11, r27	; 0x0b
    2e62:	8c 83       	std	Y+4, r24	; 0x04
    2e64:	9d 83       	std	Y+5, r25	; 0x05
    2e66:	ae 83       	std	Y+6, r26	; 0x06
    2e68:	bf 83       	std	Y+7, r27	; 0x07
    2e6a:	8c 87       	std	Y+12, r24	; 0x0c
    2e6c:	9d 87       	std	Y+13, r25	; 0x0d
    2e6e:	ae 87       	std	Y+14, r26	; 0x0e
    2e70:	bf 87       	std	Y+15, r27	; 0x0f
    2e72:	60 e1       	ldi	r22, 0x10	; 16
    2e74:	ce 01       	movw	r24, r28
    2e76:	0e 94 f8 03 	call	0x7f0	; 0x7f0 <_Z24calculate_crc32_checksumPhh>
    2e7a:	68 8b       	std	Y+16, r22	; 0x10
    2e7c:	79 8b       	std	Y+17, r23	; 0x11
    2e7e:	8a 8b       	std	Y+18, r24	; 0x12
    2e80:	9b 8b       	std	Y+19, r25	; 0x13
    2e82:	20 e0       	ldi	r18, 0x00	; 0
    2e84:	30 e0       	ldi	r19, 0x00	; 0
    2e86:	40 2f       	mov	r20, r16
    2e88:	61 2f       	mov	r22, r17
    2e8a:	ce 01       	movw	r24, r28
    2e8c:	0e 94 4f 05 	call	0xa9e	; 0xa9e <_Z19write_param_profileP20regulator_parametershbj>
    2e90:	df 91       	pop	r29
    2e92:	cf 91       	pop	r28
    2e94:	1f 91       	pop	r17
    2e96:	0f 91       	pop	r16
    2e98:	08 95       	ret

00002e9a <_Z13init_profile_P13Speed_profile>:

void init_profile_(p_Speed_profile_t p_profile_)
{
    2e9a:	cf 93       	push	r28
    2e9c:	df 93       	push	r29
    2e9e:	ec 01       	movw	r28, r24
	p_profile_->time_fast_init = 2UL * 3600UL;
    2ea0:	80 e2       	ldi	r24, 0x20	; 32
    2ea2:	9c e1       	ldi	r25, 0x1C	; 28
    2ea4:	a0 e0       	ldi	r26, 0x00	; 0
    2ea6:	b0 e0       	ldi	r27, 0x00	; 0
    2ea8:	8b 87       	std	Y+11, r24	; 0x0b
    2eaa:	9c 87       	std	Y+12, r25	; 0x0c
    2eac:	ad 87       	std	Y+13, r26	; 0x0d
    2eae:	be 87       	std	Y+14, r27	; 0x0e
	p_profile_->speed_fast = 1100;
    2eb0:	8c e4       	ldi	r24, 0x4C	; 76
    2eb2:	94 e0       	ldi	r25, 0x04	; 4
    2eb4:	89 87       	std	Y+9, r24	; 0x09
    2eb6:	9a 87       	std	Y+10, r25	; 0x0a
	p_profile_->speed_slow = 600;
    2eb8:	88 e5       	ldi	r24, 0x58	; 88
    2eba:	92 e0       	ldi	r25, 0x02	; 2
    2ebc:	8f 83       	std	Y+7, r24	; 0x07
    2ebe:	98 87       	std	Y+8, r25	; 0x08
	p_profile_->total_time = 24UL * 3600UL;
    2ec0:	80 e8       	ldi	r24, 0x80	; 128
    2ec2:	91 e5       	ldi	r25, 0x51	; 81
    2ec4:	a1 e0       	ldi	r26, 0x01	; 1
    2ec6:	b0 e0       	ldi	r27, 0x00	; 0
    2ec8:	8f 87       	std	Y+15, r24	; 0x0f
    2eca:	98 8b       	std	Y+16, r25	; 0x10
    2ecc:	a9 8b       	std	Y+17, r26	; 0x11
    2ece:	ba 8b       	std	Y+18, r27	; 0x12
	p_profile_->speed_time = 6UL * 10UL;
    2ed0:	8c e3       	ldi	r24, 0x3C	; 60
    2ed2:	90 e0       	ldi	r25, 0x00	; 0
    2ed4:	a0 e0       	ldi	r26, 0x00	; 0
    2ed6:	b0 e0       	ldi	r27, 0x00	; 0
    2ed8:	8f 8b       	std	Y+23, r24	; 0x17
    2eda:	98 8f       	std	Y+24, r25	; 0x18
    2edc:	a9 8f       	std	Y+25, r26	; 0x19
    2ede:	ba 8f       	std	Y+26, r27	; 0x1a
	p_profile_->status = 0;
    2ee0:	19 82       	std	Y+1, r1	; 0x01
	p_profile_->type = type_normal;
    2ee2:	1a 82       	std	Y+2, r1	; 0x02
	p_profile_->time_slow = 1UL * 3600UL;
    2ee4:	80 e1       	ldi	r24, 0x10	; 16
    2ee6:	9e e0       	ldi	r25, 0x0E	; 14
    2ee8:	a0 e0       	ldi	r26, 0x00	; 0
    2eea:	b0 e0       	ldi	r27, 0x00	; 0
    2eec:	8b 8b       	std	Y+19, r24	; 0x13
    2eee:	9c 8b       	std	Y+20, r25	; 0x14
    2ef0:	ad 8b       	std	Y+21, r26	; 0x15
    2ef2:	be 8b       	std	Y+22, r27	; 0x16
	p_profile_->slowdown = true;
    2ef4:	81 e0       	ldi	r24, 0x01	; 1
    2ef6:	8c 83       	std	Y+4, r24	; 0x04
	p_profile_->switchoff = false;
    2ef8:	1b 82       	std	Y+3, r1	; 0x03
	p_profile_->slowdown_switch = false;
    2efa:	1e 82       	std	Y+6, r1	; 0x06
	p_profile_->speedup = false;
    2efc:	1d 82       	std	Y+5, r1	; 0x05
	p_profile_->CRC_value = calculate_crc32_checksum((unsigned char *)p_profile_,sizeof(Speed_profile_t)-4);
    2efe:	6b e1       	ldi	r22, 0x1B	; 27
    2f00:	ce 01       	movw	r24, r28
    2f02:	0e 94 f8 03 	call	0x7f0	; 0x7f0 <_Z24calculate_crc32_checksumPhh>
    2f06:	6b 8f       	std	Y+27, r22	; 0x1b
    2f08:	7c 8f       	std	Y+28, r23	; 0x1c
    2f0a:	8d 8f       	std	Y+29, r24	; 0x1d
    2f0c:	9e 8f       	std	Y+30, r25	; 0x1e
	//write_profile(p_Profile_b,ID_mod+4,TWI_FRAM_present);
	
}
    2f0e:	df 91       	pop	r29
    2f10:	cf 91       	pop	r28
    2f12:	08 95       	ret

00002f14 <_Z19change_profile_menuPhP13Speed_profilePcS_S_Pb>:
		
	
}

void change_profile_menu(uint8_t *position_,p_Speed_profile_t p_profile_,char *int_buffer,uint8_t *old_position_,uint8_t *ID_,bool *screen_clear_)
{
    2f14:	4f 92       	push	r4
    2f16:	5f 92       	push	r5
    2f18:	6f 92       	push	r6
    2f1a:	7f 92       	push	r7
    2f1c:	8f 92       	push	r8
    2f1e:	9f 92       	push	r9
    2f20:	af 92       	push	r10
    2f22:	bf 92       	push	r11
    2f24:	cf 92       	push	r12
    2f26:	df 92       	push	r13
    2f28:	ef 92       	push	r14
    2f2a:	ff 92       	push	r15
    2f2c:	0f 93       	push	r16
    2f2e:	1f 93       	push	r17
    2f30:	cf 93       	push	r28
    2f32:	df 93       	push	r29
    2f34:	3c 01       	movw	r6, r24
    2f36:	eb 01       	movw	r28, r22
    2f38:	6a 01       	movw	r12, r20
    2f3a:	29 01       	movw	r4, r18
	
	static bool reload = true;
	if(reload)
    2f3c:	80 91 01 21 	lds	r24, 0x2101	; 0x802101 <_ZZ19change_profile_menuPhP13Speed_profilePcS_S_PbE6reload>
    2f40:	88 23       	and	r24, r24
    2f42:	d9 f0       	breq	.+54     	; 0x2f7a <_Z19change_profile_menuPhP13Speed_profilePcS_S_Pb+0x66>
	{
		reload = false;
    2f44:	10 92 01 21 	sts	0x2101, r1	; 0x802101 <_ZZ19change_profile_menuPhP13Speed_profilePcS_S_PbE6reload>
		read_profile(p_profile_,*ID_,TWI_FRAM_present,offset_profiles);
    2f48:	26 e6       	ldi	r18, 0x66	; 102
    2f4a:	30 e0       	ldi	r19, 0x00	; 0
    2f4c:	40 91 24 23 	lds	r20, 0x2324	; 0x802324 <TWI_FRAM_present>
    2f50:	f8 01       	movw	r30, r16
    2f52:	60 81       	ld	r22, Z
    2f54:	ce 01       	movw	r24, r28
    2f56:	0e 94 b5 04 	call	0x96a	; 0x96a <_Z12read_profileP13Speed_profilehbj>
		
		if(p_profile_->CRC_value != calculate_crc32_checksum((unsigned char *)p_profile_,sizeof(Speed_profile_t)-4))
    2f5a:	8b 8c       	ldd	r8, Y+27	; 0x1b
    2f5c:	9c 8c       	ldd	r9, Y+28	; 0x1c
    2f5e:	ad 8c       	ldd	r10, Y+29	; 0x1d
    2f60:	be 8c       	ldd	r11, Y+30	; 0x1e
    2f62:	6b e1       	ldi	r22, 0x1B	; 27
    2f64:	ce 01       	movw	r24, r28
    2f66:	0e 94 f8 03 	call	0x7f0	; 0x7f0 <_Z24calculate_crc32_checksumPhh>
    2f6a:	86 16       	cp	r8, r22
    2f6c:	97 06       	cpc	r9, r23
    2f6e:	a8 06       	cpc	r10, r24
    2f70:	b9 06       	cpc	r11, r25
    2f72:	19 f0       	breq	.+6      	; 0x2f7a <_Z19change_profile_menuPhP13Speed_profilePcS_S_Pb+0x66>
			init_profile_(p_profile_);
    2f74:	ce 01       	movw	r24, r28
    2f76:	0e 94 4d 17 	call	0x2e9a	; 0x2e9a <_Z13init_profile_P13Speed_profile>
	}
	static bool change = false;
	if(*screen_clear_)
    2f7a:	f7 01       	movw	r30, r14
    2f7c:	80 81       	ld	r24, Z
    2f7e:	88 23       	and	r24, r24
    2f80:	09 f4       	brne	.+2      	; 0x2f84 <_Z19change_profile_menuPhP13Speed_profilePcS_S_Pb+0x70>
    2f82:	b3 c0       	rjmp	.+358    	; 0x30ea <__stack+0xeb>
	{
		*screen_clear_ = false;
    2f84:	10 82       	st	Z, r1
		lcd_clrscr(port_expander_present);
    2f86:	80 91 25 23 	lds	r24, 0x2325	; 0x802325 <port_expander_present>
    2f8a:	0e 94 85 06 	call	0xd0a	; 0xd0a <_Z10lcd_clrscrb>
		lcd_gotoxy(1,0,port_expander_present);
    2f8e:	40 91 25 23 	lds	r20, 0x2325	; 0x802325 <port_expander_present>
    2f92:	60 e0       	ldi	r22, 0x00	; 0
    2f94:	81 e0       	ldi	r24, 0x01	; 1
    2f96:	0e 94 0f 06 	call	0xc1e	; 0xc1e <_Z10lcd_gotoxyhhb>
		lcd_puts("Profil bearbeiten");
    2f9a:	8d ed       	ldi	r24, 0xDD	; 221
    2f9c:	91 e2       	ldi	r25, 0x21	; 33
    2f9e:	0e 94 9d 0a 	call	0x153a	; 0x153a <_Z8lcd_putsPKc>
		lcd_gotoxy(1,1,port_expander_present);
    2fa2:	40 91 25 23 	lds	r20, 0x2325	; 0x802325 <port_expander_present>
    2fa6:	61 e0       	ldi	r22, 0x01	; 1
    2fa8:	81 e0       	ldi	r24, 0x01	; 1
    2faa:	0e 94 0f 06 	call	0xc1e	; 0xc1e <_Z10lcd_gotoxyhhb>
		lcd_puts("ID :");
    2fae:	8f ee       	ldi	r24, 0xEF	; 239
    2fb0:	91 e2       	ldi	r25, 0x21	; 33
    2fb2:	0e 94 9d 0a 	call	0x153a	; 0x153a <_Z8lcd_putsPKc>
		if(*ID_ <100)
    2fb6:	f8 01       	movw	r30, r16
    2fb8:	80 81       	ld	r24, Z
    2fba:	84 36       	cpi	r24, 0x64	; 100
    2fbc:	20 f4       	brcc	.+8      	; 0x2fc6 <_Z19change_profile_menuPhP13Speed_profilePcS_S_Pb+0xb2>
			lcd_puts(" ");
    2fbe:	8b ed       	ldi	r24, 0xDB	; 219
    2fc0:	91 e2       	ldi	r25, 0x21	; 33
    2fc2:	0e 94 9d 0a 	call	0x153a	; 0x153a <_Z8lcd_putsPKc>
		if(*ID_ <10)
    2fc6:	f8 01       	movw	r30, r16
    2fc8:	80 81       	ld	r24, Z
    2fca:	8a 30       	cpi	r24, 0x0A	; 10
    2fcc:	20 f4       	brcc	.+8      	; 0x2fd6 <_Z19change_profile_menuPhP13Speed_profilePcS_S_Pb+0xc2>
			lcd_puts(" ");
    2fce:	8b ed       	ldi	r24, 0xDB	; 219
    2fd0:	91 e2       	ldi	r25, 0x21	; 33
    2fd2:	0e 94 9d 0a 	call	0x153a	; 0x153a <_Z8lcd_putsPKc>
    } else if (__radix < 2 || __radix > 36) {
	*__s = 0;
	return __s;
    } else {
	extern char *__utoa_ncheck (unsigned int, char *, unsigned char);
	return __utoa_ncheck (__val, __s, __radix);
    2fd6:	f8 01       	movw	r30, r16
    2fd8:	80 81       	ld	r24, Z
    2fda:	4a e0       	ldi	r20, 0x0A	; 10
    2fdc:	b6 01       	movw	r22, r12
    2fde:	90 e0       	ldi	r25, 0x00	; 0
    2fe0:	0e 94 b7 3b 	call	0x776e	; 0x776e <__utoa_ncheck>
		utoa(*ID_,int_buffer,10);
		lcd_puts(int_buffer);
    2fe4:	c6 01       	movw	r24, r12
    2fe6:	0e 94 9d 0a 	call	0x153a	; 0x153a <_Z8lcd_putsPKc>
		lcd_gotoxy(1,2,port_expander_present);
    2fea:	40 91 25 23 	lds	r20, 0x2325	; 0x802325 <port_expander_present>
    2fee:	62 e0       	ldi	r22, 0x02	; 2
    2ff0:	81 e0       	ldi	r24, 0x01	; 1
    2ff2:	0e 94 0f 06 	call	0xc1e	; 0xc1e <_Z10lcd_gotoxyhhb>
		lcd_puts("Typ: ");
    2ff6:	84 ef       	ldi	r24, 0xF4	; 244
    2ff8:	91 e2       	ldi	r25, 0x21	; 33
    2ffa:	0e 94 9d 0a 	call	0x153a	; 0x153a <_Z8lcd_putsPKc>
		if(p_profile_->type == type_normal)
    2ffe:	8a 81       	ldd	r24, Y+2	; 0x02
    3000:	81 11       	cpse	r24, r1
    3002:	04 c0       	rjmp	.+8      	; 0x300c <__stack+0xd>
		lcd_puts("normal");
    3004:	8a ef       	ldi	r24, 0xFA	; 250
    3006:	91 e2       	ldi	r25, 0x21	; 33
    3008:	0e 94 9d 0a 	call	0x153a	; 0x153a <_Z8lcd_putsPKc>
		if(p_profile_->type == type_switch)
    300c:	8a 81       	ldd	r24, Y+2	; 0x02
    300e:	81 30       	cpi	r24, 0x01	; 1
    3010:	21 f4       	brne	.+8      	; 0x301a <__stack+0x1b>
		lcd_puts("wechselnd");
    3012:	81 e0       	ldi	r24, 0x01	; 1
    3014:	92 e2       	ldi	r25, 0x22	; 34
    3016:	0e 94 9d 0a 	call	0x153a	; 0x153a <_Z8lcd_putsPKc>
		if(p_profile_->type == type_stop)
    301a:	8a 81       	ldd	r24, Y+2	; 0x02
    301c:	82 30       	cpi	r24, 0x02	; 2
    301e:	21 f4       	brne	.+8      	; 0x3028 <__stack+0x29>
		lcd_puts("sedimentieren");
    3020:	8b e0       	ldi	r24, 0x0B	; 11
    3022:	92 e2       	ldi	r25, 0x22	; 34
    3024:	0e 94 9d 0a 	call	0x153a	; 0x153a <_Z8lcd_putsPKc>
		lcd_gotoxy(1,3,port_expander_present);
    3028:	40 91 25 23 	lds	r20, 0x2325	; 0x802325 <port_expander_present>
    302c:	63 e0       	ldi	r22, 0x03	; 3
    302e:	81 e0       	ldi	r24, 0x01	; 1
    3030:	0e 94 0f 06 	call	0xc1e	; 0xc1e <_Z10lcd_gotoxyhhb>
		lcd_puts("Langsam: ");
    3034:	89 e1       	ldi	r24, 0x19	; 25
    3036:	92 e2       	ldi	r25, 0x22	; 34
    3038:	0e 94 9d 0a 	call	0x153a	; 0x153a <_Z8lcd_putsPKc>
    303c:	4a e0       	ldi	r20, 0x0A	; 10
    303e:	b6 01       	movw	r22, r12
    3040:	8f 81       	ldd	r24, Y+7	; 0x07
    3042:	98 85       	ldd	r25, Y+8	; 0x08
    3044:	0e 94 b7 3b 	call	0x776e	; 0x776e <__utoa_ncheck>
		utoa(p_profile_->speed_slow,int_buffer,10);
		lcd_puts(int_buffer);
    3048:	c6 01       	movw	r24, r12
    304a:	0e 94 9d 0a 	call	0x153a	; 0x153a <_Z8lcd_putsPKc>
		lcd_puts(" UpM");
    304e:	83 e2       	ldi	r24, 0x23	; 35
    3050:	92 e2       	ldi	r25, 0x22	; 34
    3052:	0e 94 9d 0a 	call	0x153a	; 0x153a <_Z8lcd_putsPKc>
		lcd_gotoxy(1,4,port_expander_present);
    3056:	40 91 25 23 	lds	r20, 0x2325	; 0x802325 <port_expander_present>
    305a:	64 e0       	ldi	r22, 0x04	; 4
    305c:	81 e0       	ldi	r24, 0x01	; 1
    305e:	0e 94 0f 06 	call	0xc1e	; 0xc1e <_Z10lcd_gotoxyhhb>
		lcd_puts("Schnell: ");
    3062:	88 e2       	ldi	r24, 0x28	; 40
    3064:	92 e2       	ldi	r25, 0x22	; 34
    3066:	0e 94 9d 0a 	call	0x153a	; 0x153a <_Z8lcd_putsPKc>
    306a:	4a e0       	ldi	r20, 0x0A	; 10
    306c:	b6 01       	movw	r22, r12
    306e:	89 85       	ldd	r24, Y+9	; 0x09
    3070:	9a 85       	ldd	r25, Y+10	; 0x0a
    3072:	0e 94 b7 3b 	call	0x776e	; 0x776e <__utoa_ncheck>
		utoa(p_profile_->speed_fast,int_buffer,10);
		lcd_puts(int_buffer);
    3076:	c6 01       	movw	r24, r12
    3078:	0e 94 9d 0a 	call	0x153a	; 0x153a <_Z8lcd_putsPKc>
		lcd_puts(" UpM");
    307c:	83 e2       	ldi	r24, 0x23	; 35
    307e:	92 e2       	ldi	r25, 0x22	; 34
    3080:	0e 94 9d 0a 	call	0x153a	; 0x153a <_Z8lcd_putsPKc>
		lcd_gotoxy(1,5,port_expander_present);
    3084:	40 91 25 23 	lds	r20, 0x2325	; 0x802325 <port_expander_present>
    3088:	65 e0       	ldi	r22, 0x05	; 5
    308a:	81 e0       	ldi	r24, 0x01	; 1
    308c:	0e 94 0f 06 	call	0xc1e	; 0xc1e <_Z10lcd_gotoxyhhb>
		lcd_puts("t schnell ");
    3090:	82 e3       	ldi	r24, 0x32	; 50
    3092:	92 e2       	ldi	r25, 0x22	; 34
    3094:	0e 94 9d 0a 	call	0x153a	; 0x153a <_Z8lcd_putsPKc>
		display_time_menu(&p_profile_->time_fast_init,false,0,0);
    3098:	20 e0       	ldi	r18, 0x00	; 0
    309a:	40 e0       	ldi	r20, 0x00	; 0
    309c:	60 e0       	ldi	r22, 0x00	; 0
    309e:	ce 01       	movw	r24, r28
    30a0:	0b 96       	adiw	r24, 0x0b	; 11
    30a2:	0e 94 37 15 	call	0x2a6e	; 0x2a6e <_Z17display_time_menuPVmbhh>
		lcd_gotoxy(1,6,port_expander_present);
    30a6:	40 91 25 23 	lds	r20, 0x2325	; 0x802325 <port_expander_present>
    30aa:	66 e0       	ldi	r22, 0x06	; 6
    30ac:	81 e0       	ldi	r24, 0x01	; 1
    30ae:	0e 94 0f 06 	call	0xc1e	; 0xc1e <_Z10lcd_gotoxyhhb>
		lcd_puts("t Gesamt  ");
    30b2:	8d e3       	ldi	r24, 0x3D	; 61
    30b4:	92 e2       	ldi	r25, 0x22	; 34
    30b6:	0e 94 9d 0a 	call	0x153a	; 0x153a <_Z8lcd_putsPKc>
		display_time_menu(&p_profile_->total_time,false,0,0);
    30ba:	20 e0       	ldi	r18, 0x00	; 0
    30bc:	40 e0       	ldi	r20, 0x00	; 0
    30be:	60 e0       	ldi	r22, 0x00	; 0
    30c0:	ce 01       	movw	r24, r28
    30c2:	0f 96       	adiw	r24, 0x0f	; 15
    30c4:	0e 94 37 15 	call	0x2a6e	; 0x2a6e <_Z17display_time_menuPVmbhh>
		lcd_gotoxy(1,7,port_expander_present);
    30c8:	40 91 25 23 	lds	r20, 0x2325	; 0x802325 <port_expander_present>
    30cc:	67 e0       	ldi	r22, 0x07	; 7
    30ce:	81 e0       	ldi	r24, 0x01	; 1
    30d0:	0e 94 0f 06 	call	0xc1e	; 0xc1e <_Z10lcd_gotoxyhhb>
		lcd_puts("t langsam ");
    30d4:	88 e4       	ldi	r24, 0x48	; 72
    30d6:	92 e2       	ldi	r25, 0x22	; 34
    30d8:	0e 94 9d 0a 	call	0x153a	; 0x153a <_Z8lcd_putsPKc>
		display_time_menu(&p_profile_->time_slow,false,0,0);
    30dc:	20 e0       	ldi	r18, 0x00	; 0
    30de:	40 e0       	ldi	r20, 0x00	; 0
    30e0:	60 e0       	ldi	r22, 0x00	; 0
    30e2:	ce 01       	movw	r24, r28
    30e4:	43 96       	adiw	r24, 0x13	; 19
    30e6:	0e 94 37 15 	call	0x2a6e	; 0x2a6e <_Z17display_time_menuPVmbhh>
	}
	if(menu.sub_menu >0)
    30ea:	e0 91 a0 23 	lds	r30, 0x23A0	; 0x8023a0 <menu>
    30ee:	ee 23       	and	r30, r30
    30f0:	09 f4       	brne	.+2      	; 0x30f4 <__stack+0xf5>
    30f2:	7b c3       	rjmp	.+1782   	; 0x37ea <__stack+0x7eb>
	{
		switch(menu.sub_menu)
    30f4:	8e 2f       	mov	r24, r30
    30f6:	90 e0       	ldi	r25, 0x00	; 0
    30f8:	fc 01       	movw	r30, r24
    30fa:	70 97       	sbiw	r30, 0x10	; 16
    30fc:	e3 36       	cpi	r30, 0x63	; 99
    30fe:	f1 05       	cpc	r31, r1
    3100:	08 f0       	brcs	.+2      	; 0x3104 <__stack+0x105>
    3102:	73 c3       	rjmp	.+1766   	; 0x37ea <__stack+0x7eb>
    3104:	e0 59       	subi	r30, 0x90	; 144
    3106:	fe 4f       	sbci	r31, 0xFE	; 254
    3108:	0c 94 50 3b 	jmp	0x76a0	; 0x76a0 <__tablejump2__>
		{
			case 0x10:
			{
				*ID_ += encode_read2();
    310c:	0e 94 b4 10 	call	0x2168	; 0x2168 <_Z12encode_read2v>
    3110:	f8 01       	movw	r30, r16
    3112:	90 81       	ld	r25, Z
    3114:	89 0f       	add	r24, r25
    3116:	80 83       	st	Z, r24
				lcd_gotoxy(1,1,port_expander_present);
    3118:	40 91 25 23 	lds	r20, 0x2325	; 0x802325 <port_expander_present>
    311c:	61 e0       	ldi	r22, 0x01	; 1
    311e:	81 e0       	ldi	r24, 0x01	; 1
    3120:	0e 94 0f 06 	call	0xc1e	; 0xc1e <_Z10lcd_gotoxyhhb>
				lcd_puts("ID :");
    3124:	8f ee       	ldi	r24, 0xEF	; 239
    3126:	91 e2       	ldi	r25, 0x21	; 33
    3128:	0e 94 9d 0a 	call	0x153a	; 0x153a <_Z8lcd_putsPKc>
				if(*ID_ <100)
    312c:	f8 01       	movw	r30, r16
    312e:	80 81       	ld	r24, Z
    3130:	84 36       	cpi	r24, 0x64	; 100
    3132:	20 f4       	brcc	.+8      	; 0x313c <__stack+0x13d>
					lcd_puts(" ");
    3134:	8b ed       	ldi	r24, 0xDB	; 219
    3136:	91 e2       	ldi	r25, 0x21	; 33
    3138:	0e 94 9d 0a 	call	0x153a	; 0x153a <_Z8lcd_putsPKc>
				if(*ID_ <10)
    313c:	f8 01       	movw	r30, r16
    313e:	80 81       	ld	r24, Z
    3140:	8a 30       	cpi	r24, 0x0A	; 10
    3142:	20 f4       	brcc	.+8      	; 0x314c <__stack+0x14d>
					lcd_puts(" ");
    3144:	8b ed       	ldi	r24, 0xDB	; 219
    3146:	91 e2       	ldi	r25, 0x21	; 33
    3148:	0e 94 9d 0a 	call	0x153a	; 0x153a <_Z8lcd_putsPKc>
    314c:	f8 01       	movw	r30, r16
    314e:	80 81       	ld	r24, Z
    3150:	4a e0       	ldi	r20, 0x0A	; 10
    3152:	b6 01       	movw	r22, r12
    3154:	90 e0       	ldi	r25, 0x00	; 0
    3156:	0e 94 b7 3b 	call	0x776e	; 0x776e <__utoa_ncheck>
				utoa(*ID_,int_buffer,10);
				lcd_puts_invert(int_buffer);
    315a:	c6 01       	movw	r24, r12
    315c:	0e 94 ac 0a 	call	0x1558	; 0x1558 <_Z15lcd_puts_invertPKc>
				if( get_key_short( 1<<KEY0 ))
    3160:	80 e1       	ldi	r24, 0x10	; 16
    3162:	0e 94 b1 0b 	call	0x1762	; 0x1762 <_Z13get_key_shorth>
    3166:	88 23       	and	r24, r24
    3168:	09 f4       	brne	.+2      	; 0x316c <__stack+0x16d>
    316a:	3f c3       	rjmp	.+1662   	; 0x37ea <__stack+0x7eb>
				{
					reload = true;
    316c:	81 e0       	ldi	r24, 0x01	; 1
    316e:	80 93 01 21 	sts	0x2101, r24	; 0x802101 <_ZZ19change_profile_menuPhP13Speed_profilePcS_S_PbE6reload>
					*screen_clear_ = true;
    3172:	f7 01       	movw	r30, r14
    3174:	80 83       	st	Z, r24
					*position_ = 1;
    3176:	f3 01       	movw	r30, r6
    3178:	80 83       	st	Z, r24
					*old_position_ = 2;
    317a:	82 e0       	ldi	r24, 0x02	; 2
    317c:	f2 01       	movw	r30, r4
    317e:	80 83       	st	Z, r24
					menu.sub_menu = 0;
    3180:	10 92 a0 23 	sts	0x23A0, r1	; 0x8023a0 <menu>
    3184:	32 c3       	rjmp	.+1636   	; 0x37ea <__stack+0x7eb>
				
			}
			break;
			case 0x20:
			{
				p_profile_->type += encode_read2();
    3186:	0e 94 b4 10 	call	0x2168	; 0x2168 <_Z12encode_read2v>
    318a:	9a 81       	ldd	r25, Y+2	; 0x02
    318c:	89 0f       	add	r24, r25
				if(p_profile_->type==255)
    318e:	8f 3f       	cpi	r24, 0xFF	; 255
    3190:	11 f0       	breq	.+4      	; 0x3196 <__stack+0x197>
				
			}
			break;
			case 0x20:
			{
				p_profile_->type += encode_read2();
    3192:	8a 83       	std	Y+2, r24	; 0x02
    3194:	02 c0       	rjmp	.+4      	; 0x319a <__stack+0x19b>
				if(p_profile_->type==255)
				p_profile_->type = 2;
    3196:	82 e0       	ldi	r24, 0x02	; 2
    3198:	8a 83       	std	Y+2, r24	; 0x02
				p_profile_->type %=3;
    319a:	9a 81       	ldd	r25, Y+2	; 0x02
    319c:	8b ea       	ldi	r24, 0xAB	; 171
    319e:	98 9f       	mul	r25, r24
    31a0:	81 2d       	mov	r24, r1
    31a2:	11 24       	eor	r1, r1
    31a4:	86 95       	lsr	r24
    31a6:	28 2f       	mov	r18, r24
    31a8:	22 0f       	add	r18, r18
    31aa:	82 0f       	add	r24, r18
    31ac:	98 1b       	sub	r25, r24
    31ae:	9a 83       	std	Y+2, r25	; 0x02
				lcd_gotoxy(1,2,port_expander_present);
    31b0:	40 91 25 23 	lds	r20, 0x2325	; 0x802325 <port_expander_present>
    31b4:	62 e0       	ldi	r22, 0x02	; 2
    31b6:	81 e0       	ldi	r24, 0x01	; 1
    31b8:	0e 94 0f 06 	call	0xc1e	; 0xc1e <_Z10lcd_gotoxyhhb>
				lcd_puts("Typ: ");
    31bc:	84 ef       	ldi	r24, 0xF4	; 244
    31be:	91 e2       	ldi	r25, 0x21	; 33
    31c0:	0e 94 9d 0a 	call	0x153a	; 0x153a <_Z8lcd_putsPKc>
				if(p_profile_->type == type_normal)
    31c4:	8a 81       	ldd	r24, Y+2	; 0x02
    31c6:	81 11       	cpse	r24, r1
    31c8:	04 c0       	rjmp	.+8      	; 0x31d2 <__stack+0x1d3>
				lcd_puts_invert("normal");
    31ca:	8a ef       	ldi	r24, 0xFA	; 250
    31cc:	91 e2       	ldi	r25, 0x21	; 33
    31ce:	0e 94 ac 0a 	call	0x1558	; 0x1558 <_Z15lcd_puts_invertPKc>
				if(p_profile_->type == type_switch)
    31d2:	8a 81       	ldd	r24, Y+2	; 0x02
    31d4:	81 30       	cpi	r24, 0x01	; 1
    31d6:	21 f4       	brne	.+8      	; 0x31e0 <__stack+0x1e1>
				lcd_puts_invert("wechselnd");
    31d8:	81 e0       	ldi	r24, 0x01	; 1
    31da:	92 e2       	ldi	r25, 0x22	; 34
    31dc:	0e 94 ac 0a 	call	0x1558	; 0x1558 <_Z15lcd_puts_invertPKc>
				if(p_profile_->type == type_stop)
    31e0:	8a 81       	ldd	r24, Y+2	; 0x02
    31e2:	82 30       	cpi	r24, 0x02	; 2
    31e4:	21 f4       	brne	.+8      	; 0x31ee <__stack+0x1ef>
				lcd_puts_invert("sedimentieren");
    31e6:	8b e0       	ldi	r24, 0x0B	; 11
    31e8:	92 e2       	ldi	r25, 0x22	; 34
    31ea:	0e 94 ac 0a 	call	0x1558	; 0x1558 <_Z15lcd_puts_invertPKc>
				if( get_key_short( 1<<KEY0 ))
    31ee:	80 e1       	ldi	r24, 0x10	; 16
    31f0:	0e 94 b1 0b 	call	0x1762	; 0x1762 <_Z13get_key_shorth>
    31f4:	88 23       	and	r24, r24
    31f6:	09 f4       	brne	.+2      	; 0x31fa <__stack+0x1fb>
    31f8:	f8 c2       	rjmp	.+1520   	; 0x37ea <__stack+0x7eb>
				{
					lcd_gotoxy(1,2,port_expander_present);
    31fa:	40 91 25 23 	lds	r20, 0x2325	; 0x802325 <port_expander_present>
    31fe:	62 e0       	ldi	r22, 0x02	; 2
    3200:	81 e0       	ldi	r24, 0x01	; 1
    3202:	0e 94 0f 06 	call	0xc1e	; 0xc1e <_Z10lcd_gotoxyhhb>
					lcd_puts("Typ: ");
    3206:	84 ef       	ldi	r24, 0xF4	; 244
    3208:	91 e2       	ldi	r25, 0x21	; 33
    320a:	0e 94 9d 0a 	call	0x153a	; 0x153a <_Z8lcd_putsPKc>
					if(p_profile_->type == type_normal)
    320e:	8a 81       	ldd	r24, Y+2	; 0x02
    3210:	81 11       	cpse	r24, r1
    3212:	04 c0       	rjmp	.+8      	; 0x321c <__stack+0x21d>
					lcd_puts("normal");
    3214:	8a ef       	ldi	r24, 0xFA	; 250
    3216:	91 e2       	ldi	r25, 0x21	; 33
    3218:	0e 94 9d 0a 	call	0x153a	; 0x153a <_Z8lcd_putsPKc>
					if(p_profile_->type == type_switch)
    321c:	8a 81       	ldd	r24, Y+2	; 0x02
    321e:	81 30       	cpi	r24, 0x01	; 1
    3220:	21 f4       	brne	.+8      	; 0x322a <__stack+0x22b>
					lcd_puts("wechselnd");
    3222:	81 e0       	ldi	r24, 0x01	; 1
    3224:	92 e2       	ldi	r25, 0x22	; 34
    3226:	0e 94 9d 0a 	call	0x153a	; 0x153a <_Z8lcd_putsPKc>
					if(p_profile_->type == type_stop)
    322a:	8a 81       	ldd	r24, Y+2	; 0x02
    322c:	82 30       	cpi	r24, 0x02	; 2
    322e:	21 f4       	brne	.+8      	; 0x3238 <__stack+0x239>
					lcd_puts("sedimentieren");
    3230:	8b e0       	ldi	r24, 0x0B	; 11
    3232:	92 e2       	ldi	r25, 0x22	; 34
    3234:	0e 94 9d 0a 	call	0x153a	; 0x153a <_Z8lcd_putsPKc>
					
					*position_ = 2;
    3238:	82 e0       	ldi	r24, 0x02	; 2
    323a:	f3 01       	movw	r30, r6
    323c:	80 83       	st	Z, r24
					*old_position_ = 1;
    323e:	81 e0       	ldi	r24, 0x01	; 1
    3240:	f2 01       	movw	r30, r4
    3242:	80 83       	st	Z, r24
					menu.sub_menu = 0;
    3244:	10 92 a0 23 	sts	0x23A0, r1	; 0x8023a0 <menu>
    3248:	d0 c2       	rjmp	.+1440   	; 0x37ea <__stack+0x7eb>
				
			}
			break;
			case 0x30:
			{
				p_profile_->speed_slow += encode_read2() * 10;
    324a:	0e 94 b4 10 	call	0x2168	; 0x2168 <_Z12encode_read2v>
    324e:	08 2e       	mov	r0, r24
    3250:	00 0c       	add	r0, r0
    3252:	99 0b       	sbc	r25, r25
    3254:	9c 01       	movw	r18, r24
    3256:	22 0f       	add	r18, r18
    3258:	33 1f       	adc	r19, r19
    325a:	88 0f       	add	r24, r24
    325c:	99 1f       	adc	r25, r25
    325e:	88 0f       	add	r24, r24
    3260:	99 1f       	adc	r25, r25
    3262:	88 0f       	add	r24, r24
    3264:	99 1f       	adc	r25, r25
    3266:	82 0f       	add	r24, r18
    3268:	93 1f       	adc	r25, r19
    326a:	2f 81       	ldd	r18, Y+7	; 0x07
    326c:	38 85       	ldd	r19, Y+8	; 0x08
    326e:	82 0f       	add	r24, r18
    3270:	93 1f       	adc	r25, r19
    3272:	8f 83       	std	Y+7, r24	; 0x07
    3274:	98 87       	std	Y+8, r25	; 0x08
				lcd_gotoxy(10,3,port_expander_present);
    3276:	40 91 25 23 	lds	r20, 0x2325	; 0x802325 <port_expander_present>
    327a:	63 e0       	ldi	r22, 0x03	; 3
    327c:	8a e0       	ldi	r24, 0x0A	; 10
    327e:	0e 94 0f 06 	call	0xc1e	; 0xc1e <_Z10lcd_gotoxyhhb>
				if(p_Profile_a->speed_slow <10)
    3282:	e0 91 0d 21 	lds	r30, 0x210D	; 0x80210d <p_Profile_a>
    3286:	f0 91 0e 21 	lds	r31, 0x210E	; 0x80210e <p_Profile_a+0x1>
    328a:	87 81       	ldd	r24, Z+7	; 0x07
    328c:	90 85       	ldd	r25, Z+8	; 0x08
    328e:	0a 97       	sbiw	r24, 0x0a	; 10
    3290:	20 f4       	brcc	.+8      	; 0x329a <__stack+0x29b>
				lcd_puts(" ");
    3292:	8b ed       	ldi	r24, 0xDB	; 219
    3294:	91 e2       	ldi	r25, 0x21	; 33
    3296:	0e 94 9d 0a 	call	0x153a	; 0x153a <_Z8lcd_putsPKc>
				if(p_profile_->speed_slow <100)
    329a:	8f 81       	ldd	r24, Y+7	; 0x07
    329c:	98 85       	ldd	r25, Y+8	; 0x08
    329e:	84 36       	cpi	r24, 0x64	; 100
    32a0:	91 05       	cpc	r25, r1
    32a2:	20 f4       	brcc	.+8      	; 0x32ac <__stack+0x2ad>
				lcd_puts(" ");
    32a4:	8b ed       	ldi	r24, 0xDB	; 219
    32a6:	91 e2       	ldi	r25, 0x21	; 33
    32a8:	0e 94 9d 0a 	call	0x153a	; 0x153a <_Z8lcd_putsPKc>
				if(p_profile_->speed_slow <1000)
    32ac:	8f 81       	ldd	r24, Y+7	; 0x07
    32ae:	98 85       	ldd	r25, Y+8	; 0x08
    32b0:	88 3e       	cpi	r24, 0xE8	; 232
    32b2:	93 40       	sbci	r25, 0x03	; 3
    32b4:	20 f4       	brcc	.+8      	; 0x32be <__stack+0x2bf>
				lcd_puts(" ");
    32b6:	8b ed       	ldi	r24, 0xDB	; 219
    32b8:	91 e2       	ldi	r25, 0x21	; 33
    32ba:	0e 94 9d 0a 	call	0x153a	; 0x153a <_Z8lcd_putsPKc>
    32be:	4a e0       	ldi	r20, 0x0A	; 10
    32c0:	b6 01       	movw	r22, r12
    32c2:	8f 81       	ldd	r24, Y+7	; 0x07
    32c4:	98 85       	ldd	r25, Y+8	; 0x08
    32c6:	0e 94 b7 3b 	call	0x776e	; 0x776e <__utoa_ncheck>
				utoa(p_profile_->speed_slow,int_buffer,10);
				lcd_puts_invert(int_buffer);
    32ca:	c6 01       	movw	r24, r12
    32cc:	0e 94 ac 0a 	call	0x1558	; 0x1558 <_Z15lcd_puts_invertPKc>
				lcd_puts(" UpM");
    32d0:	83 e2       	ldi	r24, 0x23	; 35
    32d2:	92 e2       	ldi	r25, 0x22	; 34
    32d4:	0e 94 9d 0a 	call	0x153a	; 0x153a <_Z8lcd_putsPKc>
				if( get_key_short( 1<<KEY0 ))
    32d8:	80 e1       	ldi	r24, 0x10	; 16
    32da:	0e 94 b1 0b 	call	0x1762	; 0x1762 <_Z13get_key_shorth>
    32de:	88 23       	and	r24, r24
    32e0:	09 f4       	brne	.+2      	; 0x32e4 <__stack+0x2e5>
    32e2:	83 c2       	rjmp	.+1286   	; 0x37ea <__stack+0x7eb>
				{
					lcd_gotoxy(10,3,port_expander_present);
    32e4:	40 91 25 23 	lds	r20, 0x2325	; 0x802325 <port_expander_present>
    32e8:	63 e0       	ldi	r22, 0x03	; 3
    32ea:	8a e0       	ldi	r24, 0x0A	; 10
    32ec:	0e 94 0f 06 	call	0xc1e	; 0xc1e <_Z10lcd_gotoxyhhb>
					if(p_profile_->speed_slow <10)
    32f0:	8f 81       	ldd	r24, Y+7	; 0x07
    32f2:	98 85       	ldd	r25, Y+8	; 0x08
    32f4:	0a 97       	sbiw	r24, 0x0a	; 10
    32f6:	20 f4       	brcc	.+8      	; 0x3300 <__stack+0x301>
					lcd_puts(" ");
    32f8:	8b ed       	ldi	r24, 0xDB	; 219
    32fa:	91 e2       	ldi	r25, 0x21	; 33
    32fc:	0e 94 9d 0a 	call	0x153a	; 0x153a <_Z8lcd_putsPKc>
					if(p_profile_->speed_slow <100)
    3300:	8f 81       	ldd	r24, Y+7	; 0x07
    3302:	98 85       	ldd	r25, Y+8	; 0x08
    3304:	84 36       	cpi	r24, 0x64	; 100
    3306:	91 05       	cpc	r25, r1
    3308:	20 f4       	brcc	.+8      	; 0x3312 <__stack+0x313>
					lcd_puts(" ");
    330a:	8b ed       	ldi	r24, 0xDB	; 219
    330c:	91 e2       	ldi	r25, 0x21	; 33
    330e:	0e 94 9d 0a 	call	0x153a	; 0x153a <_Z8lcd_putsPKc>
					if(p_profile_->speed_slow <1000)
    3312:	8f 81       	ldd	r24, Y+7	; 0x07
    3314:	98 85       	ldd	r25, Y+8	; 0x08
    3316:	88 3e       	cpi	r24, 0xE8	; 232
    3318:	93 40       	sbci	r25, 0x03	; 3
    331a:	20 f4       	brcc	.+8      	; 0x3324 <__stack+0x325>
					lcd_puts(" ");
    331c:	8b ed       	ldi	r24, 0xDB	; 219
    331e:	91 e2       	ldi	r25, 0x21	; 33
    3320:	0e 94 9d 0a 	call	0x153a	; 0x153a <_Z8lcd_putsPKc>
    3324:	4a e0       	ldi	r20, 0x0A	; 10
    3326:	b6 01       	movw	r22, r12
    3328:	8f 81       	ldd	r24, Y+7	; 0x07
    332a:	98 85       	ldd	r25, Y+8	; 0x08
    332c:	0e 94 b7 3b 	call	0x776e	; 0x776e <__utoa_ncheck>
					utoa(p_profile_->speed_slow,int_buffer,10);
					lcd_puts(int_buffer);
    3330:	c6 01       	movw	r24, r12
    3332:	0e 94 9d 0a 	call	0x153a	; 0x153a <_Z8lcd_putsPKc>
					lcd_puts(" UpM");
    3336:	83 e2       	ldi	r24, 0x23	; 35
    3338:	92 e2       	ldi	r25, 0x22	; 34
    333a:	0e 94 9d 0a 	call	0x153a	; 0x153a <_Z8lcd_putsPKc>
					*position_ = 3;
    333e:	83 e0       	ldi	r24, 0x03	; 3
    3340:	f3 01       	movw	r30, r6
    3342:	80 83       	st	Z, r24
					*old_position_ = 2;
    3344:	82 e0       	ldi	r24, 0x02	; 2
    3346:	f2 01       	movw	r30, r4
    3348:	80 83       	st	Z, r24
					menu.sub_menu = 0;
    334a:	10 92 a0 23 	sts	0x23A0, r1	; 0x8023a0 <menu>
    334e:	4d c2       	rjmp	.+1178   	; 0x37ea <__stack+0x7eb>
				
			}
			break;
			case 0x40:
			{
				p_profile_->speed_fast += encode_read2() * 10;
    3350:	0e 94 b4 10 	call	0x2168	; 0x2168 <_Z12encode_read2v>
    3354:	08 2e       	mov	r0, r24
    3356:	00 0c       	add	r0, r0
    3358:	99 0b       	sbc	r25, r25
    335a:	9c 01       	movw	r18, r24
    335c:	22 0f       	add	r18, r18
    335e:	33 1f       	adc	r19, r19
    3360:	88 0f       	add	r24, r24
    3362:	99 1f       	adc	r25, r25
    3364:	88 0f       	add	r24, r24
    3366:	99 1f       	adc	r25, r25
    3368:	88 0f       	add	r24, r24
    336a:	99 1f       	adc	r25, r25
    336c:	82 0f       	add	r24, r18
    336e:	93 1f       	adc	r25, r19
    3370:	29 85       	ldd	r18, Y+9	; 0x09
    3372:	3a 85       	ldd	r19, Y+10	; 0x0a
    3374:	82 0f       	add	r24, r18
    3376:	93 1f       	adc	r25, r19
    3378:	89 87       	std	Y+9, r24	; 0x09
    337a:	9a 87       	std	Y+10, r25	; 0x0a
				lcd_gotoxy(10,4,port_expander_present);
    337c:	40 91 25 23 	lds	r20, 0x2325	; 0x802325 <port_expander_present>
    3380:	64 e0       	ldi	r22, 0x04	; 4
    3382:	8a e0       	ldi	r24, 0x0A	; 10
    3384:	0e 94 0f 06 	call	0xc1e	; 0xc1e <_Z10lcd_gotoxyhhb>
				if(p_profile_->speed_fast <10)
    3388:	89 85       	ldd	r24, Y+9	; 0x09
    338a:	9a 85       	ldd	r25, Y+10	; 0x0a
    338c:	0a 97       	sbiw	r24, 0x0a	; 10
    338e:	20 f4       	brcc	.+8      	; 0x3398 <__stack+0x399>
				lcd_puts(" ");
    3390:	8b ed       	ldi	r24, 0xDB	; 219
    3392:	91 e2       	ldi	r25, 0x21	; 33
    3394:	0e 94 9d 0a 	call	0x153a	; 0x153a <_Z8lcd_putsPKc>
				if(p_profile_->speed_fast <100)
    3398:	89 85       	ldd	r24, Y+9	; 0x09
    339a:	9a 85       	ldd	r25, Y+10	; 0x0a
    339c:	84 36       	cpi	r24, 0x64	; 100
    339e:	91 05       	cpc	r25, r1
    33a0:	20 f4       	brcc	.+8      	; 0x33aa <__stack+0x3ab>
				lcd_puts(" ");
    33a2:	8b ed       	ldi	r24, 0xDB	; 219
    33a4:	91 e2       	ldi	r25, 0x21	; 33
    33a6:	0e 94 9d 0a 	call	0x153a	; 0x153a <_Z8lcd_putsPKc>
				if(p_profile_->speed_fast <1000)
    33aa:	89 85       	ldd	r24, Y+9	; 0x09
    33ac:	9a 85       	ldd	r25, Y+10	; 0x0a
    33ae:	88 3e       	cpi	r24, 0xE8	; 232
    33b0:	93 40       	sbci	r25, 0x03	; 3
    33b2:	20 f4       	brcc	.+8      	; 0x33bc <__stack+0x3bd>
				lcd_puts(" ");
    33b4:	8b ed       	ldi	r24, 0xDB	; 219
    33b6:	91 e2       	ldi	r25, 0x21	; 33
    33b8:	0e 94 9d 0a 	call	0x153a	; 0x153a <_Z8lcd_putsPKc>
    33bc:	4a e0       	ldi	r20, 0x0A	; 10
    33be:	b6 01       	movw	r22, r12
    33c0:	89 85       	ldd	r24, Y+9	; 0x09
    33c2:	9a 85       	ldd	r25, Y+10	; 0x0a
    33c4:	0e 94 b7 3b 	call	0x776e	; 0x776e <__utoa_ncheck>
				utoa(p_profile_->speed_fast,int_buffer,10);
				lcd_puts_invert(int_buffer);
    33c8:	c6 01       	movw	r24, r12
    33ca:	0e 94 ac 0a 	call	0x1558	; 0x1558 <_Z15lcd_puts_invertPKc>
				lcd_puts(" UpM");
    33ce:	83 e2       	ldi	r24, 0x23	; 35
    33d0:	92 e2       	ldi	r25, 0x22	; 34
    33d2:	0e 94 9d 0a 	call	0x153a	; 0x153a <_Z8lcd_putsPKc>
				if( get_key_short( 1<<KEY0 ))
    33d6:	80 e1       	ldi	r24, 0x10	; 16
    33d8:	0e 94 b1 0b 	call	0x1762	; 0x1762 <_Z13get_key_shorth>
    33dc:	88 23       	and	r24, r24
    33de:	09 f4       	brne	.+2      	; 0x33e2 <__stack+0x3e3>
    33e0:	04 c2       	rjmp	.+1032   	; 0x37ea <__stack+0x7eb>
				{
					lcd_gotoxy(10,4,port_expander_present);
    33e2:	40 91 25 23 	lds	r20, 0x2325	; 0x802325 <port_expander_present>
    33e6:	64 e0       	ldi	r22, 0x04	; 4
    33e8:	8a e0       	ldi	r24, 0x0A	; 10
    33ea:	0e 94 0f 06 	call	0xc1e	; 0xc1e <_Z10lcd_gotoxyhhb>
					if(p_profile_->speed_fast <10)
    33ee:	89 85       	ldd	r24, Y+9	; 0x09
    33f0:	9a 85       	ldd	r25, Y+10	; 0x0a
    33f2:	0a 97       	sbiw	r24, 0x0a	; 10
    33f4:	20 f4       	brcc	.+8      	; 0x33fe <__stack+0x3ff>
					lcd_puts(" ");
    33f6:	8b ed       	ldi	r24, 0xDB	; 219
    33f8:	91 e2       	ldi	r25, 0x21	; 33
    33fa:	0e 94 9d 0a 	call	0x153a	; 0x153a <_Z8lcd_putsPKc>
					if(p_profile_->speed_fast <100)
    33fe:	89 85       	ldd	r24, Y+9	; 0x09
    3400:	9a 85       	ldd	r25, Y+10	; 0x0a
    3402:	84 36       	cpi	r24, 0x64	; 100
    3404:	91 05       	cpc	r25, r1
    3406:	20 f4       	brcc	.+8      	; 0x3410 <__stack+0x411>
					lcd_puts(" ");
    3408:	8b ed       	ldi	r24, 0xDB	; 219
    340a:	91 e2       	ldi	r25, 0x21	; 33
    340c:	0e 94 9d 0a 	call	0x153a	; 0x153a <_Z8lcd_putsPKc>
					if(p_profile_->speed_fast <1000)
    3410:	89 85       	ldd	r24, Y+9	; 0x09
    3412:	9a 85       	ldd	r25, Y+10	; 0x0a
    3414:	88 3e       	cpi	r24, 0xE8	; 232
    3416:	93 40       	sbci	r25, 0x03	; 3
    3418:	20 f4       	brcc	.+8      	; 0x3422 <__stack+0x423>
					lcd_puts(" ");
    341a:	8b ed       	ldi	r24, 0xDB	; 219
    341c:	91 e2       	ldi	r25, 0x21	; 33
    341e:	0e 94 9d 0a 	call	0x153a	; 0x153a <_Z8lcd_putsPKc>
    3422:	4a e0       	ldi	r20, 0x0A	; 10
    3424:	b6 01       	movw	r22, r12
    3426:	89 85       	ldd	r24, Y+9	; 0x09
    3428:	9a 85       	ldd	r25, Y+10	; 0x0a
    342a:	0e 94 b7 3b 	call	0x776e	; 0x776e <__utoa_ncheck>
					utoa(p_profile_->speed_fast,int_buffer,10);
					lcd_puts(int_buffer);
    342e:	c6 01       	movw	r24, r12
    3430:	0e 94 9d 0a 	call	0x153a	; 0x153a <_Z8lcd_putsPKc>
					lcd_puts(" UpM");
    3434:	83 e2       	ldi	r24, 0x23	; 35
    3436:	92 e2       	ldi	r25, 0x22	; 34
    3438:	0e 94 9d 0a 	call	0x153a	; 0x153a <_Z8lcd_putsPKc>
					*position_ = 4;
    343c:	84 e0       	ldi	r24, 0x04	; 4
    343e:	f3 01       	movw	r30, r6
    3440:	80 83       	st	Z, r24
					*old_position_ = 2;
    3442:	82 e0       	ldi	r24, 0x02	; 2
    3444:	f2 01       	movw	r30, r4
    3446:	80 83       	st	Z, r24
					menu.sub_menu = 0;
    3448:	10 92 a0 23 	sts	0x23A0, r1	; 0x8023a0 <menu>
    344c:	ce c1       	rjmp	.+924    	; 0x37ea <__stack+0x7eb>
			}
			break;
			case 0x50:
			{
				
				update_proile_time(&p_profile_->time_fast_init,encode_read2() * 3600,max_profile_time);
    344e:	0e 94 b4 10 	call	0x2168	; 0x2168 <_Z12encode_read2v>
    3452:	2b 96       	adiw	r28, 0x0b	; 11
    3454:	20 e1       	ldi	r18, 0x10	; 16
    3456:	3e e0       	ldi	r19, 0x0E	; 14
    3458:	48 2f       	mov	r20, r24
    345a:	42 03       	mulsu	r20, r18
    345c:	b0 01       	movw	r22, r0
    345e:	43 9f       	mul	r20, r19
    3460:	70 0d       	add	r23, r0
    3462:	11 24       	eor	r1, r1
    3464:	20 e0       	ldi	r18, 0x00	; 0
    3466:	36 e4       	ldi	r19, 0x46	; 70
    3468:	45 e0       	ldi	r20, 0x05	; 5
    346a:	50 e0       	ldi	r21, 0x00	; 0
    346c:	ce 01       	movw	r24, r28
    346e:	0e 94 f2 13 	call	0x27e4	; 0x27e4 <_Z18update_proile_timePmim>
				//p_Profile_a->time_fast_init += encode_read2() * 3600;
				lcd_gotoxy(11,5,port_expander_present);
    3472:	40 91 25 23 	lds	r20, 0x2325	; 0x802325 <port_expander_present>
    3476:	65 e0       	ldi	r22, 0x05	; 5
    3478:	8b e0       	ldi	r24, 0x0B	; 11
    347a:	0e 94 0f 06 	call	0xc1e	; 0xc1e <_Z10lcd_gotoxyhhb>
				display_time_menu(&p_profile_->time_fast_init,true,0,1);
    347e:	21 e0       	ldi	r18, 0x01	; 1
    3480:	40 e0       	ldi	r20, 0x00	; 0
    3482:	61 e0       	ldi	r22, 0x01	; 1
    3484:	ce 01       	movw	r24, r28
    3486:	0e 94 37 15 	call	0x2a6e	; 0x2a6e <_Z17display_time_menuPVmbhh>
				if( get_key_short( 1<<KEY0 ))
    348a:	80 e1       	ldi	r24, 0x10	; 16
    348c:	0e 94 b1 0b 	call	0x1762	; 0x1762 <_Z13get_key_shorth>
    3490:	88 23       	and	r24, r24
    3492:	09 f4       	brne	.+2      	; 0x3496 <__stack+0x497>
    3494:	aa c1       	rjmp	.+852    	; 0x37ea <__stack+0x7eb>
				{
					lcd_gotoxy(11,5,port_expander_present);
    3496:	40 91 25 23 	lds	r20, 0x2325	; 0x802325 <port_expander_present>
    349a:	65 e0       	ldi	r22, 0x05	; 5
    349c:	8b e0       	ldi	r24, 0x0B	; 11
    349e:	0e 94 0f 06 	call	0xc1e	; 0xc1e <_Z10lcd_gotoxyhhb>
					display_time_menu(&p_profile_->time_fast_init,false,0,0);
    34a2:	20 e0       	ldi	r18, 0x00	; 0
    34a4:	40 e0       	ldi	r20, 0x00	; 0
    34a6:	60 e0       	ldi	r22, 0x00	; 0
    34a8:	ce 01       	movw	r24, r28
    34aa:	0e 94 37 15 	call	0x2a6e	; 0x2a6e <_Z17display_time_menuPVmbhh>
					
					menu.sub_menu = 0x51;
    34ae:	81 e5       	ldi	r24, 0x51	; 81
    34b0:	80 93 a0 23 	sts	0x23A0, r24	; 0x8023a0 <menu>
    34b4:	9a c1       	rjmp	.+820    	; 0x37ea <__stack+0x7eb>
				
			}
			break;
			case 0x51:
			{
				update_proile_time(&p_profile_->time_fast_init,encode_read2() * 60,max_profile_time);
    34b6:	0e 94 b4 10 	call	0x2168	; 0x2168 <_Z12encode_read2v>
    34ba:	2b 96       	adiw	r28, 0x0b	; 11
    34bc:	9c e3       	ldi	r25, 0x3C	; 60
    34be:	89 02       	muls	r24, r25
    34c0:	b0 01       	movw	r22, r0
    34c2:	11 24       	eor	r1, r1
    34c4:	20 e0       	ldi	r18, 0x00	; 0
    34c6:	36 e4       	ldi	r19, 0x46	; 70
    34c8:	45 e0       	ldi	r20, 0x05	; 5
    34ca:	50 e0       	ldi	r21, 0x00	; 0
    34cc:	ce 01       	movw	r24, r28
    34ce:	0e 94 f2 13 	call	0x27e4	; 0x27e4 <_Z18update_proile_timePmim>
				//p_Profile_a->time_fast_init += encode_read2() * 60;
				lcd_gotoxy(11,5,port_expander_present);
    34d2:	40 91 25 23 	lds	r20, 0x2325	; 0x802325 <port_expander_present>
    34d6:	65 e0       	ldi	r22, 0x05	; 5
    34d8:	8b e0       	ldi	r24, 0x0B	; 11
    34da:	0e 94 0f 06 	call	0xc1e	; 0xc1e <_Z10lcd_gotoxyhhb>
				display_time_menu(&p_profile_->time_fast_init,true,3,4);
    34de:	24 e0       	ldi	r18, 0x04	; 4
    34e0:	43 e0       	ldi	r20, 0x03	; 3
    34e2:	61 e0       	ldi	r22, 0x01	; 1
    34e4:	ce 01       	movw	r24, r28
    34e6:	0e 94 37 15 	call	0x2a6e	; 0x2a6e <_Z17display_time_menuPVmbhh>
				if( get_key_short( 1<<KEY0 ))
    34ea:	80 e1       	ldi	r24, 0x10	; 16
    34ec:	0e 94 b1 0b 	call	0x1762	; 0x1762 <_Z13get_key_shorth>
    34f0:	88 23       	and	r24, r24
    34f2:	09 f4       	brne	.+2      	; 0x34f6 <__stack+0x4f7>
    34f4:	7a c1       	rjmp	.+756    	; 0x37ea <__stack+0x7eb>
				{
					lcd_gotoxy(11,5,port_expander_present);
    34f6:	40 91 25 23 	lds	r20, 0x2325	; 0x802325 <port_expander_present>
    34fa:	65 e0       	ldi	r22, 0x05	; 5
    34fc:	8b e0       	ldi	r24, 0x0B	; 11
    34fe:	0e 94 0f 06 	call	0xc1e	; 0xc1e <_Z10lcd_gotoxyhhb>
					display_time_menu(&p_profile_->time_fast_init,false,0,0);
    3502:	20 e0       	ldi	r18, 0x00	; 0
    3504:	40 e0       	ldi	r20, 0x00	; 0
    3506:	60 e0       	ldi	r22, 0x00	; 0
    3508:	ce 01       	movw	r24, r28
    350a:	0e 94 37 15 	call	0x2a6e	; 0x2a6e <_Z17display_time_menuPVmbhh>
					
					menu.sub_menu = 0x52;
    350e:	82 e5       	ldi	r24, 0x52	; 82
    3510:	80 93 a0 23 	sts	0x23A0, r24	; 0x8023a0 <menu>
    3514:	6a c1       	rjmp	.+724    	; 0x37ea <__stack+0x7eb>
				
			}
			break;
			case 0x52:
			{
				update_proile_time(&p_profile_->time_fast_init,encode_read2(),max_profile_time);
    3516:	0e 94 b4 10 	call	0x2168	; 0x2168 <_Z12encode_read2v>
    351a:	2b 96       	adiw	r28, 0x0b	; 11
    351c:	68 2f       	mov	r22, r24
    351e:	88 0f       	add	r24, r24
    3520:	77 0b       	sbc	r23, r23
    3522:	20 e0       	ldi	r18, 0x00	; 0
    3524:	36 e4       	ldi	r19, 0x46	; 70
    3526:	45 e0       	ldi	r20, 0x05	; 5
    3528:	50 e0       	ldi	r21, 0x00	; 0
    352a:	ce 01       	movw	r24, r28
    352c:	0e 94 f2 13 	call	0x27e4	; 0x27e4 <_Z18update_proile_timePmim>
				//p_Profile_a->time_fast_init += encode_read2() ;
				lcd_gotoxy(11,5,port_expander_present);
    3530:	40 91 25 23 	lds	r20, 0x2325	; 0x802325 <port_expander_present>
    3534:	65 e0       	ldi	r22, 0x05	; 5
    3536:	8b e0       	ldi	r24, 0x0B	; 11
    3538:	0e 94 0f 06 	call	0xc1e	; 0xc1e <_Z10lcd_gotoxyhhb>
				display_time_menu(&p_profile_->time_fast_init,true,6,7);
    353c:	27 e0       	ldi	r18, 0x07	; 7
    353e:	46 e0       	ldi	r20, 0x06	; 6
    3540:	61 e0       	ldi	r22, 0x01	; 1
    3542:	ce 01       	movw	r24, r28
    3544:	0e 94 37 15 	call	0x2a6e	; 0x2a6e <_Z17display_time_menuPVmbhh>
				if( get_key_short( 1<<KEY0 ))
    3548:	80 e1       	ldi	r24, 0x10	; 16
    354a:	0e 94 b1 0b 	call	0x1762	; 0x1762 <_Z13get_key_shorth>
    354e:	88 23       	and	r24, r24
    3550:	09 f4       	brne	.+2      	; 0x3554 <__stack+0x555>
    3552:	4b c1       	rjmp	.+662    	; 0x37ea <__stack+0x7eb>
				{
					lcd_gotoxy(11,5,port_expander_present);
    3554:	40 91 25 23 	lds	r20, 0x2325	; 0x802325 <port_expander_present>
    3558:	65 e0       	ldi	r22, 0x05	; 5
    355a:	8b e0       	ldi	r24, 0x0B	; 11
    355c:	0e 94 0f 06 	call	0xc1e	; 0xc1e <_Z10lcd_gotoxyhhb>
					display_time_menu(&p_profile_->time_fast_init,false,0,0);
    3560:	20 e0       	ldi	r18, 0x00	; 0
    3562:	40 e0       	ldi	r20, 0x00	; 0
    3564:	60 e0       	ldi	r22, 0x00	; 0
    3566:	ce 01       	movw	r24, r28
    3568:	0e 94 37 15 	call	0x2a6e	; 0x2a6e <_Z17display_time_menuPVmbhh>
					*position_ = 5;
    356c:	85 e0       	ldi	r24, 0x05	; 5
    356e:	f3 01       	movw	r30, r6
    3570:	80 83       	st	Z, r24
					*old_position_ = 2;
    3572:	82 e0       	ldi	r24, 0x02	; 2
    3574:	f2 01       	movw	r30, r4
    3576:	80 83       	st	Z, r24
					menu.sub_menu = 0x00;
    3578:	10 92 a0 23 	sts	0x23A0, r1	; 0x8023a0 <menu>
    357c:	36 c1       	rjmp	.+620    	; 0x37ea <__stack+0x7eb>
				
			}
			break;
			case 0x60:
			{
				update_proile_time(&p_profile_->total_time,encode_read2() * 3600,max_profile_time);
    357e:	0e 94 b4 10 	call	0x2168	; 0x2168 <_Z12encode_read2v>
    3582:	2f 96       	adiw	r28, 0x0f	; 15
    3584:	20 e1       	ldi	r18, 0x10	; 16
    3586:	3e e0       	ldi	r19, 0x0E	; 14
    3588:	48 2f       	mov	r20, r24
    358a:	42 03       	mulsu	r20, r18
    358c:	b0 01       	movw	r22, r0
    358e:	43 9f       	mul	r20, r19
    3590:	70 0d       	add	r23, r0
    3592:	11 24       	eor	r1, r1
    3594:	20 e0       	ldi	r18, 0x00	; 0
    3596:	36 e4       	ldi	r19, 0x46	; 70
    3598:	45 e0       	ldi	r20, 0x05	; 5
    359a:	50 e0       	ldi	r21, 0x00	; 0
    359c:	ce 01       	movw	r24, r28
    359e:	0e 94 f2 13 	call	0x27e4	; 0x27e4 <_Z18update_proile_timePmim>
				//p_Profile_a->total_time += encode_read2() * 3600;
				lcd_gotoxy(11,6,port_expander_present);
    35a2:	40 91 25 23 	lds	r20, 0x2325	; 0x802325 <port_expander_present>
    35a6:	66 e0       	ldi	r22, 0x06	; 6
    35a8:	8b e0       	ldi	r24, 0x0B	; 11
    35aa:	0e 94 0f 06 	call	0xc1e	; 0xc1e <_Z10lcd_gotoxyhhb>
				display_time_menu(&p_profile_->total_time,true,0,1);
    35ae:	21 e0       	ldi	r18, 0x01	; 1
    35b0:	40 e0       	ldi	r20, 0x00	; 0
    35b2:	61 e0       	ldi	r22, 0x01	; 1
    35b4:	ce 01       	movw	r24, r28
    35b6:	0e 94 37 15 	call	0x2a6e	; 0x2a6e <_Z17display_time_menuPVmbhh>
				if( get_key_short( 1<<KEY0 ))
    35ba:	80 e1       	ldi	r24, 0x10	; 16
    35bc:	0e 94 b1 0b 	call	0x1762	; 0x1762 <_Z13get_key_shorth>
    35c0:	88 23       	and	r24, r24
    35c2:	09 f4       	brne	.+2      	; 0x35c6 <__stack+0x5c7>
    35c4:	12 c1       	rjmp	.+548    	; 0x37ea <__stack+0x7eb>
				{
					lcd_gotoxy(11,6,port_expander_present);
    35c6:	40 91 25 23 	lds	r20, 0x2325	; 0x802325 <port_expander_present>
    35ca:	66 e0       	ldi	r22, 0x06	; 6
    35cc:	8b e0       	ldi	r24, 0x0B	; 11
    35ce:	0e 94 0f 06 	call	0xc1e	; 0xc1e <_Z10lcd_gotoxyhhb>
					display_time_menu(&p_profile_->total_time,false,0,0);
    35d2:	20 e0       	ldi	r18, 0x00	; 0
    35d4:	40 e0       	ldi	r20, 0x00	; 0
    35d6:	60 e0       	ldi	r22, 0x00	; 0
    35d8:	ce 01       	movw	r24, r28
    35da:	0e 94 37 15 	call	0x2a6e	; 0x2a6e <_Z17display_time_menuPVmbhh>
					
					menu.sub_menu = 0x61;
    35de:	81 e6       	ldi	r24, 0x61	; 97
    35e0:	80 93 a0 23 	sts	0x23A0, r24	; 0x8023a0 <menu>
    35e4:	02 c1       	rjmp	.+516    	; 0x37ea <__stack+0x7eb>
			}
			break;
			case 0x61:
			{
				
				update_proile_time(&p_profile_->total_time,encode_read2() * 60,max_profile_time);
    35e6:	0e 94 b4 10 	call	0x2168	; 0x2168 <_Z12encode_read2v>
    35ea:	2f 96       	adiw	r28, 0x0f	; 15
    35ec:	9c e3       	ldi	r25, 0x3C	; 60
    35ee:	89 02       	muls	r24, r25
    35f0:	b0 01       	movw	r22, r0
    35f2:	11 24       	eor	r1, r1
    35f4:	20 e0       	ldi	r18, 0x00	; 0
    35f6:	36 e4       	ldi	r19, 0x46	; 70
    35f8:	45 e0       	ldi	r20, 0x05	; 5
    35fa:	50 e0       	ldi	r21, 0x00	; 0
    35fc:	ce 01       	movw	r24, r28
    35fe:	0e 94 f2 13 	call	0x27e4	; 0x27e4 <_Z18update_proile_timePmim>
				//p_Profile_a->total_time += encode_read2() * 3600;
				lcd_gotoxy(11,6,port_expander_present);
    3602:	40 91 25 23 	lds	r20, 0x2325	; 0x802325 <port_expander_present>
    3606:	66 e0       	ldi	r22, 0x06	; 6
    3608:	8b e0       	ldi	r24, 0x0B	; 11
    360a:	0e 94 0f 06 	call	0xc1e	; 0xc1e <_Z10lcd_gotoxyhhb>
				display_time_menu(&p_profile_->total_time,true,3,4);
    360e:	24 e0       	ldi	r18, 0x04	; 4
    3610:	43 e0       	ldi	r20, 0x03	; 3
    3612:	61 e0       	ldi	r22, 0x01	; 1
    3614:	ce 01       	movw	r24, r28
    3616:	0e 94 37 15 	call	0x2a6e	; 0x2a6e <_Z17display_time_menuPVmbhh>
				if( get_key_short( 1<<KEY0 ))
    361a:	80 e1       	ldi	r24, 0x10	; 16
    361c:	0e 94 b1 0b 	call	0x1762	; 0x1762 <_Z13get_key_shorth>
    3620:	88 23       	and	r24, r24
    3622:	09 f4       	brne	.+2      	; 0x3626 <__stack+0x627>
    3624:	e2 c0       	rjmp	.+452    	; 0x37ea <__stack+0x7eb>
				{
					lcd_gotoxy(11,6,port_expander_present);
    3626:	40 91 25 23 	lds	r20, 0x2325	; 0x802325 <port_expander_present>
    362a:	66 e0       	ldi	r22, 0x06	; 6
    362c:	8b e0       	ldi	r24, 0x0B	; 11
    362e:	0e 94 0f 06 	call	0xc1e	; 0xc1e <_Z10lcd_gotoxyhhb>
					display_time_menu(&p_profile_->total_time,false,0,0);
    3632:	20 e0       	ldi	r18, 0x00	; 0
    3634:	40 e0       	ldi	r20, 0x00	; 0
    3636:	60 e0       	ldi	r22, 0x00	; 0
    3638:	ce 01       	movw	r24, r28
    363a:	0e 94 37 15 	call	0x2a6e	; 0x2a6e <_Z17display_time_menuPVmbhh>
					
					menu.sub_menu = 0x62;
    363e:	82 e6       	ldi	r24, 0x62	; 98
    3640:	80 93 a0 23 	sts	0x23A0, r24	; 0x8023a0 <menu>
    3644:	d2 c0       	rjmp	.+420    	; 0x37ea <__stack+0x7eb>
			}
			break;
			case 0x62:
			{
				
				update_proile_time(&p_Profile_a->total_time,encode_read2(),max_profile_time);
    3646:	0e 94 b4 10 	call	0x2168	; 0x2168 <_Z12encode_read2v>
    364a:	68 2f       	mov	r22, r24
    364c:	88 0f       	add	r24, r24
    364e:	77 0b       	sbc	r23, r23
    3650:	80 91 0d 21 	lds	r24, 0x210D	; 0x80210d <p_Profile_a>
    3654:	90 91 0e 21 	lds	r25, 0x210E	; 0x80210e <p_Profile_a+0x1>
    3658:	20 e0       	ldi	r18, 0x00	; 0
    365a:	36 e4       	ldi	r19, 0x46	; 70
    365c:	45 e0       	ldi	r20, 0x05	; 5
    365e:	50 e0       	ldi	r21, 0x00	; 0
    3660:	0f 96       	adiw	r24, 0x0f	; 15
    3662:	0e 94 f2 13 	call	0x27e4	; 0x27e4 <_Z18update_proile_timePmim>
				//p_Profile_a->total_time += encode_read2() * 3600;
				lcd_gotoxy(11,6,port_expander_present);
    3666:	40 91 25 23 	lds	r20, 0x2325	; 0x802325 <port_expander_present>
    366a:	66 e0       	ldi	r22, 0x06	; 6
    366c:	8b e0       	ldi	r24, 0x0B	; 11
    366e:	0e 94 0f 06 	call	0xc1e	; 0xc1e <_Z10lcd_gotoxyhhb>
				display_time_menu(&p_profile_->total_time,true,6,7);
    3672:	2f 96       	adiw	r28, 0x0f	; 15
    3674:	27 e0       	ldi	r18, 0x07	; 7
    3676:	46 e0       	ldi	r20, 0x06	; 6
    3678:	61 e0       	ldi	r22, 0x01	; 1
    367a:	ce 01       	movw	r24, r28
    367c:	0e 94 37 15 	call	0x2a6e	; 0x2a6e <_Z17display_time_menuPVmbhh>
				if( get_key_short( 1<<KEY0 ))
    3680:	80 e1       	ldi	r24, 0x10	; 16
    3682:	0e 94 b1 0b 	call	0x1762	; 0x1762 <_Z13get_key_shorth>
    3686:	88 23       	and	r24, r24
    3688:	09 f4       	brne	.+2      	; 0x368c <__stack+0x68d>
    368a:	af c0       	rjmp	.+350    	; 0x37ea <__stack+0x7eb>
				{
					lcd_gotoxy(11,6,port_expander_present);
    368c:	40 91 25 23 	lds	r20, 0x2325	; 0x802325 <port_expander_present>
    3690:	66 e0       	ldi	r22, 0x06	; 6
    3692:	8b e0       	ldi	r24, 0x0B	; 11
    3694:	0e 94 0f 06 	call	0xc1e	; 0xc1e <_Z10lcd_gotoxyhhb>
					display_time_menu(&p_profile_->total_time,false,0,0);
    3698:	20 e0       	ldi	r18, 0x00	; 0
    369a:	40 e0       	ldi	r20, 0x00	; 0
    369c:	60 e0       	ldi	r22, 0x00	; 0
    369e:	ce 01       	movw	r24, r28
    36a0:	0e 94 37 15 	call	0x2a6e	; 0x2a6e <_Z17display_time_menuPVmbhh>
					*position_ = 6;
    36a4:	86 e0       	ldi	r24, 0x06	; 6
    36a6:	f3 01       	movw	r30, r6
    36a8:	80 83       	st	Z, r24
					*old_position_ = 2;
    36aa:	82 e0       	ldi	r24, 0x02	; 2
    36ac:	f2 01       	movw	r30, r4
    36ae:	80 83       	st	Z, r24
					menu.sub_menu = 0x00;
    36b0:	10 92 a0 23 	sts	0x23A0, r1	; 0x8023a0 <menu>
    36b4:	9a c0       	rjmp	.+308    	; 0x37ea <__stack+0x7eb>
			}
			break;
			case 0x70:
			{
				
				update_proile_time(&p_profile_->time_slow,encode_read2() * 3600,max_profile_time);
    36b6:	0e 94 b4 10 	call	0x2168	; 0x2168 <_Z12encode_read2v>
    36ba:	63 96       	adiw	r28, 0x13	; 19
    36bc:	20 e1       	ldi	r18, 0x10	; 16
    36be:	3e e0       	ldi	r19, 0x0E	; 14
    36c0:	48 2f       	mov	r20, r24
    36c2:	42 03       	mulsu	r20, r18
    36c4:	b0 01       	movw	r22, r0
    36c6:	43 9f       	mul	r20, r19
    36c8:	70 0d       	add	r23, r0
    36ca:	11 24       	eor	r1, r1
    36cc:	20 e0       	ldi	r18, 0x00	; 0
    36ce:	36 e4       	ldi	r19, 0x46	; 70
    36d0:	45 e0       	ldi	r20, 0x05	; 5
    36d2:	50 e0       	ldi	r21, 0x00	; 0
    36d4:	ce 01       	movw	r24, r28
    36d6:	0e 94 f2 13 	call	0x27e4	; 0x27e4 <_Z18update_proile_timePmim>
				//p_Profile_a->total_time += encode_read2() * 3600;p_Profile_a->time_slow += encode_read2() * 3600;
				lcd_gotoxy(11,7,port_expander_present);
    36da:	40 91 25 23 	lds	r20, 0x2325	; 0x802325 <port_expander_present>
    36de:	67 e0       	ldi	r22, 0x07	; 7
    36e0:	8b e0       	ldi	r24, 0x0B	; 11
    36e2:	0e 94 0f 06 	call	0xc1e	; 0xc1e <_Z10lcd_gotoxyhhb>
				display_time_menu(&p_profile_->time_slow,true,0,1);
    36e6:	21 e0       	ldi	r18, 0x01	; 1
    36e8:	40 e0       	ldi	r20, 0x00	; 0
    36ea:	61 e0       	ldi	r22, 0x01	; 1
    36ec:	ce 01       	movw	r24, r28
    36ee:	0e 94 37 15 	call	0x2a6e	; 0x2a6e <_Z17display_time_menuPVmbhh>
				if( get_key_short( 1<<KEY0 ))
    36f2:	80 e1       	ldi	r24, 0x10	; 16
    36f4:	0e 94 b1 0b 	call	0x1762	; 0x1762 <_Z13get_key_shorth>
    36f8:	88 23       	and	r24, r24
    36fa:	09 f4       	brne	.+2      	; 0x36fe <__stack+0x6ff>
    36fc:	76 c0       	rjmp	.+236    	; 0x37ea <__stack+0x7eb>
				{
					lcd_gotoxy(11,7,port_expander_present);
    36fe:	40 91 25 23 	lds	r20, 0x2325	; 0x802325 <port_expander_present>
    3702:	67 e0       	ldi	r22, 0x07	; 7
    3704:	8b e0       	ldi	r24, 0x0B	; 11
    3706:	0e 94 0f 06 	call	0xc1e	; 0xc1e <_Z10lcd_gotoxyhhb>
					display_time_menu(&p_profile_->time_slow,false,0,0);
    370a:	20 e0       	ldi	r18, 0x00	; 0
    370c:	40 e0       	ldi	r20, 0x00	; 0
    370e:	60 e0       	ldi	r22, 0x00	; 0
    3710:	ce 01       	movw	r24, r28
    3712:	0e 94 37 15 	call	0x2a6e	; 0x2a6e <_Z17display_time_menuPVmbhh>
					
					menu.sub_menu = 0x71;
    3716:	81 e7       	ldi	r24, 0x71	; 113
    3718:	80 93 a0 23 	sts	0x23A0, r24	; 0x8023a0 <menu>
    371c:	66 c0       	rjmp	.+204    	; 0x37ea <__stack+0x7eb>
			}
			break;
			case 0x71:
			{
				
				update_proile_time(&p_Profile_a->time_slow,encode_read2() * 60,max_profile_time);
    371e:	0e 94 b4 10 	call	0x2168	; 0x2168 <_Z12encode_read2v>
    3722:	9c e3       	ldi	r25, 0x3C	; 60
    3724:	89 02       	muls	r24, r25
    3726:	b0 01       	movw	r22, r0
    3728:	11 24       	eor	r1, r1
    372a:	80 91 0d 21 	lds	r24, 0x210D	; 0x80210d <p_Profile_a>
    372e:	90 91 0e 21 	lds	r25, 0x210E	; 0x80210e <p_Profile_a+0x1>
    3732:	20 e0       	ldi	r18, 0x00	; 0
    3734:	36 e4       	ldi	r19, 0x46	; 70
    3736:	45 e0       	ldi	r20, 0x05	; 5
    3738:	50 e0       	ldi	r21, 0x00	; 0
    373a:	43 96       	adiw	r24, 0x13	; 19
    373c:	0e 94 f2 13 	call	0x27e4	; 0x27e4 <_Z18update_proile_timePmim>
				//p_Profile_a->total_time += encode_read2() * 3600;p_Profile_a->time_slow += encode_read2() * 3600;
				lcd_gotoxy(11,7,port_expander_present);
    3740:	40 91 25 23 	lds	r20, 0x2325	; 0x802325 <port_expander_present>
    3744:	67 e0       	ldi	r22, 0x07	; 7
    3746:	8b e0       	ldi	r24, 0x0B	; 11
    3748:	0e 94 0f 06 	call	0xc1e	; 0xc1e <_Z10lcd_gotoxyhhb>
				display_time_menu(&p_profile_->time_slow,true,3,4);
    374c:	63 96       	adiw	r28, 0x13	; 19
    374e:	24 e0       	ldi	r18, 0x04	; 4
    3750:	43 e0       	ldi	r20, 0x03	; 3
    3752:	61 e0       	ldi	r22, 0x01	; 1
    3754:	ce 01       	movw	r24, r28
    3756:	0e 94 37 15 	call	0x2a6e	; 0x2a6e <_Z17display_time_menuPVmbhh>
				if( get_key_short( 1<<KEY0 ))
    375a:	80 e1       	ldi	r24, 0x10	; 16
    375c:	0e 94 b1 0b 	call	0x1762	; 0x1762 <_Z13get_key_shorth>
    3760:	88 23       	and	r24, r24
    3762:	09 f4       	brne	.+2      	; 0x3766 <__stack+0x767>
    3764:	42 c0       	rjmp	.+132    	; 0x37ea <__stack+0x7eb>
				{
					lcd_gotoxy(11,7,port_expander_present);
    3766:	40 91 25 23 	lds	r20, 0x2325	; 0x802325 <port_expander_present>
    376a:	67 e0       	ldi	r22, 0x07	; 7
    376c:	8b e0       	ldi	r24, 0x0B	; 11
    376e:	0e 94 0f 06 	call	0xc1e	; 0xc1e <_Z10lcd_gotoxyhhb>
					display_time_menu(&p_profile_->time_slow,false,0,0);
    3772:	20 e0       	ldi	r18, 0x00	; 0
    3774:	40 e0       	ldi	r20, 0x00	; 0
    3776:	60 e0       	ldi	r22, 0x00	; 0
    3778:	ce 01       	movw	r24, r28
    377a:	0e 94 37 15 	call	0x2a6e	; 0x2a6e <_Z17display_time_menuPVmbhh>
					
					menu.sub_menu = 0x72;
    377e:	82 e7       	ldi	r24, 0x72	; 114
    3780:	80 93 a0 23 	sts	0x23A0, r24	; 0x8023a0 <menu>
    3784:	32 c0       	rjmp	.+100    	; 0x37ea <__stack+0x7eb>
			}
			break;
			case 0x72:
			{
				
				update_proile_time(&p_profile_->time_slow,encode_read2(),max_profile_time);
    3786:	0e 94 b4 10 	call	0x2168	; 0x2168 <_Z12encode_read2v>
    378a:	63 96       	adiw	r28, 0x13	; 19
    378c:	68 2f       	mov	r22, r24
    378e:	88 0f       	add	r24, r24
    3790:	77 0b       	sbc	r23, r23
    3792:	20 e0       	ldi	r18, 0x00	; 0
    3794:	36 e4       	ldi	r19, 0x46	; 70
    3796:	45 e0       	ldi	r20, 0x05	; 5
    3798:	50 e0       	ldi	r21, 0x00	; 0
    379a:	ce 01       	movw	r24, r28
    379c:	0e 94 f2 13 	call	0x27e4	; 0x27e4 <_Z18update_proile_timePmim>
				//p_Profile_a->total_time += encode_read2() * 3600;p_Profile_a->time_slow += encode_read2() * 3600;
				lcd_gotoxy(11,7,port_expander_present);
    37a0:	40 91 25 23 	lds	r20, 0x2325	; 0x802325 <port_expander_present>
    37a4:	67 e0       	ldi	r22, 0x07	; 7
    37a6:	8b e0       	ldi	r24, 0x0B	; 11
    37a8:	0e 94 0f 06 	call	0xc1e	; 0xc1e <_Z10lcd_gotoxyhhb>
				display_time_menu(&p_profile_->time_slow,true,6,7);
    37ac:	27 e0       	ldi	r18, 0x07	; 7
    37ae:	46 e0       	ldi	r20, 0x06	; 6
    37b0:	61 e0       	ldi	r22, 0x01	; 1
    37b2:	ce 01       	movw	r24, r28
    37b4:	0e 94 37 15 	call	0x2a6e	; 0x2a6e <_Z17display_time_menuPVmbhh>
				if( get_key_short( 1<<KEY0 ))
    37b8:	80 e1       	ldi	r24, 0x10	; 16
    37ba:	0e 94 b1 0b 	call	0x1762	; 0x1762 <_Z13get_key_shorth>
    37be:	88 23       	and	r24, r24
    37c0:	a1 f0       	breq	.+40     	; 0x37ea <__stack+0x7eb>
				{
					lcd_gotoxy(11,7,port_expander_present);
    37c2:	40 91 25 23 	lds	r20, 0x2325	; 0x802325 <port_expander_present>
    37c6:	67 e0       	ldi	r22, 0x07	; 7
    37c8:	8b e0       	ldi	r24, 0x0B	; 11
    37ca:	0e 94 0f 06 	call	0xc1e	; 0xc1e <_Z10lcd_gotoxyhhb>
					display_time_menu(&p_profile_->time_slow,false,0,0);
    37ce:	20 e0       	ldi	r18, 0x00	; 0
    37d0:	40 e0       	ldi	r20, 0x00	; 0
    37d2:	60 e0       	ldi	r22, 0x00	; 0
    37d4:	ce 01       	movw	r24, r28
    37d6:	0e 94 37 15 	call	0x2a6e	; 0x2a6e <_Z17display_time_menuPVmbhh>
					*position_ = 7;
    37da:	87 e0       	ldi	r24, 0x07	; 7
    37dc:	f3 01       	movw	r30, r6
    37de:	80 83       	st	Z, r24
					*old_position_ = 2;
    37e0:	82 e0       	ldi	r24, 0x02	; 2
    37e2:	f2 01       	movw	r30, r4
    37e4:	80 83       	st	Z, r24
					menu.sub_menu = 0x00;
    37e6:	10 92 a0 23 	sts	0x23A0, r1	; 0x8023a0 <menu>
			break;
			default:
			break;
		}
	}
}
    37ea:	df 91       	pop	r29
    37ec:	cf 91       	pop	r28
    37ee:	1f 91       	pop	r17
    37f0:	0f 91       	pop	r16
    37f2:	ff 90       	pop	r15
    37f4:	ef 90       	pop	r14
    37f6:	df 90       	pop	r13
    37f8:	cf 90       	pop	r12
    37fa:	bf 90       	pop	r11
    37fc:	af 90       	pop	r10
    37fe:	9f 90       	pop	r9
    3800:	8f 90       	pop	r8
    3802:	7f 90       	pop	r7
    3804:	6f 90       	pop	r6
    3806:	5f 90       	pop	r5
    3808:	4f 90       	pop	r4
    380a:	08 95       	ret

0000380c <_Z12display_menuPhPcP13Speed_profileS_bPb>:

void display_menu(uint8_t *position_,char *int_buffer,p_Speed_profile_t p_profile_,uint8_t *old_position_,bool left_,bool *screen_clear_)
{
    380c:	4f 92       	push	r4
    380e:	5f 92       	push	r5
    3810:	6f 92       	push	r6
    3812:	7f 92       	push	r7
    3814:	8f 92       	push	r8
    3816:	9f 92       	push	r9
    3818:	af 92       	push	r10
    381a:	bf 92       	push	r11
    381c:	cf 92       	push	r12
    381e:	df 92       	push	r13
    3820:	ef 92       	push	r14
    3822:	ff 92       	push	r15
    3824:	0f 93       	push	r16
    3826:	cf 93       	push	r28
    3828:	df 93       	push	r29
    382a:	5c 01       	movw	r10, r24
    382c:	6b 01       	movw	r12, r22
    382e:	ea 01       	movw	r28, r20
    3830:	49 01       	movw	r8, r18

	static bool change = false;
	static bool reload = false;
	static uint8_t ID_ = 0;
	if(reload)
    3832:	80 91 21 23 	lds	r24, 0x2321	; 0x802321 <_ZZ12display_menuPhPcP13Speed_profileS_bPbE6reload>
    3836:	88 23       	and	r24, r24
    3838:	d9 f0       	breq	.+54     	; 0x3870 <_Z12display_menuPhPcP13Speed_profileS_bPb+0x64>
	{
		reload = false;
    383a:	10 92 21 23 	sts	0x2321, r1	; 0x802321 <_ZZ12display_menuPhPcP13Speed_profileS_bPbE6reload>
		read_profile(p_profile_,ID_,TWI_FRAM_present,offset_profiles);
    383e:	26 e6       	ldi	r18, 0x66	; 102
    3840:	30 e0       	ldi	r19, 0x00	; 0
    3842:	40 91 24 23 	lds	r20, 0x2324	; 0x802324 <TWI_FRAM_present>
    3846:	60 91 20 23 	lds	r22, 0x2320	; 0x802320 <_ZZ12display_menuPhPcP13Speed_profileS_bPbE3ID_>
    384a:	ce 01       	movw	r24, r28
    384c:	0e 94 b5 04 	call	0x96a	; 0x96a <_Z12read_profileP13Speed_profilehbj>
		if(p_profile_->CRC_value != calculate_crc32_checksum((unsigned char *)p_profile_,sizeof(Speed_profile_t)-4))
    3850:	4b 8c       	ldd	r4, Y+27	; 0x1b
    3852:	5c 8c       	ldd	r5, Y+28	; 0x1c
    3854:	6d 8c       	ldd	r6, Y+29	; 0x1d
    3856:	7e 8c       	ldd	r7, Y+30	; 0x1e
    3858:	6b e1       	ldi	r22, 0x1B	; 27
    385a:	ce 01       	movw	r24, r28
    385c:	0e 94 f8 03 	call	0x7f0	; 0x7f0 <_Z24calculate_crc32_checksumPhh>
    3860:	46 16       	cp	r4, r22
    3862:	57 06       	cpc	r5, r23
    3864:	68 06       	cpc	r6, r24
    3866:	79 06       	cpc	r7, r25
    3868:	19 f0       	breq	.+6      	; 0x3870 <_Z12display_menuPhPcP13Speed_profileS_bPb+0x64>
			init_profile_(p_profile_);
    386a:	ce 01       	movw	r24, r28
    386c:	0e 94 4d 17 	call	0x2e9a	; 0x2e9a <_Z13init_profile_P13Speed_profile>
		
	}
	
	if(*screen_clear_)
    3870:	f7 01       	movw	r30, r14
    3872:	80 81       	ld	r24, Z
    3874:	88 23       	and	r24, r24
    3876:	09 f4       	brne	.+2      	; 0x387a <_Z12display_menuPhPcP13Speed_profileS_bPb+0x6e>
    3878:	b7 c0       	rjmp	.+366    	; 0x39e8 <_Z12display_menuPhPcP13Speed_profileS_bPb+0x1dc>
	{
		*screen_clear_ = false;
    387a:	10 82       	st	Z, r1
		lcd_clrscr(port_expander_present);
    387c:	80 91 25 23 	lds	r24, 0x2325	; 0x802325 <port_expander_present>
    3880:	0e 94 85 06 	call	0xd0a	; 0xd0a <_Z10lcd_clrscrb>
		lcd_gotoxy(1,0,port_expander_present);
    3884:	40 91 25 23 	lds	r20, 0x2325	; 0x802325 <port_expander_present>
    3888:	60 e0       	ldi	r22, 0x00	; 0
    388a:	81 e0       	ldi	r24, 0x01	; 1
    388c:	0e 94 0f 06 	call	0xc1e	; 0xc1e <_Z10lcd_gotoxyhhb>
		if(left_)
    3890:	00 23       	and	r16, r16
    3892:	29 f0       	breq	.+10     	; 0x389e <_Z12display_menuPhPcP13Speed_profileS_bPb+0x92>
			lcd_puts("Profil links ");
    3894:	83 e5       	ldi	r24, 0x53	; 83
    3896:	92 e2       	ldi	r25, 0x22	; 34
    3898:	0e 94 9d 0a 	call	0x153a	; 0x153a <_Z8lcd_putsPKc>
    389c:	04 c0       	rjmp	.+8      	; 0x38a6 <_Z12display_menuPhPcP13Speed_profileS_bPb+0x9a>
		else
			lcd_puts("Profil rechts");
    389e:	81 e6       	ldi	r24, 0x61	; 97
    38a0:	92 e2       	ldi	r25, 0x22	; 34
    38a2:	0e 94 9d 0a 	call	0x153a	; 0x153a <_Z8lcd_putsPKc>
		lcd_gotoxy(1,1,port_expander_present);
    38a6:	40 91 25 23 	lds	r20, 0x2325	; 0x802325 <port_expander_present>
    38aa:	61 e0       	ldi	r22, 0x01	; 1
    38ac:	81 e0       	ldi	r24, 0x01	; 1
    38ae:	0e 94 0f 06 	call	0xc1e	; 0xc1e <_Z10lcd_gotoxyhhb>
		lcd_puts("ID :");
    38b2:	8f ee       	ldi	r24, 0xEF	; 239
    38b4:	91 e2       	ldi	r25, 0x21	; 33
    38b6:	0e 94 9d 0a 	call	0x153a	; 0x153a <_Z8lcd_putsPKc>
		if(p_profile_->ID <100)
    38ba:	88 81       	ld	r24, Y
    38bc:	84 36       	cpi	r24, 0x64	; 100
    38be:	20 f4       	brcc	.+8      	; 0x38c8 <_Z12display_menuPhPcP13Speed_profileS_bPb+0xbc>
			lcd_puts(" ");
    38c0:	8b ed       	ldi	r24, 0xDB	; 219
    38c2:	91 e2       	ldi	r25, 0x21	; 33
    38c4:	0e 94 9d 0a 	call	0x153a	; 0x153a <_Z8lcd_putsPKc>
		if(p_profile_->ID <10)
    38c8:	88 81       	ld	r24, Y
    38ca:	8a 30       	cpi	r24, 0x0A	; 10
    38cc:	20 f4       	brcc	.+8      	; 0x38d6 <_Z12display_menuPhPcP13Speed_profileS_bPb+0xca>
			lcd_puts(" ");
    38ce:	8b ed       	ldi	r24, 0xDB	; 219
    38d0:	91 e2       	ldi	r25, 0x21	; 33
    38d2:	0e 94 9d 0a 	call	0x153a	; 0x153a <_Z8lcd_putsPKc>
    38d6:	88 81       	ld	r24, Y
    38d8:	4a e0       	ldi	r20, 0x0A	; 10
    38da:	b6 01       	movw	r22, r12
    38dc:	90 e0       	ldi	r25, 0x00	; 0
    38de:	0e 94 b7 3b 	call	0x776e	; 0x776e <__utoa_ncheck>
		utoa(p_profile_->ID,int_buffer,10);
		lcd_puts(int_buffer);
    38e2:	c6 01       	movw	r24, r12
    38e4:	0e 94 9d 0a 	call	0x153a	; 0x153a <_Z8lcd_putsPKc>
		lcd_gotoxy(1,2,port_expander_present);
    38e8:	40 91 25 23 	lds	r20, 0x2325	; 0x802325 <port_expander_present>
    38ec:	62 e0       	ldi	r22, 0x02	; 2
    38ee:	81 e0       	ldi	r24, 0x01	; 1
    38f0:	0e 94 0f 06 	call	0xc1e	; 0xc1e <_Z10lcd_gotoxyhhb>
		lcd_puts("Typ: ");
    38f4:	84 ef       	ldi	r24, 0xF4	; 244
    38f6:	91 e2       	ldi	r25, 0x21	; 33
    38f8:	0e 94 9d 0a 	call	0x153a	; 0x153a <_Z8lcd_putsPKc>
		if(p_profile_->type == type_normal)
    38fc:	8a 81       	ldd	r24, Y+2	; 0x02
    38fe:	81 11       	cpse	r24, r1
    3900:	04 c0       	rjmp	.+8      	; 0x390a <_Z12display_menuPhPcP13Speed_profileS_bPb+0xfe>
		lcd_puts("normal");
    3902:	8a ef       	ldi	r24, 0xFA	; 250
    3904:	91 e2       	ldi	r25, 0x21	; 33
    3906:	0e 94 9d 0a 	call	0x153a	; 0x153a <_Z8lcd_putsPKc>
		if(p_profile_->type == type_switch)
    390a:	8a 81       	ldd	r24, Y+2	; 0x02
    390c:	81 30       	cpi	r24, 0x01	; 1
    390e:	59 f4       	brne	.+22     	; 0x3926 <_Z12display_menuPhPcP13Speed_profileS_bPb+0x11a>
		lcd_puts("wechselnd");
    3910:	81 e0       	ldi	r24, 0x01	; 1
    3912:	92 e2       	ldi	r25, 0x22	; 34
    3914:	0e 94 9d 0a 	call	0x153a	; 0x153a <_Z8lcd_putsPKc>
		if(p_profile_->type == type_switch)
    3918:	8a 81       	ldd	r24, Y+2	; 0x02
    391a:	81 30       	cpi	r24, 0x01	; 1
    391c:	21 f4       	brne	.+8      	; 0x3926 <_Z12display_menuPhPcP13Speed_profileS_bPb+0x11a>
		lcd_puts("sedimentieren");
    391e:	8b e0       	ldi	r24, 0x0B	; 11
    3920:	92 e2       	ldi	r25, 0x22	; 34
    3922:	0e 94 9d 0a 	call	0x153a	; 0x153a <_Z8lcd_putsPKc>
		lcd_gotoxy(1,3,port_expander_present);
    3926:	40 91 25 23 	lds	r20, 0x2325	; 0x802325 <port_expander_present>
    392a:	63 e0       	ldi	r22, 0x03	; 3
    392c:	81 e0       	ldi	r24, 0x01	; 1
    392e:	0e 94 0f 06 	call	0xc1e	; 0xc1e <_Z10lcd_gotoxyhhb>
		lcd_puts("Langsam: ");
    3932:	89 e1       	ldi	r24, 0x19	; 25
    3934:	92 e2       	ldi	r25, 0x22	; 34
    3936:	0e 94 9d 0a 	call	0x153a	; 0x153a <_Z8lcd_putsPKc>
    393a:	4a e0       	ldi	r20, 0x0A	; 10
    393c:	b6 01       	movw	r22, r12
    393e:	8f 81       	ldd	r24, Y+7	; 0x07
    3940:	98 85       	ldd	r25, Y+8	; 0x08
    3942:	0e 94 b7 3b 	call	0x776e	; 0x776e <__utoa_ncheck>
		utoa(p_profile_->speed_slow,int_buffer,10);
		lcd_puts(int_buffer);
    3946:	c6 01       	movw	r24, r12
    3948:	0e 94 9d 0a 	call	0x153a	; 0x153a <_Z8lcd_putsPKc>
		lcd_puts(" UpM");
    394c:	83 e2       	ldi	r24, 0x23	; 35
    394e:	92 e2       	ldi	r25, 0x22	; 34
    3950:	0e 94 9d 0a 	call	0x153a	; 0x153a <_Z8lcd_putsPKc>
		lcd_gotoxy(1,4,port_expander_present);
    3954:	40 91 25 23 	lds	r20, 0x2325	; 0x802325 <port_expander_present>
    3958:	64 e0       	ldi	r22, 0x04	; 4
    395a:	81 e0       	ldi	r24, 0x01	; 1
    395c:	0e 94 0f 06 	call	0xc1e	; 0xc1e <_Z10lcd_gotoxyhhb>
		lcd_puts("Schnell: ");
    3960:	88 e2       	ldi	r24, 0x28	; 40
    3962:	92 e2       	ldi	r25, 0x22	; 34
    3964:	0e 94 9d 0a 	call	0x153a	; 0x153a <_Z8lcd_putsPKc>
    3968:	4a e0       	ldi	r20, 0x0A	; 10
    396a:	b6 01       	movw	r22, r12
    396c:	89 85       	ldd	r24, Y+9	; 0x09
    396e:	9a 85       	ldd	r25, Y+10	; 0x0a
    3970:	0e 94 b7 3b 	call	0x776e	; 0x776e <__utoa_ncheck>
		utoa(p_profile_->speed_fast,int_buffer,10);
		lcd_puts(int_buffer);
    3974:	c6 01       	movw	r24, r12
    3976:	0e 94 9d 0a 	call	0x153a	; 0x153a <_Z8lcd_putsPKc>
		lcd_puts(" UpM");
    397a:	83 e2       	ldi	r24, 0x23	; 35
    397c:	92 e2       	ldi	r25, 0x22	; 34
    397e:	0e 94 9d 0a 	call	0x153a	; 0x153a <_Z8lcd_putsPKc>
		lcd_gotoxy(1,5,port_expander_present);
    3982:	40 91 25 23 	lds	r20, 0x2325	; 0x802325 <port_expander_present>
    3986:	65 e0       	ldi	r22, 0x05	; 5
    3988:	81 e0       	ldi	r24, 0x01	; 1
    398a:	0e 94 0f 06 	call	0xc1e	; 0xc1e <_Z10lcd_gotoxyhhb>
		lcd_puts("t schnell ");
    398e:	82 e3       	ldi	r24, 0x32	; 50
    3990:	92 e2       	ldi	r25, 0x22	; 34
    3992:	0e 94 9d 0a 	call	0x153a	; 0x153a <_Z8lcd_putsPKc>
		display_time_menu(&p_profile_->time_fast_init,false,0,0);
    3996:	20 e0       	ldi	r18, 0x00	; 0
    3998:	40 e0       	ldi	r20, 0x00	; 0
    399a:	60 e0       	ldi	r22, 0x00	; 0
    399c:	ce 01       	movw	r24, r28
    399e:	0b 96       	adiw	r24, 0x0b	; 11
    39a0:	0e 94 37 15 	call	0x2a6e	; 0x2a6e <_Z17display_time_menuPVmbhh>
		lcd_gotoxy(1,6,port_expander_present);
    39a4:	40 91 25 23 	lds	r20, 0x2325	; 0x802325 <port_expander_present>
    39a8:	66 e0       	ldi	r22, 0x06	; 6
    39aa:	81 e0       	ldi	r24, 0x01	; 1
    39ac:	0e 94 0f 06 	call	0xc1e	; 0xc1e <_Z10lcd_gotoxyhhb>
		lcd_puts("t Gesamt  ");
    39b0:	8d e3       	ldi	r24, 0x3D	; 61
    39b2:	92 e2       	ldi	r25, 0x22	; 34
    39b4:	0e 94 9d 0a 	call	0x153a	; 0x153a <_Z8lcd_putsPKc>
		display_time_menu(&p_profile_->total_time,false,0,0);
    39b8:	20 e0       	ldi	r18, 0x00	; 0
    39ba:	40 e0       	ldi	r20, 0x00	; 0
    39bc:	60 e0       	ldi	r22, 0x00	; 0
    39be:	ce 01       	movw	r24, r28
    39c0:	0f 96       	adiw	r24, 0x0f	; 15
    39c2:	0e 94 37 15 	call	0x2a6e	; 0x2a6e <_Z17display_time_menuPVmbhh>
		lcd_gotoxy(1,7,port_expander_present);
    39c6:	40 91 25 23 	lds	r20, 0x2325	; 0x802325 <port_expander_present>
    39ca:	67 e0       	ldi	r22, 0x07	; 7
    39cc:	81 e0       	ldi	r24, 0x01	; 1
    39ce:	0e 94 0f 06 	call	0xc1e	; 0xc1e <_Z10lcd_gotoxyhhb>
		lcd_puts("t langsam ");
    39d2:	88 e4       	ldi	r24, 0x48	; 72
    39d4:	92 e2       	ldi	r25, 0x22	; 34
    39d6:	0e 94 9d 0a 	call	0x153a	; 0x153a <_Z8lcd_putsPKc>
		display_time_menu(&p_profile_->time_slow,false,0,0);
    39da:	20 e0       	ldi	r18, 0x00	; 0
    39dc:	40 e0       	ldi	r20, 0x00	; 0
    39de:	60 e0       	ldi	r22, 0x00	; 0
    39e0:	ce 01       	movw	r24, r28
    39e2:	43 96       	adiw	r24, 0x13	; 19
    39e4:	0e 94 37 15 	call	0x2a6e	; 0x2a6e <_Z17display_time_menuPVmbhh>
	}
	if(menu.sub_menu >0)
    39e8:	e0 91 a0 23 	lds	r30, 0x23A0	; 0x8023a0 <menu>
    39ec:	ee 23       	and	r30, r30
    39ee:	09 f4       	brne	.+2      	; 0x39f2 <_Z12display_menuPhPcP13Speed_profileS_bPb+0x1e6>
    39f0:	7a c3       	rjmp	.+1780   	; 0x40e6 <_Z12display_menuPhPcP13Speed_profileS_bPb+0x8da>
	{
		switch(menu.sub_menu)
    39f2:	8e 2f       	mov	r24, r30
    39f4:	90 e0       	ldi	r25, 0x00	; 0
    39f6:	fc 01       	movw	r30, r24
    39f8:	70 97       	sbiw	r30, 0x10	; 16
    39fa:	e3 36       	cpi	r30, 0x63	; 99
    39fc:	f1 05       	cpc	r31, r1
    39fe:	08 f0       	brcs	.+2      	; 0x3a02 <_Z12display_menuPhPcP13Speed_profileS_bPb+0x1f6>
    3a00:	72 c3       	rjmp	.+1764   	; 0x40e6 <_Z12display_menuPhPcP13Speed_profileS_bPb+0x8da>
    3a02:	ed 52       	subi	r30, 0x2D	; 45
    3a04:	fe 4f       	sbci	r31, 0xFE	; 254
    3a06:	0c 94 50 3b 	jmp	0x76a0	; 0x76a0 <__tablejump2__>
		{
			case 0x10:
			{
				ID_ += encode_read2();
    3a0a:	0e 94 b4 10 	call	0x2168	; 0x2168 <_Z12encode_read2v>
    3a0e:	90 91 20 23 	lds	r25, 0x2320	; 0x802320 <_ZZ12display_menuPhPcP13Speed_profileS_bPbE3ID_>
    3a12:	89 0f       	add	r24, r25
    3a14:	80 93 20 23 	sts	0x2320, r24	; 0x802320 <_ZZ12display_menuPhPcP13Speed_profileS_bPbE3ID_>
				lcd_gotoxy(1,1,port_expander_present);
    3a18:	40 91 25 23 	lds	r20, 0x2325	; 0x802325 <port_expander_present>
    3a1c:	61 e0       	ldi	r22, 0x01	; 1
    3a1e:	81 e0       	ldi	r24, 0x01	; 1
    3a20:	0e 94 0f 06 	call	0xc1e	; 0xc1e <_Z10lcd_gotoxyhhb>
				lcd_puts("ID :");
    3a24:	8f ee       	ldi	r24, 0xEF	; 239
    3a26:	91 e2       	ldi	r25, 0x21	; 33
    3a28:	0e 94 9d 0a 	call	0x153a	; 0x153a <_Z8lcd_putsPKc>
				if(p_profile_->ID <100)
    3a2c:	88 81       	ld	r24, Y
    3a2e:	84 36       	cpi	r24, 0x64	; 100
    3a30:	20 f4       	brcc	.+8      	; 0x3a3a <_Z12display_menuPhPcP13Speed_profileS_bPb+0x22e>
					lcd_puts(" ");
    3a32:	8b ed       	ldi	r24, 0xDB	; 219
    3a34:	91 e2       	ldi	r25, 0x21	; 33
    3a36:	0e 94 9d 0a 	call	0x153a	; 0x153a <_Z8lcd_putsPKc>
				if(p_profile_->ID <10)
    3a3a:	88 81       	ld	r24, Y
    3a3c:	8a 30       	cpi	r24, 0x0A	; 10
    3a3e:	20 f4       	brcc	.+8      	; 0x3a48 <_Z12display_menuPhPcP13Speed_profileS_bPb+0x23c>
					lcd_puts(" ");
    3a40:	8b ed       	ldi	r24, 0xDB	; 219
    3a42:	91 e2       	ldi	r25, 0x21	; 33
    3a44:	0e 94 9d 0a 	call	0x153a	; 0x153a <_Z8lcd_putsPKc>
    3a48:	80 91 20 23 	lds	r24, 0x2320	; 0x802320 <_ZZ12display_menuPhPcP13Speed_profileS_bPbE3ID_>
    3a4c:	4a e0       	ldi	r20, 0x0A	; 10
    3a4e:	b6 01       	movw	r22, r12
    3a50:	90 e0       	ldi	r25, 0x00	; 0
    3a52:	0e 94 b7 3b 	call	0x776e	; 0x776e <__utoa_ncheck>
				utoa(ID_,int_buffer,10);
				lcd_puts_invert(int_buffer);
    3a56:	c6 01       	movw	r24, r12
    3a58:	0e 94 ac 0a 	call	0x1558	; 0x1558 <_Z15lcd_puts_invertPKc>
				if( get_key_short( 1<<KEY0 ))
    3a5c:	80 e1       	ldi	r24, 0x10	; 16
    3a5e:	0e 94 b1 0b 	call	0x1762	; 0x1762 <_Z13get_key_shorth>
    3a62:	88 23       	and	r24, r24
    3a64:	09 f4       	brne	.+2      	; 0x3a68 <_Z12display_menuPhPcP13Speed_profileS_bPb+0x25c>
    3a66:	3f c3       	rjmp	.+1662   	; 0x40e6 <_Z12display_menuPhPcP13Speed_profileS_bPb+0x8da>
				{
					reload = true;
    3a68:	81 e0       	ldi	r24, 0x01	; 1
    3a6a:	80 93 21 23 	sts	0x2321, r24	; 0x802321 <_ZZ12display_menuPhPcP13Speed_profileS_bPbE6reload>
					*screen_clear_ = true;
    3a6e:	f7 01       	movw	r30, r14
    3a70:	80 83       	st	Z, r24
					*position_ = 1;
    3a72:	f5 01       	movw	r30, r10
    3a74:	80 83       	st	Z, r24
					*old_position_ = 2;
    3a76:	82 e0       	ldi	r24, 0x02	; 2
    3a78:	f4 01       	movw	r30, r8
    3a7a:	80 83       	st	Z, r24
					menu.sub_menu = 0;
    3a7c:	10 92 a0 23 	sts	0x23A0, r1	; 0x8023a0 <menu>
    3a80:	32 c3       	rjmp	.+1636   	; 0x40e6 <_Z12display_menuPhPcP13Speed_profileS_bPb+0x8da>
				
			}
			break;
			case 0x20:
			{
				p_profile_->type += encode_read2();
    3a82:	0e 94 b4 10 	call	0x2168	; 0x2168 <_Z12encode_read2v>
    3a86:	9a 81       	ldd	r25, Y+2	; 0x02
    3a88:	89 0f       	add	r24, r25
				if(p_profile_->type==255)
    3a8a:	8f 3f       	cpi	r24, 0xFF	; 255
    3a8c:	11 f0       	breq	.+4      	; 0x3a92 <_Z12display_menuPhPcP13Speed_profileS_bPb+0x286>
				
			}
			break;
			case 0x20:
			{
				p_profile_->type += encode_read2();
    3a8e:	8a 83       	std	Y+2, r24	; 0x02
    3a90:	02 c0       	rjmp	.+4      	; 0x3a96 <_Z12display_menuPhPcP13Speed_profileS_bPb+0x28a>
				if(p_profile_->type==255)
					p_profile_->type = 2;
    3a92:	82 e0       	ldi	r24, 0x02	; 2
    3a94:	8a 83       	std	Y+2, r24	; 0x02
				p_profile_->type %=3;
    3a96:	9a 81       	ldd	r25, Y+2	; 0x02
    3a98:	8b ea       	ldi	r24, 0xAB	; 171
    3a9a:	98 9f       	mul	r25, r24
    3a9c:	81 2d       	mov	r24, r1
    3a9e:	11 24       	eor	r1, r1
    3aa0:	86 95       	lsr	r24
    3aa2:	28 2f       	mov	r18, r24
    3aa4:	22 0f       	add	r18, r18
    3aa6:	82 0f       	add	r24, r18
    3aa8:	98 1b       	sub	r25, r24
    3aaa:	9a 83       	std	Y+2, r25	; 0x02
				lcd_gotoxy(1,2,port_expander_present);
    3aac:	40 91 25 23 	lds	r20, 0x2325	; 0x802325 <port_expander_present>
    3ab0:	62 e0       	ldi	r22, 0x02	; 2
    3ab2:	81 e0       	ldi	r24, 0x01	; 1
    3ab4:	0e 94 0f 06 	call	0xc1e	; 0xc1e <_Z10lcd_gotoxyhhb>
				lcd_puts("Typ: ");
    3ab8:	84 ef       	ldi	r24, 0xF4	; 244
    3aba:	91 e2       	ldi	r25, 0x21	; 33
    3abc:	0e 94 9d 0a 	call	0x153a	; 0x153a <_Z8lcd_putsPKc>
				if(p_profile_->type == type_normal)
    3ac0:	8a 81       	ldd	r24, Y+2	; 0x02
    3ac2:	81 11       	cpse	r24, r1
    3ac4:	04 c0       	rjmp	.+8      	; 0x3ace <_Z12display_menuPhPcP13Speed_profileS_bPb+0x2c2>
				lcd_puts_invert("normal");
    3ac6:	8a ef       	ldi	r24, 0xFA	; 250
    3ac8:	91 e2       	ldi	r25, 0x21	; 33
    3aca:	0e 94 ac 0a 	call	0x1558	; 0x1558 <_Z15lcd_puts_invertPKc>
				if(p_profile_->type == type_switch)
    3ace:	8a 81       	ldd	r24, Y+2	; 0x02
    3ad0:	81 30       	cpi	r24, 0x01	; 1
    3ad2:	21 f4       	brne	.+8      	; 0x3adc <_Z12display_menuPhPcP13Speed_profileS_bPb+0x2d0>
				lcd_puts_invert("wechselnd");
    3ad4:	81 e0       	ldi	r24, 0x01	; 1
    3ad6:	92 e2       	ldi	r25, 0x22	; 34
    3ad8:	0e 94 ac 0a 	call	0x1558	; 0x1558 <_Z15lcd_puts_invertPKc>
				if(p_profile_->type == type_stop)
    3adc:	8a 81       	ldd	r24, Y+2	; 0x02
    3ade:	82 30       	cpi	r24, 0x02	; 2
    3ae0:	21 f4       	brne	.+8      	; 0x3aea <_Z12display_menuPhPcP13Speed_profileS_bPb+0x2de>
				lcd_puts_invert("sedimentieren");
    3ae2:	8b e0       	ldi	r24, 0x0B	; 11
    3ae4:	92 e2       	ldi	r25, 0x22	; 34
    3ae6:	0e 94 ac 0a 	call	0x1558	; 0x1558 <_Z15lcd_puts_invertPKc>
				if( get_key_short( 1<<KEY0 ))
    3aea:	80 e1       	ldi	r24, 0x10	; 16
    3aec:	0e 94 b1 0b 	call	0x1762	; 0x1762 <_Z13get_key_shorth>
    3af0:	88 23       	and	r24, r24
    3af2:	09 f4       	brne	.+2      	; 0x3af6 <_Z12display_menuPhPcP13Speed_profileS_bPb+0x2ea>
    3af4:	f8 c2       	rjmp	.+1520   	; 0x40e6 <_Z12display_menuPhPcP13Speed_profileS_bPb+0x8da>
				{
					lcd_gotoxy(1,2,port_expander_present);
    3af6:	40 91 25 23 	lds	r20, 0x2325	; 0x802325 <port_expander_present>
    3afa:	62 e0       	ldi	r22, 0x02	; 2
    3afc:	81 e0       	ldi	r24, 0x01	; 1
    3afe:	0e 94 0f 06 	call	0xc1e	; 0xc1e <_Z10lcd_gotoxyhhb>
					lcd_puts("Typ: ");
    3b02:	84 ef       	ldi	r24, 0xF4	; 244
    3b04:	91 e2       	ldi	r25, 0x21	; 33
    3b06:	0e 94 9d 0a 	call	0x153a	; 0x153a <_Z8lcd_putsPKc>
					if(p_profile_->type == type_normal)
    3b0a:	8a 81       	ldd	r24, Y+2	; 0x02
    3b0c:	81 11       	cpse	r24, r1
    3b0e:	04 c0       	rjmp	.+8      	; 0x3b18 <_Z12display_menuPhPcP13Speed_profileS_bPb+0x30c>
					lcd_puts("normal");
    3b10:	8a ef       	ldi	r24, 0xFA	; 250
    3b12:	91 e2       	ldi	r25, 0x21	; 33
    3b14:	0e 94 9d 0a 	call	0x153a	; 0x153a <_Z8lcd_putsPKc>
					if(p_profile_->type == type_switch)
    3b18:	8a 81       	ldd	r24, Y+2	; 0x02
    3b1a:	81 30       	cpi	r24, 0x01	; 1
    3b1c:	21 f4       	brne	.+8      	; 0x3b26 <_Z12display_menuPhPcP13Speed_profileS_bPb+0x31a>
					lcd_puts("wechselnd");
    3b1e:	81 e0       	ldi	r24, 0x01	; 1
    3b20:	92 e2       	ldi	r25, 0x22	; 34
    3b22:	0e 94 9d 0a 	call	0x153a	; 0x153a <_Z8lcd_putsPKc>
					if(p_profile_->type == type_stop)
    3b26:	8a 81       	ldd	r24, Y+2	; 0x02
    3b28:	82 30       	cpi	r24, 0x02	; 2
    3b2a:	21 f4       	brne	.+8      	; 0x3b34 <_Z12display_menuPhPcP13Speed_profileS_bPb+0x328>
					lcd_puts("sedimentieren");
    3b2c:	8b e0       	ldi	r24, 0x0B	; 11
    3b2e:	92 e2       	ldi	r25, 0x22	; 34
    3b30:	0e 94 9d 0a 	call	0x153a	; 0x153a <_Z8lcd_putsPKc>
					
					*position_ = 2;
    3b34:	82 e0       	ldi	r24, 0x02	; 2
    3b36:	f5 01       	movw	r30, r10
    3b38:	80 83       	st	Z, r24
					*old_position_ = 1;
    3b3a:	81 e0       	ldi	r24, 0x01	; 1
    3b3c:	f4 01       	movw	r30, r8
    3b3e:	80 83       	st	Z, r24
					menu.sub_menu = 0;
    3b40:	10 92 a0 23 	sts	0x23A0, r1	; 0x8023a0 <menu>
    3b44:	d0 c2       	rjmp	.+1440   	; 0x40e6 <_Z12display_menuPhPcP13Speed_profileS_bPb+0x8da>
				
			}
			break;
			case 0x30:
			{
				p_profile_->speed_slow += encode_read2() * 10;
    3b46:	0e 94 b4 10 	call	0x2168	; 0x2168 <_Z12encode_read2v>
    3b4a:	08 2e       	mov	r0, r24
    3b4c:	00 0c       	add	r0, r0
    3b4e:	99 0b       	sbc	r25, r25
    3b50:	9c 01       	movw	r18, r24
    3b52:	22 0f       	add	r18, r18
    3b54:	33 1f       	adc	r19, r19
    3b56:	88 0f       	add	r24, r24
    3b58:	99 1f       	adc	r25, r25
    3b5a:	88 0f       	add	r24, r24
    3b5c:	99 1f       	adc	r25, r25
    3b5e:	88 0f       	add	r24, r24
    3b60:	99 1f       	adc	r25, r25
    3b62:	82 0f       	add	r24, r18
    3b64:	93 1f       	adc	r25, r19
    3b66:	2f 81       	ldd	r18, Y+7	; 0x07
    3b68:	38 85       	ldd	r19, Y+8	; 0x08
    3b6a:	82 0f       	add	r24, r18
    3b6c:	93 1f       	adc	r25, r19
    3b6e:	8f 83       	std	Y+7, r24	; 0x07
    3b70:	98 87       	std	Y+8, r25	; 0x08
				lcd_gotoxy(10,3,port_expander_present);
    3b72:	40 91 25 23 	lds	r20, 0x2325	; 0x802325 <port_expander_present>
    3b76:	63 e0       	ldi	r22, 0x03	; 3
    3b78:	8a e0       	ldi	r24, 0x0A	; 10
    3b7a:	0e 94 0f 06 	call	0xc1e	; 0xc1e <_Z10lcd_gotoxyhhb>
				if(p_Profile_a->speed_slow <10)
    3b7e:	e0 91 0d 21 	lds	r30, 0x210D	; 0x80210d <p_Profile_a>
    3b82:	f0 91 0e 21 	lds	r31, 0x210E	; 0x80210e <p_Profile_a+0x1>
    3b86:	87 81       	ldd	r24, Z+7	; 0x07
    3b88:	90 85       	ldd	r25, Z+8	; 0x08
    3b8a:	0a 97       	sbiw	r24, 0x0a	; 10
    3b8c:	20 f4       	brcc	.+8      	; 0x3b96 <_Z12display_menuPhPcP13Speed_profileS_bPb+0x38a>
				lcd_puts(" ");
    3b8e:	8b ed       	ldi	r24, 0xDB	; 219
    3b90:	91 e2       	ldi	r25, 0x21	; 33
    3b92:	0e 94 9d 0a 	call	0x153a	; 0x153a <_Z8lcd_putsPKc>
				if(p_profile_->speed_slow <100)
    3b96:	8f 81       	ldd	r24, Y+7	; 0x07
    3b98:	98 85       	ldd	r25, Y+8	; 0x08
    3b9a:	84 36       	cpi	r24, 0x64	; 100
    3b9c:	91 05       	cpc	r25, r1
    3b9e:	20 f4       	brcc	.+8      	; 0x3ba8 <_Z12display_menuPhPcP13Speed_profileS_bPb+0x39c>
				lcd_puts(" ");
    3ba0:	8b ed       	ldi	r24, 0xDB	; 219
    3ba2:	91 e2       	ldi	r25, 0x21	; 33
    3ba4:	0e 94 9d 0a 	call	0x153a	; 0x153a <_Z8lcd_putsPKc>
				if(p_profile_->speed_slow <1000)
    3ba8:	8f 81       	ldd	r24, Y+7	; 0x07
    3baa:	98 85       	ldd	r25, Y+8	; 0x08
    3bac:	88 3e       	cpi	r24, 0xE8	; 232
    3bae:	93 40       	sbci	r25, 0x03	; 3
    3bb0:	20 f4       	brcc	.+8      	; 0x3bba <_Z12display_menuPhPcP13Speed_profileS_bPb+0x3ae>
				lcd_puts(" ");
    3bb2:	8b ed       	ldi	r24, 0xDB	; 219
    3bb4:	91 e2       	ldi	r25, 0x21	; 33
    3bb6:	0e 94 9d 0a 	call	0x153a	; 0x153a <_Z8lcd_putsPKc>
    3bba:	4a e0       	ldi	r20, 0x0A	; 10
    3bbc:	b6 01       	movw	r22, r12
    3bbe:	8f 81       	ldd	r24, Y+7	; 0x07
    3bc0:	98 85       	ldd	r25, Y+8	; 0x08
    3bc2:	0e 94 b7 3b 	call	0x776e	; 0x776e <__utoa_ncheck>
				utoa(p_profile_->speed_slow,int_buffer,10);
				lcd_puts_invert(int_buffer);
    3bc6:	c6 01       	movw	r24, r12
    3bc8:	0e 94 ac 0a 	call	0x1558	; 0x1558 <_Z15lcd_puts_invertPKc>
				lcd_puts(" UpM");
    3bcc:	83 e2       	ldi	r24, 0x23	; 35
    3bce:	92 e2       	ldi	r25, 0x22	; 34
    3bd0:	0e 94 9d 0a 	call	0x153a	; 0x153a <_Z8lcd_putsPKc>
				if( get_key_short( 1<<KEY0 ))
    3bd4:	80 e1       	ldi	r24, 0x10	; 16
    3bd6:	0e 94 b1 0b 	call	0x1762	; 0x1762 <_Z13get_key_shorth>
    3bda:	88 23       	and	r24, r24
    3bdc:	09 f4       	brne	.+2      	; 0x3be0 <_Z12display_menuPhPcP13Speed_profileS_bPb+0x3d4>
    3bde:	83 c2       	rjmp	.+1286   	; 0x40e6 <_Z12display_menuPhPcP13Speed_profileS_bPb+0x8da>
				{
					lcd_gotoxy(10,3,port_expander_present);
    3be0:	40 91 25 23 	lds	r20, 0x2325	; 0x802325 <port_expander_present>
    3be4:	63 e0       	ldi	r22, 0x03	; 3
    3be6:	8a e0       	ldi	r24, 0x0A	; 10
    3be8:	0e 94 0f 06 	call	0xc1e	; 0xc1e <_Z10lcd_gotoxyhhb>
					if(p_profile_->speed_slow <10)
    3bec:	8f 81       	ldd	r24, Y+7	; 0x07
    3bee:	98 85       	ldd	r25, Y+8	; 0x08
    3bf0:	0a 97       	sbiw	r24, 0x0a	; 10
    3bf2:	20 f4       	brcc	.+8      	; 0x3bfc <_Z12display_menuPhPcP13Speed_profileS_bPb+0x3f0>
					lcd_puts(" ");
    3bf4:	8b ed       	ldi	r24, 0xDB	; 219
    3bf6:	91 e2       	ldi	r25, 0x21	; 33
    3bf8:	0e 94 9d 0a 	call	0x153a	; 0x153a <_Z8lcd_putsPKc>
					if(p_profile_->speed_slow <100)
    3bfc:	8f 81       	ldd	r24, Y+7	; 0x07
    3bfe:	98 85       	ldd	r25, Y+8	; 0x08
    3c00:	84 36       	cpi	r24, 0x64	; 100
    3c02:	91 05       	cpc	r25, r1
    3c04:	20 f4       	brcc	.+8      	; 0x3c0e <_Z12display_menuPhPcP13Speed_profileS_bPb+0x402>
					lcd_puts(" ");
    3c06:	8b ed       	ldi	r24, 0xDB	; 219
    3c08:	91 e2       	ldi	r25, 0x21	; 33
    3c0a:	0e 94 9d 0a 	call	0x153a	; 0x153a <_Z8lcd_putsPKc>
					if(p_profile_->speed_slow <1000)
    3c0e:	8f 81       	ldd	r24, Y+7	; 0x07
    3c10:	98 85       	ldd	r25, Y+8	; 0x08
    3c12:	88 3e       	cpi	r24, 0xE8	; 232
    3c14:	93 40       	sbci	r25, 0x03	; 3
    3c16:	20 f4       	brcc	.+8      	; 0x3c20 <_Z12display_menuPhPcP13Speed_profileS_bPb+0x414>
					lcd_puts(" ");
    3c18:	8b ed       	ldi	r24, 0xDB	; 219
    3c1a:	91 e2       	ldi	r25, 0x21	; 33
    3c1c:	0e 94 9d 0a 	call	0x153a	; 0x153a <_Z8lcd_putsPKc>
    3c20:	4a e0       	ldi	r20, 0x0A	; 10
    3c22:	b6 01       	movw	r22, r12
    3c24:	8f 81       	ldd	r24, Y+7	; 0x07
    3c26:	98 85       	ldd	r25, Y+8	; 0x08
    3c28:	0e 94 b7 3b 	call	0x776e	; 0x776e <__utoa_ncheck>
					utoa(p_profile_->speed_slow,int_buffer,10);
					lcd_puts(int_buffer);
    3c2c:	c6 01       	movw	r24, r12
    3c2e:	0e 94 9d 0a 	call	0x153a	; 0x153a <_Z8lcd_putsPKc>
					lcd_puts(" UpM");
    3c32:	83 e2       	ldi	r24, 0x23	; 35
    3c34:	92 e2       	ldi	r25, 0x22	; 34
    3c36:	0e 94 9d 0a 	call	0x153a	; 0x153a <_Z8lcd_putsPKc>
					*position_ = 3;
    3c3a:	83 e0       	ldi	r24, 0x03	; 3
    3c3c:	f5 01       	movw	r30, r10
    3c3e:	80 83       	st	Z, r24
					*old_position_ = 2;
    3c40:	82 e0       	ldi	r24, 0x02	; 2
    3c42:	f4 01       	movw	r30, r8
    3c44:	80 83       	st	Z, r24
					menu.sub_menu = 0;
    3c46:	10 92 a0 23 	sts	0x23A0, r1	; 0x8023a0 <menu>
    3c4a:	4d c2       	rjmp	.+1178   	; 0x40e6 <_Z12display_menuPhPcP13Speed_profileS_bPb+0x8da>
				
			}
			break;
			case 0x40:
			{
				p_profile_->speed_fast += encode_read2() * 10;
    3c4c:	0e 94 b4 10 	call	0x2168	; 0x2168 <_Z12encode_read2v>
    3c50:	08 2e       	mov	r0, r24
    3c52:	00 0c       	add	r0, r0
    3c54:	99 0b       	sbc	r25, r25
    3c56:	9c 01       	movw	r18, r24
    3c58:	22 0f       	add	r18, r18
    3c5a:	33 1f       	adc	r19, r19
    3c5c:	88 0f       	add	r24, r24
    3c5e:	99 1f       	adc	r25, r25
    3c60:	88 0f       	add	r24, r24
    3c62:	99 1f       	adc	r25, r25
    3c64:	88 0f       	add	r24, r24
    3c66:	99 1f       	adc	r25, r25
    3c68:	82 0f       	add	r24, r18
    3c6a:	93 1f       	adc	r25, r19
    3c6c:	29 85       	ldd	r18, Y+9	; 0x09
    3c6e:	3a 85       	ldd	r19, Y+10	; 0x0a
    3c70:	82 0f       	add	r24, r18
    3c72:	93 1f       	adc	r25, r19
    3c74:	89 87       	std	Y+9, r24	; 0x09
    3c76:	9a 87       	std	Y+10, r25	; 0x0a
				lcd_gotoxy(10,4,port_expander_present);
    3c78:	40 91 25 23 	lds	r20, 0x2325	; 0x802325 <port_expander_present>
    3c7c:	64 e0       	ldi	r22, 0x04	; 4
    3c7e:	8a e0       	ldi	r24, 0x0A	; 10
    3c80:	0e 94 0f 06 	call	0xc1e	; 0xc1e <_Z10lcd_gotoxyhhb>
				if(p_profile_->speed_fast <10)
    3c84:	89 85       	ldd	r24, Y+9	; 0x09
    3c86:	9a 85       	ldd	r25, Y+10	; 0x0a
    3c88:	0a 97       	sbiw	r24, 0x0a	; 10
    3c8a:	20 f4       	brcc	.+8      	; 0x3c94 <_Z12display_menuPhPcP13Speed_profileS_bPb+0x488>
				lcd_puts(" ");
    3c8c:	8b ed       	ldi	r24, 0xDB	; 219
    3c8e:	91 e2       	ldi	r25, 0x21	; 33
    3c90:	0e 94 9d 0a 	call	0x153a	; 0x153a <_Z8lcd_putsPKc>
				if(p_profile_->speed_fast <100)
    3c94:	89 85       	ldd	r24, Y+9	; 0x09
    3c96:	9a 85       	ldd	r25, Y+10	; 0x0a
    3c98:	84 36       	cpi	r24, 0x64	; 100
    3c9a:	91 05       	cpc	r25, r1
    3c9c:	20 f4       	brcc	.+8      	; 0x3ca6 <_Z12display_menuPhPcP13Speed_profileS_bPb+0x49a>
				lcd_puts(" ");
    3c9e:	8b ed       	ldi	r24, 0xDB	; 219
    3ca0:	91 e2       	ldi	r25, 0x21	; 33
    3ca2:	0e 94 9d 0a 	call	0x153a	; 0x153a <_Z8lcd_putsPKc>
				if(p_profile_->speed_fast <1000)
    3ca6:	89 85       	ldd	r24, Y+9	; 0x09
    3ca8:	9a 85       	ldd	r25, Y+10	; 0x0a
    3caa:	88 3e       	cpi	r24, 0xE8	; 232
    3cac:	93 40       	sbci	r25, 0x03	; 3
    3cae:	20 f4       	brcc	.+8      	; 0x3cb8 <_Z12display_menuPhPcP13Speed_profileS_bPb+0x4ac>
				lcd_puts(" ");
    3cb0:	8b ed       	ldi	r24, 0xDB	; 219
    3cb2:	91 e2       	ldi	r25, 0x21	; 33
    3cb4:	0e 94 9d 0a 	call	0x153a	; 0x153a <_Z8lcd_putsPKc>
    3cb8:	4a e0       	ldi	r20, 0x0A	; 10
    3cba:	b6 01       	movw	r22, r12
    3cbc:	89 85       	ldd	r24, Y+9	; 0x09
    3cbe:	9a 85       	ldd	r25, Y+10	; 0x0a
    3cc0:	0e 94 b7 3b 	call	0x776e	; 0x776e <__utoa_ncheck>
				utoa(p_profile_->speed_fast,int_buffer,10);
				lcd_puts_invert(int_buffer);
    3cc4:	c6 01       	movw	r24, r12
    3cc6:	0e 94 ac 0a 	call	0x1558	; 0x1558 <_Z15lcd_puts_invertPKc>
				lcd_puts(" UpM");
    3cca:	83 e2       	ldi	r24, 0x23	; 35
    3ccc:	92 e2       	ldi	r25, 0x22	; 34
    3cce:	0e 94 9d 0a 	call	0x153a	; 0x153a <_Z8lcd_putsPKc>
				if( get_key_short( 1<<KEY0 ))
    3cd2:	80 e1       	ldi	r24, 0x10	; 16
    3cd4:	0e 94 b1 0b 	call	0x1762	; 0x1762 <_Z13get_key_shorth>
    3cd8:	88 23       	and	r24, r24
    3cda:	09 f4       	brne	.+2      	; 0x3cde <_Z12display_menuPhPcP13Speed_profileS_bPb+0x4d2>
    3cdc:	04 c2       	rjmp	.+1032   	; 0x40e6 <_Z12display_menuPhPcP13Speed_profileS_bPb+0x8da>
				{
					lcd_gotoxy(10,4,port_expander_present);
    3cde:	40 91 25 23 	lds	r20, 0x2325	; 0x802325 <port_expander_present>
    3ce2:	64 e0       	ldi	r22, 0x04	; 4
    3ce4:	8a e0       	ldi	r24, 0x0A	; 10
    3ce6:	0e 94 0f 06 	call	0xc1e	; 0xc1e <_Z10lcd_gotoxyhhb>
					if(p_profile_->speed_fast <10)
    3cea:	89 85       	ldd	r24, Y+9	; 0x09
    3cec:	9a 85       	ldd	r25, Y+10	; 0x0a
    3cee:	0a 97       	sbiw	r24, 0x0a	; 10
    3cf0:	20 f4       	brcc	.+8      	; 0x3cfa <_Z12display_menuPhPcP13Speed_profileS_bPb+0x4ee>
					lcd_puts(" ");
    3cf2:	8b ed       	ldi	r24, 0xDB	; 219
    3cf4:	91 e2       	ldi	r25, 0x21	; 33
    3cf6:	0e 94 9d 0a 	call	0x153a	; 0x153a <_Z8lcd_putsPKc>
					if(p_profile_->speed_fast <100)
    3cfa:	89 85       	ldd	r24, Y+9	; 0x09
    3cfc:	9a 85       	ldd	r25, Y+10	; 0x0a
    3cfe:	84 36       	cpi	r24, 0x64	; 100
    3d00:	91 05       	cpc	r25, r1
    3d02:	20 f4       	brcc	.+8      	; 0x3d0c <_Z12display_menuPhPcP13Speed_profileS_bPb+0x500>
					lcd_puts(" ");
    3d04:	8b ed       	ldi	r24, 0xDB	; 219
    3d06:	91 e2       	ldi	r25, 0x21	; 33
    3d08:	0e 94 9d 0a 	call	0x153a	; 0x153a <_Z8lcd_putsPKc>
					if(p_profile_->speed_fast <1000)
    3d0c:	89 85       	ldd	r24, Y+9	; 0x09
    3d0e:	9a 85       	ldd	r25, Y+10	; 0x0a
    3d10:	88 3e       	cpi	r24, 0xE8	; 232
    3d12:	93 40       	sbci	r25, 0x03	; 3
    3d14:	20 f4       	brcc	.+8      	; 0x3d1e <_Z12display_menuPhPcP13Speed_profileS_bPb+0x512>
					lcd_puts(" ");
    3d16:	8b ed       	ldi	r24, 0xDB	; 219
    3d18:	91 e2       	ldi	r25, 0x21	; 33
    3d1a:	0e 94 9d 0a 	call	0x153a	; 0x153a <_Z8lcd_putsPKc>
    3d1e:	4a e0       	ldi	r20, 0x0A	; 10
    3d20:	b6 01       	movw	r22, r12
    3d22:	89 85       	ldd	r24, Y+9	; 0x09
    3d24:	9a 85       	ldd	r25, Y+10	; 0x0a
    3d26:	0e 94 b7 3b 	call	0x776e	; 0x776e <__utoa_ncheck>
					utoa(p_profile_->speed_fast,int_buffer,10);
					lcd_puts(int_buffer);
    3d2a:	c6 01       	movw	r24, r12
    3d2c:	0e 94 9d 0a 	call	0x153a	; 0x153a <_Z8lcd_putsPKc>
					lcd_puts(" UpM");
    3d30:	83 e2       	ldi	r24, 0x23	; 35
    3d32:	92 e2       	ldi	r25, 0x22	; 34
    3d34:	0e 94 9d 0a 	call	0x153a	; 0x153a <_Z8lcd_putsPKc>
					*position_ = 4;
    3d38:	84 e0       	ldi	r24, 0x04	; 4
    3d3a:	f5 01       	movw	r30, r10
    3d3c:	80 83       	st	Z, r24
					*old_position_ = 2;
    3d3e:	82 e0       	ldi	r24, 0x02	; 2
    3d40:	f4 01       	movw	r30, r8
    3d42:	80 83       	st	Z, r24
					menu.sub_menu = 0;
    3d44:	10 92 a0 23 	sts	0x23A0, r1	; 0x8023a0 <menu>
    3d48:	ce c1       	rjmp	.+924    	; 0x40e6 <_Z12display_menuPhPcP13Speed_profileS_bPb+0x8da>
			}
			break;
			case 0x50:
			{
				
				update_proile_time(&p_profile_->time_fast_init,encode_read2() * 3600,max_profile_time);
    3d4a:	0e 94 b4 10 	call	0x2168	; 0x2168 <_Z12encode_read2v>
    3d4e:	2b 96       	adiw	r28, 0x0b	; 11
    3d50:	20 e1       	ldi	r18, 0x10	; 16
    3d52:	3e e0       	ldi	r19, 0x0E	; 14
    3d54:	48 2f       	mov	r20, r24
    3d56:	42 03       	mulsu	r20, r18
    3d58:	b0 01       	movw	r22, r0
    3d5a:	43 9f       	mul	r20, r19
    3d5c:	70 0d       	add	r23, r0
    3d5e:	11 24       	eor	r1, r1
    3d60:	20 e0       	ldi	r18, 0x00	; 0
    3d62:	36 e4       	ldi	r19, 0x46	; 70
    3d64:	45 e0       	ldi	r20, 0x05	; 5
    3d66:	50 e0       	ldi	r21, 0x00	; 0
    3d68:	ce 01       	movw	r24, r28
    3d6a:	0e 94 f2 13 	call	0x27e4	; 0x27e4 <_Z18update_proile_timePmim>
				//p_Profile_a->time_fast_init += encode_read2() * 3600;
				lcd_gotoxy(11,5,port_expander_present);
    3d6e:	40 91 25 23 	lds	r20, 0x2325	; 0x802325 <port_expander_present>
    3d72:	65 e0       	ldi	r22, 0x05	; 5
    3d74:	8b e0       	ldi	r24, 0x0B	; 11
    3d76:	0e 94 0f 06 	call	0xc1e	; 0xc1e <_Z10lcd_gotoxyhhb>
				display_time_menu(&p_profile_->time_fast_init,true,0,1);
    3d7a:	21 e0       	ldi	r18, 0x01	; 1
    3d7c:	40 e0       	ldi	r20, 0x00	; 0
    3d7e:	61 e0       	ldi	r22, 0x01	; 1
    3d80:	ce 01       	movw	r24, r28
    3d82:	0e 94 37 15 	call	0x2a6e	; 0x2a6e <_Z17display_time_menuPVmbhh>
				if( get_key_short( 1<<KEY0 ))
    3d86:	80 e1       	ldi	r24, 0x10	; 16
    3d88:	0e 94 b1 0b 	call	0x1762	; 0x1762 <_Z13get_key_shorth>
    3d8c:	88 23       	and	r24, r24
    3d8e:	09 f4       	brne	.+2      	; 0x3d92 <_Z12display_menuPhPcP13Speed_profileS_bPb+0x586>
    3d90:	aa c1       	rjmp	.+852    	; 0x40e6 <_Z12display_menuPhPcP13Speed_profileS_bPb+0x8da>
				{
					lcd_gotoxy(11,5,port_expander_present);
    3d92:	40 91 25 23 	lds	r20, 0x2325	; 0x802325 <port_expander_present>
    3d96:	65 e0       	ldi	r22, 0x05	; 5
    3d98:	8b e0       	ldi	r24, 0x0B	; 11
    3d9a:	0e 94 0f 06 	call	0xc1e	; 0xc1e <_Z10lcd_gotoxyhhb>
					display_time_menu(&p_profile_->time_fast_init,false,0,0);
    3d9e:	20 e0       	ldi	r18, 0x00	; 0
    3da0:	40 e0       	ldi	r20, 0x00	; 0
    3da2:	60 e0       	ldi	r22, 0x00	; 0
    3da4:	ce 01       	movw	r24, r28
    3da6:	0e 94 37 15 	call	0x2a6e	; 0x2a6e <_Z17display_time_menuPVmbhh>
					
					menu.sub_menu = 0x51;
    3daa:	81 e5       	ldi	r24, 0x51	; 81
    3dac:	80 93 a0 23 	sts	0x23A0, r24	; 0x8023a0 <menu>
    3db0:	9a c1       	rjmp	.+820    	; 0x40e6 <_Z12display_menuPhPcP13Speed_profileS_bPb+0x8da>
				
			}
			break;
			case 0x51:
			{
				update_proile_time(&p_profile_->time_fast_init,encode_read2() * 60,max_profile_time);
    3db2:	0e 94 b4 10 	call	0x2168	; 0x2168 <_Z12encode_read2v>
    3db6:	2b 96       	adiw	r28, 0x0b	; 11
    3db8:	9c e3       	ldi	r25, 0x3C	; 60
    3dba:	89 02       	muls	r24, r25
    3dbc:	b0 01       	movw	r22, r0
    3dbe:	11 24       	eor	r1, r1
    3dc0:	20 e0       	ldi	r18, 0x00	; 0
    3dc2:	36 e4       	ldi	r19, 0x46	; 70
    3dc4:	45 e0       	ldi	r20, 0x05	; 5
    3dc6:	50 e0       	ldi	r21, 0x00	; 0
    3dc8:	ce 01       	movw	r24, r28
    3dca:	0e 94 f2 13 	call	0x27e4	; 0x27e4 <_Z18update_proile_timePmim>
				//p_Profile_a->time_fast_init += encode_read2() * 60;
				lcd_gotoxy(11,5,port_expander_present);
    3dce:	40 91 25 23 	lds	r20, 0x2325	; 0x802325 <port_expander_present>
    3dd2:	65 e0       	ldi	r22, 0x05	; 5
    3dd4:	8b e0       	ldi	r24, 0x0B	; 11
    3dd6:	0e 94 0f 06 	call	0xc1e	; 0xc1e <_Z10lcd_gotoxyhhb>
				display_time_menu(&p_profile_->time_fast_init,true,3,4);
    3dda:	24 e0       	ldi	r18, 0x04	; 4
    3ddc:	43 e0       	ldi	r20, 0x03	; 3
    3dde:	61 e0       	ldi	r22, 0x01	; 1
    3de0:	ce 01       	movw	r24, r28
    3de2:	0e 94 37 15 	call	0x2a6e	; 0x2a6e <_Z17display_time_menuPVmbhh>
				if( get_key_short( 1<<KEY0 ))
    3de6:	80 e1       	ldi	r24, 0x10	; 16
    3de8:	0e 94 b1 0b 	call	0x1762	; 0x1762 <_Z13get_key_shorth>
    3dec:	88 23       	and	r24, r24
    3dee:	09 f4       	brne	.+2      	; 0x3df2 <_Z12display_menuPhPcP13Speed_profileS_bPb+0x5e6>
    3df0:	7a c1       	rjmp	.+756    	; 0x40e6 <_Z12display_menuPhPcP13Speed_profileS_bPb+0x8da>
				{
					lcd_gotoxy(11,5,port_expander_present);
    3df2:	40 91 25 23 	lds	r20, 0x2325	; 0x802325 <port_expander_present>
    3df6:	65 e0       	ldi	r22, 0x05	; 5
    3df8:	8b e0       	ldi	r24, 0x0B	; 11
    3dfa:	0e 94 0f 06 	call	0xc1e	; 0xc1e <_Z10lcd_gotoxyhhb>
					display_time_menu(&p_profile_->time_fast_init,false,0,0);
    3dfe:	20 e0       	ldi	r18, 0x00	; 0
    3e00:	40 e0       	ldi	r20, 0x00	; 0
    3e02:	60 e0       	ldi	r22, 0x00	; 0
    3e04:	ce 01       	movw	r24, r28
    3e06:	0e 94 37 15 	call	0x2a6e	; 0x2a6e <_Z17display_time_menuPVmbhh>
					
					menu.sub_menu = 0x52;
    3e0a:	82 e5       	ldi	r24, 0x52	; 82
    3e0c:	80 93 a0 23 	sts	0x23A0, r24	; 0x8023a0 <menu>
    3e10:	6a c1       	rjmp	.+724    	; 0x40e6 <_Z12display_menuPhPcP13Speed_profileS_bPb+0x8da>
				
			}
			break;
			case 0x52:
			{
				update_proile_time(&p_profile_->time_fast_init,encode_read2(),max_profile_time);
    3e12:	0e 94 b4 10 	call	0x2168	; 0x2168 <_Z12encode_read2v>
    3e16:	2b 96       	adiw	r28, 0x0b	; 11
    3e18:	68 2f       	mov	r22, r24
    3e1a:	88 0f       	add	r24, r24
    3e1c:	77 0b       	sbc	r23, r23
    3e1e:	20 e0       	ldi	r18, 0x00	; 0
    3e20:	36 e4       	ldi	r19, 0x46	; 70
    3e22:	45 e0       	ldi	r20, 0x05	; 5
    3e24:	50 e0       	ldi	r21, 0x00	; 0
    3e26:	ce 01       	movw	r24, r28
    3e28:	0e 94 f2 13 	call	0x27e4	; 0x27e4 <_Z18update_proile_timePmim>
				//p_Profile_a->time_fast_init += encode_read2() ;
				lcd_gotoxy(11,5,port_expander_present);
    3e2c:	40 91 25 23 	lds	r20, 0x2325	; 0x802325 <port_expander_present>
    3e30:	65 e0       	ldi	r22, 0x05	; 5
    3e32:	8b e0       	ldi	r24, 0x0B	; 11
    3e34:	0e 94 0f 06 	call	0xc1e	; 0xc1e <_Z10lcd_gotoxyhhb>
				display_time_menu(&p_profile_->time_fast_init,true,6,7);
    3e38:	27 e0       	ldi	r18, 0x07	; 7
    3e3a:	46 e0       	ldi	r20, 0x06	; 6
    3e3c:	61 e0       	ldi	r22, 0x01	; 1
    3e3e:	ce 01       	movw	r24, r28
    3e40:	0e 94 37 15 	call	0x2a6e	; 0x2a6e <_Z17display_time_menuPVmbhh>
				if( get_key_short( 1<<KEY0 ))
    3e44:	80 e1       	ldi	r24, 0x10	; 16
    3e46:	0e 94 b1 0b 	call	0x1762	; 0x1762 <_Z13get_key_shorth>
    3e4a:	88 23       	and	r24, r24
    3e4c:	09 f4       	brne	.+2      	; 0x3e50 <_Z12display_menuPhPcP13Speed_profileS_bPb+0x644>
    3e4e:	4b c1       	rjmp	.+662    	; 0x40e6 <_Z12display_menuPhPcP13Speed_profileS_bPb+0x8da>
				{
					lcd_gotoxy(11,5,port_expander_present);
    3e50:	40 91 25 23 	lds	r20, 0x2325	; 0x802325 <port_expander_present>
    3e54:	65 e0       	ldi	r22, 0x05	; 5
    3e56:	8b e0       	ldi	r24, 0x0B	; 11
    3e58:	0e 94 0f 06 	call	0xc1e	; 0xc1e <_Z10lcd_gotoxyhhb>
					display_time_menu(&p_profile_->time_fast_init,false,0,0);
    3e5c:	20 e0       	ldi	r18, 0x00	; 0
    3e5e:	40 e0       	ldi	r20, 0x00	; 0
    3e60:	60 e0       	ldi	r22, 0x00	; 0
    3e62:	ce 01       	movw	r24, r28
    3e64:	0e 94 37 15 	call	0x2a6e	; 0x2a6e <_Z17display_time_menuPVmbhh>
					*position_ = 5;
    3e68:	85 e0       	ldi	r24, 0x05	; 5
    3e6a:	f5 01       	movw	r30, r10
    3e6c:	80 83       	st	Z, r24
					*old_position_ = 2;
    3e6e:	82 e0       	ldi	r24, 0x02	; 2
    3e70:	f4 01       	movw	r30, r8
    3e72:	80 83       	st	Z, r24
					menu.sub_menu = 0x00;
    3e74:	10 92 a0 23 	sts	0x23A0, r1	; 0x8023a0 <menu>
    3e78:	36 c1       	rjmp	.+620    	; 0x40e6 <_Z12display_menuPhPcP13Speed_profileS_bPb+0x8da>
				
			}
			break;
			case 0x60:
			{
				update_proile_time(&p_profile_->total_time,encode_read2() * 3600,max_profile_time);
    3e7a:	0e 94 b4 10 	call	0x2168	; 0x2168 <_Z12encode_read2v>
    3e7e:	2f 96       	adiw	r28, 0x0f	; 15
    3e80:	20 e1       	ldi	r18, 0x10	; 16
    3e82:	3e e0       	ldi	r19, 0x0E	; 14
    3e84:	48 2f       	mov	r20, r24
    3e86:	42 03       	mulsu	r20, r18
    3e88:	b0 01       	movw	r22, r0
    3e8a:	43 9f       	mul	r20, r19
    3e8c:	70 0d       	add	r23, r0
    3e8e:	11 24       	eor	r1, r1
    3e90:	20 e0       	ldi	r18, 0x00	; 0
    3e92:	36 e4       	ldi	r19, 0x46	; 70
    3e94:	45 e0       	ldi	r20, 0x05	; 5
    3e96:	50 e0       	ldi	r21, 0x00	; 0
    3e98:	ce 01       	movw	r24, r28
    3e9a:	0e 94 f2 13 	call	0x27e4	; 0x27e4 <_Z18update_proile_timePmim>
				//p_Profile_a->total_time += encode_read2() * 3600;
				lcd_gotoxy(11,6,port_expander_present);
    3e9e:	40 91 25 23 	lds	r20, 0x2325	; 0x802325 <port_expander_present>
    3ea2:	66 e0       	ldi	r22, 0x06	; 6
    3ea4:	8b e0       	ldi	r24, 0x0B	; 11
    3ea6:	0e 94 0f 06 	call	0xc1e	; 0xc1e <_Z10lcd_gotoxyhhb>
				display_time_menu(&p_profile_->total_time,true,0,1);
    3eaa:	21 e0       	ldi	r18, 0x01	; 1
    3eac:	40 e0       	ldi	r20, 0x00	; 0
    3eae:	61 e0       	ldi	r22, 0x01	; 1
    3eb0:	ce 01       	movw	r24, r28
    3eb2:	0e 94 37 15 	call	0x2a6e	; 0x2a6e <_Z17display_time_menuPVmbhh>
				if( get_key_short( 1<<KEY0 ))
    3eb6:	80 e1       	ldi	r24, 0x10	; 16
    3eb8:	0e 94 b1 0b 	call	0x1762	; 0x1762 <_Z13get_key_shorth>
    3ebc:	88 23       	and	r24, r24
    3ebe:	09 f4       	brne	.+2      	; 0x3ec2 <_Z12display_menuPhPcP13Speed_profileS_bPb+0x6b6>
    3ec0:	12 c1       	rjmp	.+548    	; 0x40e6 <_Z12display_menuPhPcP13Speed_profileS_bPb+0x8da>
				{
					lcd_gotoxy(11,6,port_expander_present);
    3ec2:	40 91 25 23 	lds	r20, 0x2325	; 0x802325 <port_expander_present>
    3ec6:	66 e0       	ldi	r22, 0x06	; 6
    3ec8:	8b e0       	ldi	r24, 0x0B	; 11
    3eca:	0e 94 0f 06 	call	0xc1e	; 0xc1e <_Z10lcd_gotoxyhhb>
					display_time_menu(&p_profile_->total_time,false,0,0);
    3ece:	20 e0       	ldi	r18, 0x00	; 0
    3ed0:	40 e0       	ldi	r20, 0x00	; 0
    3ed2:	60 e0       	ldi	r22, 0x00	; 0
    3ed4:	ce 01       	movw	r24, r28
    3ed6:	0e 94 37 15 	call	0x2a6e	; 0x2a6e <_Z17display_time_menuPVmbhh>
					
					menu.sub_menu = 0x61;
    3eda:	81 e6       	ldi	r24, 0x61	; 97
    3edc:	80 93 a0 23 	sts	0x23A0, r24	; 0x8023a0 <menu>
    3ee0:	02 c1       	rjmp	.+516    	; 0x40e6 <_Z12display_menuPhPcP13Speed_profileS_bPb+0x8da>
			}
			break;
			case 0x61:
			{
				
				update_proile_time(&p_profile_->total_time,encode_read2() * 60,max_profile_time);
    3ee2:	0e 94 b4 10 	call	0x2168	; 0x2168 <_Z12encode_read2v>
    3ee6:	2f 96       	adiw	r28, 0x0f	; 15
    3ee8:	9c e3       	ldi	r25, 0x3C	; 60
    3eea:	89 02       	muls	r24, r25
    3eec:	b0 01       	movw	r22, r0
    3eee:	11 24       	eor	r1, r1
    3ef0:	20 e0       	ldi	r18, 0x00	; 0
    3ef2:	36 e4       	ldi	r19, 0x46	; 70
    3ef4:	45 e0       	ldi	r20, 0x05	; 5
    3ef6:	50 e0       	ldi	r21, 0x00	; 0
    3ef8:	ce 01       	movw	r24, r28
    3efa:	0e 94 f2 13 	call	0x27e4	; 0x27e4 <_Z18update_proile_timePmim>
				//p_Profile_a->total_time += encode_read2() * 3600;
				lcd_gotoxy(11,6,port_expander_present);
    3efe:	40 91 25 23 	lds	r20, 0x2325	; 0x802325 <port_expander_present>
    3f02:	66 e0       	ldi	r22, 0x06	; 6
    3f04:	8b e0       	ldi	r24, 0x0B	; 11
    3f06:	0e 94 0f 06 	call	0xc1e	; 0xc1e <_Z10lcd_gotoxyhhb>
				display_time_menu(&p_profile_->total_time,true,3,4);
    3f0a:	24 e0       	ldi	r18, 0x04	; 4
    3f0c:	43 e0       	ldi	r20, 0x03	; 3
    3f0e:	61 e0       	ldi	r22, 0x01	; 1
    3f10:	ce 01       	movw	r24, r28
    3f12:	0e 94 37 15 	call	0x2a6e	; 0x2a6e <_Z17display_time_menuPVmbhh>
				if( get_key_short( 1<<KEY0 ))
    3f16:	80 e1       	ldi	r24, 0x10	; 16
    3f18:	0e 94 b1 0b 	call	0x1762	; 0x1762 <_Z13get_key_shorth>
    3f1c:	88 23       	and	r24, r24
    3f1e:	09 f4       	brne	.+2      	; 0x3f22 <_Z12display_menuPhPcP13Speed_profileS_bPb+0x716>
    3f20:	e2 c0       	rjmp	.+452    	; 0x40e6 <_Z12display_menuPhPcP13Speed_profileS_bPb+0x8da>
				{
					lcd_gotoxy(11,6,port_expander_present);
    3f22:	40 91 25 23 	lds	r20, 0x2325	; 0x802325 <port_expander_present>
    3f26:	66 e0       	ldi	r22, 0x06	; 6
    3f28:	8b e0       	ldi	r24, 0x0B	; 11
    3f2a:	0e 94 0f 06 	call	0xc1e	; 0xc1e <_Z10lcd_gotoxyhhb>
					display_time_menu(&p_profile_->total_time,false,0,0);
    3f2e:	20 e0       	ldi	r18, 0x00	; 0
    3f30:	40 e0       	ldi	r20, 0x00	; 0
    3f32:	60 e0       	ldi	r22, 0x00	; 0
    3f34:	ce 01       	movw	r24, r28
    3f36:	0e 94 37 15 	call	0x2a6e	; 0x2a6e <_Z17display_time_menuPVmbhh>
					
					menu.sub_menu = 0x62;
    3f3a:	82 e6       	ldi	r24, 0x62	; 98
    3f3c:	80 93 a0 23 	sts	0x23A0, r24	; 0x8023a0 <menu>
    3f40:	d2 c0       	rjmp	.+420    	; 0x40e6 <_Z12display_menuPhPcP13Speed_profileS_bPb+0x8da>
			}
			break;
			case 0x62:
			{
				
				update_proile_time(&p_Profile_a->total_time,encode_read2(),max_profile_time);
    3f42:	0e 94 b4 10 	call	0x2168	; 0x2168 <_Z12encode_read2v>
    3f46:	68 2f       	mov	r22, r24
    3f48:	88 0f       	add	r24, r24
    3f4a:	77 0b       	sbc	r23, r23
    3f4c:	80 91 0d 21 	lds	r24, 0x210D	; 0x80210d <p_Profile_a>
    3f50:	90 91 0e 21 	lds	r25, 0x210E	; 0x80210e <p_Profile_a+0x1>
    3f54:	20 e0       	ldi	r18, 0x00	; 0
    3f56:	36 e4       	ldi	r19, 0x46	; 70
    3f58:	45 e0       	ldi	r20, 0x05	; 5
    3f5a:	50 e0       	ldi	r21, 0x00	; 0
    3f5c:	0f 96       	adiw	r24, 0x0f	; 15
    3f5e:	0e 94 f2 13 	call	0x27e4	; 0x27e4 <_Z18update_proile_timePmim>
				//p_Profile_a->total_time += encode_read2() * 3600;
				lcd_gotoxy(11,6,port_expander_present);
    3f62:	40 91 25 23 	lds	r20, 0x2325	; 0x802325 <port_expander_present>
    3f66:	66 e0       	ldi	r22, 0x06	; 6
    3f68:	8b e0       	ldi	r24, 0x0B	; 11
    3f6a:	0e 94 0f 06 	call	0xc1e	; 0xc1e <_Z10lcd_gotoxyhhb>
				display_time_menu(&p_profile_->total_time,true,6,7);
    3f6e:	2f 96       	adiw	r28, 0x0f	; 15
    3f70:	27 e0       	ldi	r18, 0x07	; 7
    3f72:	46 e0       	ldi	r20, 0x06	; 6
    3f74:	61 e0       	ldi	r22, 0x01	; 1
    3f76:	ce 01       	movw	r24, r28
    3f78:	0e 94 37 15 	call	0x2a6e	; 0x2a6e <_Z17display_time_menuPVmbhh>
				if( get_key_short( 1<<KEY0 ))
    3f7c:	80 e1       	ldi	r24, 0x10	; 16
    3f7e:	0e 94 b1 0b 	call	0x1762	; 0x1762 <_Z13get_key_shorth>
    3f82:	88 23       	and	r24, r24
    3f84:	09 f4       	brne	.+2      	; 0x3f88 <_Z12display_menuPhPcP13Speed_profileS_bPb+0x77c>
    3f86:	af c0       	rjmp	.+350    	; 0x40e6 <_Z12display_menuPhPcP13Speed_profileS_bPb+0x8da>
				{
					lcd_gotoxy(11,6,port_expander_present);
    3f88:	40 91 25 23 	lds	r20, 0x2325	; 0x802325 <port_expander_present>
    3f8c:	66 e0       	ldi	r22, 0x06	; 6
    3f8e:	8b e0       	ldi	r24, 0x0B	; 11
    3f90:	0e 94 0f 06 	call	0xc1e	; 0xc1e <_Z10lcd_gotoxyhhb>
					display_time_menu(&p_profile_->total_time,false,0,0);
    3f94:	20 e0       	ldi	r18, 0x00	; 0
    3f96:	40 e0       	ldi	r20, 0x00	; 0
    3f98:	60 e0       	ldi	r22, 0x00	; 0
    3f9a:	ce 01       	movw	r24, r28
    3f9c:	0e 94 37 15 	call	0x2a6e	; 0x2a6e <_Z17display_time_menuPVmbhh>
					*position_ = 6;
    3fa0:	86 e0       	ldi	r24, 0x06	; 6
    3fa2:	f5 01       	movw	r30, r10
    3fa4:	80 83       	st	Z, r24
					*old_position_ = 2;
    3fa6:	82 e0       	ldi	r24, 0x02	; 2
    3fa8:	f4 01       	movw	r30, r8
    3faa:	80 83       	st	Z, r24
					menu.sub_menu = 0x00;
    3fac:	10 92 a0 23 	sts	0x23A0, r1	; 0x8023a0 <menu>
    3fb0:	9a c0       	rjmp	.+308    	; 0x40e6 <_Z12display_menuPhPcP13Speed_profileS_bPb+0x8da>
			}
			break;
			case 0x70:
			{
				
				update_proile_time(&p_profile_->time_slow,encode_read2() * 3600,max_profile_time);
    3fb2:	0e 94 b4 10 	call	0x2168	; 0x2168 <_Z12encode_read2v>
    3fb6:	63 96       	adiw	r28, 0x13	; 19
    3fb8:	20 e1       	ldi	r18, 0x10	; 16
    3fba:	3e e0       	ldi	r19, 0x0E	; 14
    3fbc:	48 2f       	mov	r20, r24
    3fbe:	42 03       	mulsu	r20, r18
    3fc0:	b0 01       	movw	r22, r0
    3fc2:	43 9f       	mul	r20, r19
    3fc4:	70 0d       	add	r23, r0
    3fc6:	11 24       	eor	r1, r1
    3fc8:	20 e0       	ldi	r18, 0x00	; 0
    3fca:	36 e4       	ldi	r19, 0x46	; 70
    3fcc:	45 e0       	ldi	r20, 0x05	; 5
    3fce:	50 e0       	ldi	r21, 0x00	; 0
    3fd0:	ce 01       	movw	r24, r28
    3fd2:	0e 94 f2 13 	call	0x27e4	; 0x27e4 <_Z18update_proile_timePmim>
				//p_Profile_a->total_time += encode_read2() * 3600;p_Profile_a->time_slow += encode_read2() * 3600;
				lcd_gotoxy(11,7,port_expander_present);
    3fd6:	40 91 25 23 	lds	r20, 0x2325	; 0x802325 <port_expander_present>
    3fda:	67 e0       	ldi	r22, 0x07	; 7
    3fdc:	8b e0       	ldi	r24, 0x0B	; 11
    3fde:	0e 94 0f 06 	call	0xc1e	; 0xc1e <_Z10lcd_gotoxyhhb>
				display_time_menu(&p_profile_->time_slow,true,0,1);
    3fe2:	21 e0       	ldi	r18, 0x01	; 1
    3fe4:	40 e0       	ldi	r20, 0x00	; 0
    3fe6:	61 e0       	ldi	r22, 0x01	; 1
    3fe8:	ce 01       	movw	r24, r28
    3fea:	0e 94 37 15 	call	0x2a6e	; 0x2a6e <_Z17display_time_menuPVmbhh>
				if( get_key_short( 1<<KEY0 ))
    3fee:	80 e1       	ldi	r24, 0x10	; 16
    3ff0:	0e 94 b1 0b 	call	0x1762	; 0x1762 <_Z13get_key_shorth>
    3ff4:	88 23       	and	r24, r24
    3ff6:	09 f4       	brne	.+2      	; 0x3ffa <_Z12display_menuPhPcP13Speed_profileS_bPb+0x7ee>
    3ff8:	76 c0       	rjmp	.+236    	; 0x40e6 <_Z12display_menuPhPcP13Speed_profileS_bPb+0x8da>
				{
					lcd_gotoxy(11,7,port_expander_present);
    3ffa:	40 91 25 23 	lds	r20, 0x2325	; 0x802325 <port_expander_present>
    3ffe:	67 e0       	ldi	r22, 0x07	; 7
    4000:	8b e0       	ldi	r24, 0x0B	; 11
    4002:	0e 94 0f 06 	call	0xc1e	; 0xc1e <_Z10lcd_gotoxyhhb>
					display_time_menu(&p_profile_->time_slow,false,0,0);
    4006:	20 e0       	ldi	r18, 0x00	; 0
    4008:	40 e0       	ldi	r20, 0x00	; 0
    400a:	60 e0       	ldi	r22, 0x00	; 0
    400c:	ce 01       	movw	r24, r28
    400e:	0e 94 37 15 	call	0x2a6e	; 0x2a6e <_Z17display_time_menuPVmbhh>
					
					menu.sub_menu = 0x71;
    4012:	81 e7       	ldi	r24, 0x71	; 113
    4014:	80 93 a0 23 	sts	0x23A0, r24	; 0x8023a0 <menu>
    4018:	66 c0       	rjmp	.+204    	; 0x40e6 <_Z12display_menuPhPcP13Speed_profileS_bPb+0x8da>
			}
			break;
			case 0x71:
			{
				
				update_proile_time(&p_Profile_a->time_slow,encode_read2() * 60,max_profile_time);
    401a:	0e 94 b4 10 	call	0x2168	; 0x2168 <_Z12encode_read2v>
    401e:	9c e3       	ldi	r25, 0x3C	; 60
    4020:	89 02       	muls	r24, r25
    4022:	b0 01       	movw	r22, r0
    4024:	11 24       	eor	r1, r1
    4026:	80 91 0d 21 	lds	r24, 0x210D	; 0x80210d <p_Profile_a>
    402a:	90 91 0e 21 	lds	r25, 0x210E	; 0x80210e <p_Profile_a+0x1>
    402e:	20 e0       	ldi	r18, 0x00	; 0
    4030:	36 e4       	ldi	r19, 0x46	; 70
    4032:	45 e0       	ldi	r20, 0x05	; 5
    4034:	50 e0       	ldi	r21, 0x00	; 0
    4036:	43 96       	adiw	r24, 0x13	; 19
    4038:	0e 94 f2 13 	call	0x27e4	; 0x27e4 <_Z18update_proile_timePmim>
				//p_Profile_a->total_time += encode_read2() * 3600;p_Profile_a->time_slow += encode_read2() * 3600;
				lcd_gotoxy(11,7,port_expander_present);
    403c:	40 91 25 23 	lds	r20, 0x2325	; 0x802325 <port_expander_present>
    4040:	67 e0       	ldi	r22, 0x07	; 7
    4042:	8b e0       	ldi	r24, 0x0B	; 11
    4044:	0e 94 0f 06 	call	0xc1e	; 0xc1e <_Z10lcd_gotoxyhhb>
				display_time_menu(&p_profile_->time_slow,true,3,4);
    4048:	63 96       	adiw	r28, 0x13	; 19
    404a:	24 e0       	ldi	r18, 0x04	; 4
    404c:	43 e0       	ldi	r20, 0x03	; 3
    404e:	61 e0       	ldi	r22, 0x01	; 1
    4050:	ce 01       	movw	r24, r28
    4052:	0e 94 37 15 	call	0x2a6e	; 0x2a6e <_Z17display_time_menuPVmbhh>
				if( get_key_short( 1<<KEY0 ))
    4056:	80 e1       	ldi	r24, 0x10	; 16
    4058:	0e 94 b1 0b 	call	0x1762	; 0x1762 <_Z13get_key_shorth>
    405c:	88 23       	and	r24, r24
    405e:	09 f4       	brne	.+2      	; 0x4062 <_Z12display_menuPhPcP13Speed_profileS_bPb+0x856>
    4060:	42 c0       	rjmp	.+132    	; 0x40e6 <_Z12display_menuPhPcP13Speed_profileS_bPb+0x8da>
				{
					lcd_gotoxy(11,7,port_expander_present);
    4062:	40 91 25 23 	lds	r20, 0x2325	; 0x802325 <port_expander_present>
    4066:	67 e0       	ldi	r22, 0x07	; 7
    4068:	8b e0       	ldi	r24, 0x0B	; 11
    406a:	0e 94 0f 06 	call	0xc1e	; 0xc1e <_Z10lcd_gotoxyhhb>
					display_time_menu(&p_profile_->time_slow,false,0,0);
    406e:	20 e0       	ldi	r18, 0x00	; 0
    4070:	40 e0       	ldi	r20, 0x00	; 0
    4072:	60 e0       	ldi	r22, 0x00	; 0
    4074:	ce 01       	movw	r24, r28
    4076:	0e 94 37 15 	call	0x2a6e	; 0x2a6e <_Z17display_time_menuPVmbhh>
					
					menu.sub_menu = 0x72;
    407a:	82 e7       	ldi	r24, 0x72	; 114
    407c:	80 93 a0 23 	sts	0x23A0, r24	; 0x8023a0 <menu>
    4080:	32 c0       	rjmp	.+100    	; 0x40e6 <_Z12display_menuPhPcP13Speed_profileS_bPb+0x8da>
			}
			break;
			case 0x72:
			{
				
				update_proile_time(&p_profile_->time_slow,encode_read2(),max_profile_time);
    4082:	0e 94 b4 10 	call	0x2168	; 0x2168 <_Z12encode_read2v>
    4086:	63 96       	adiw	r28, 0x13	; 19
    4088:	68 2f       	mov	r22, r24
    408a:	88 0f       	add	r24, r24
    408c:	77 0b       	sbc	r23, r23
    408e:	20 e0       	ldi	r18, 0x00	; 0
    4090:	36 e4       	ldi	r19, 0x46	; 70
    4092:	45 e0       	ldi	r20, 0x05	; 5
    4094:	50 e0       	ldi	r21, 0x00	; 0
    4096:	ce 01       	movw	r24, r28
    4098:	0e 94 f2 13 	call	0x27e4	; 0x27e4 <_Z18update_proile_timePmim>
				//p_Profile_a->total_time += encode_read2() * 3600;p_Profile_a->time_slow += encode_read2() * 3600;
				lcd_gotoxy(11,7,port_expander_present);
    409c:	40 91 25 23 	lds	r20, 0x2325	; 0x802325 <port_expander_present>
    40a0:	67 e0       	ldi	r22, 0x07	; 7
    40a2:	8b e0       	ldi	r24, 0x0B	; 11
    40a4:	0e 94 0f 06 	call	0xc1e	; 0xc1e <_Z10lcd_gotoxyhhb>
				display_time_menu(&p_profile_->time_slow,true,6,7);
    40a8:	27 e0       	ldi	r18, 0x07	; 7
    40aa:	46 e0       	ldi	r20, 0x06	; 6
    40ac:	61 e0       	ldi	r22, 0x01	; 1
    40ae:	ce 01       	movw	r24, r28
    40b0:	0e 94 37 15 	call	0x2a6e	; 0x2a6e <_Z17display_time_menuPVmbhh>
				if( get_key_short( 1<<KEY0 ))
    40b4:	80 e1       	ldi	r24, 0x10	; 16
    40b6:	0e 94 b1 0b 	call	0x1762	; 0x1762 <_Z13get_key_shorth>
    40ba:	88 23       	and	r24, r24
    40bc:	a1 f0       	breq	.+40     	; 0x40e6 <_Z12display_menuPhPcP13Speed_profileS_bPb+0x8da>
				{
					lcd_gotoxy(11,7,port_expander_present);
    40be:	40 91 25 23 	lds	r20, 0x2325	; 0x802325 <port_expander_present>
    40c2:	67 e0       	ldi	r22, 0x07	; 7
    40c4:	8b e0       	ldi	r24, 0x0B	; 11
    40c6:	0e 94 0f 06 	call	0xc1e	; 0xc1e <_Z10lcd_gotoxyhhb>
					display_time_menu(&p_profile_->time_slow,false,0,0);
    40ca:	20 e0       	ldi	r18, 0x00	; 0
    40cc:	40 e0       	ldi	r20, 0x00	; 0
    40ce:	60 e0       	ldi	r22, 0x00	; 0
    40d0:	ce 01       	movw	r24, r28
    40d2:	0e 94 37 15 	call	0x2a6e	; 0x2a6e <_Z17display_time_menuPVmbhh>
					*position_ = 7;
    40d6:	87 e0       	ldi	r24, 0x07	; 7
    40d8:	f5 01       	movw	r30, r10
    40da:	80 83       	st	Z, r24
					*old_position_ = 2;
    40dc:	82 e0       	ldi	r24, 0x02	; 2
    40de:	f4 01       	movw	r30, r8
    40e0:	80 83       	st	Z, r24
					menu.sub_menu = 0x00;
    40e2:	10 92 a0 23 	sts	0x23A0, r1	; 0x8023a0 <menu>
			break;
			default:
			break;
		}
	}
}
    40e6:	df 91       	pop	r29
    40e8:	cf 91       	pop	r28
    40ea:	0f 91       	pop	r16
    40ec:	ff 90       	pop	r15
    40ee:	ef 90       	pop	r14
    40f0:	df 90       	pop	r13
    40f2:	cf 90       	pop	r12
    40f4:	bf 90       	pop	r11
    40f6:	af 90       	pop	r10
    40f8:	9f 90       	pop	r9
    40fa:	8f 90       	pop	r8
    40fc:	7f 90       	pop	r7
    40fe:	6f 90       	pop	r6
    4100:	5f 90       	pop	r5
    4102:	4f 90       	pop	r4
    4104:	08 95       	ret

00004106 <main>:
	//write_profile(p_Profile_b,ID_mod+4,TWI_FRAM_present);
	
}

int main(void)
{  
    4106:	cf 93       	push	r28
    4108:	df 93       	push	r29
    410a:	cd b7       	in	r28, 0x3d	; 61
    410c:	de b7       	in	r29, 0x3e	; 62
    410e:	c0 55       	subi	r28, 0x50	; 80
    4110:	d1 09       	sbc	r29, r1
    4112:	cd bf       	out	0x3d, r28	; 61
    4114:	de bf       	out	0x3e, r29	; 62
	uint16_t Ram = 0;
	uint16_t test = 0;
	uint8_t position = 0;
    4116:	19 82       	std	Y+1, r1	; 0x01
	bool update_display = true;
	bool high_speed_a = true;
	bool high_speed_b = false;
	type_of_encoder = eeprom_read_byte(&type_of_encoder_EE);
    4118:	80 e0       	ldi	r24, 0x00	; 0
    411a:	90 e0       	ldi	r25, 0x00	; 0
    411c:	0e 94 e1 3b 	call	0x77c2	; 0x77c2 <eeprom_read_byte>
    4120:	80 93 06 21 	sts	0x2106, r24	; 0x802106 <type_of_encoder>
	bool change_speed_b = false;
	uint8_t position_main = 0;
	uint8_t counter = 0;
	uint32_t avg_voltage_a = 0;
	uint32_t avg_voltage_b = 0;
	RTC_Init();
    4124:	0e 94 fc 0f 	call	0x1ff8	; 0x1ff8 <_Z8RTC_Initv>
	usb_init();
    4128:	0e 94 21 35 	call	0x6a42	; 0x6a42 <usb_init>
	Config32MHzClock();
    412c:	0e 94 1e 10 	call	0x203c	; 0x203c <_Z16Config32MHzClockv>
	//Clock_Init();
	Timer_init();
    4130:	0e 94 5a 10 	call	0x20b4	; 0x20b4 <_Z10Timer_initv>
	
	//ADCA_Cal();
	ADCA_init();
    4134:	0e 94 2f 16 	call	0x2c5e	; 0x2c5e <_Z9ADCA_initv>
	
	twi_init(&TWIE);
    4138:	80 ea       	ldi	r24, 0xA0	; 160
    413a:	94 e0       	ldi	r25, 0x04	; 4
    413c:	0e 94 be 0b 	call	0x177c	; 0x177c <_Z8twi_initP10TWI_struct>
	
	encode_init();
    4140:	0e 94 a2 10 	call	0x2144	; 0x2144 <_Z11encode_initv>
	// Variablen initieren
	cdc_rxb.flag=1;   // Anfangszustände für Schreib-/Lesepuffer
    4144:	91 e0       	ldi	r25, 0x01	; 1
    4146:	90 93 66 25 	sts	0x2566, r25	; 0x802566 <cdc_rxb+0x42>
	cdc_rxb.len=0;
    414a:	10 92 65 25 	sts	0x2565, r1	; 0x802565 <cdc_rxb+0x41>
	cdc_rxb.bytes=0;
    414e:	10 92 64 25 	sts	0x2564, r1	; 0x802564 <cdc_rxb+0x40>

	cdc_txb.flag=0;
    4152:	10 92 29 26 	sts	0x2629, r1	; 0x802629 <cdc_txb+0x42>
	cdc_txb.len=0;
    4156:	10 92 28 26 	sts	0x2628, r1	; 0x802628 <cdc_txb+0x41>
	cdc_txb.bytes=0;
    415a:	10 92 27 26 	sts	0x2627, r1	; 0x802627 <cdc_txb+0x40>
	
	
	PORTC.PIN2CTRL = PORT_OPC_WIREDANDPULL_gc;
    415e:	e0 e4       	ldi	r30, 0x40	; 64
    4160:	f6 e0       	ldi	r31, 0x06	; 6
    4162:	88 e3       	ldi	r24, 0x38	; 56
    4164:	82 8b       	std	Z+18, r24	; 0x12
	
	PORTD.DIRSET = PIN0_bm | PIN1_bm;
    4166:	a0 e6       	ldi	r26, 0x60	; 96
    4168:	b6 e0       	ldi	r27, 0x06	; 6
    416a:	83 e0       	ldi	r24, 0x03	; 3
    416c:	11 96       	adiw	r26, 0x01	; 1
    416e:	8c 93       	st	X, r24
    4170:	11 97       	sbiw	r26, 0x01	; 1
	PORTC.DIRSET = PIN1_bm | PIN0_bm |PIN2_bm;
    4172:	87 e0       	ldi	r24, 0x07	; 7
    4174:	81 83       	std	Z+1, r24	; 0x01
	PORTA.DIRSET = PIN5_bm	| PIN6_bm | PIN7_bm;
    4176:	20 e0       	ldi	r18, 0x00	; 0
    4178:	36 e0       	ldi	r19, 0x06	; 6
    417a:	80 ee       	ldi	r24, 0xE0	; 224
    417c:	f9 01       	movw	r30, r18
    417e:	81 83       	std	Z+1, r24	; 0x01
	PORTB.DIRSET = PIN0_bm;
    4180:	e0 e2       	ldi	r30, 0x20	; 32
    4182:	f6 e0       	ldi	r31, 0x06	; 6
    4184:	91 83       	std	Z+1, r25	; 0x01
	PORTB.PIN1CTRL = PORT_OPC_PULLUP_gc;
    4186:	88 e1       	ldi	r24, 0x18	; 24
    4188:	81 8b       	std	Z+17, r24	; 0x11
	PORTB.PIN2CTRL = PORT_OPC_PULLUP_gc;
    418a:	82 8b       	std	Z+18, r24	; 0x12
	PORTD.PIN2CTRL = PORT_OPC_PULLUP_gc;
    418c:	52 96       	adiw	r26, 0x12	; 18
    418e:	8c 93       	st	X, r24
    4190:	52 97       	sbiw	r26, 0x12	; 18
	PORTD.PIN3CTRL = PORT_OPC_PULLUP_gc;
    4192:	53 96       	adiw	r26, 0x13	; 19
    4194:	8c 93       	st	X, r24
	PMIC.CTRL |= PMIC_HILVLEN_bm | PMIC_MEDLVLEN_bm | PMIC_LOLVLEN_bm;
    4196:	a0 ea       	ldi	r26, 0xA0	; 160
    4198:	b0 e0       	ldi	r27, 0x00	; 0
    419a:	12 96       	adiw	r26, 0x02	; 2
    419c:	8c 91       	ld	r24, X
    419e:	12 97       	sbiw	r26, 0x02	; 2
    41a0:	87 60       	ori	r24, 0x07	; 7
    41a2:	12 96       	adiw	r26, 0x02	; 2
    41a4:	8c 93       	st	X, r24
	PORTA.OUTSET = PIN6_bm;
    41a6:	80 e4       	ldi	r24, 0x40	; 64
    41a8:	d9 01       	movw	r26, r18
    41aa:	15 96       	adiw	r26, 0x05	; 5
    41ac:	8c 93       	st	X, r24
	PORTB.OUTSET = PIN0_bm;
    41ae:	95 83       	std	Z+5, r25	; 0x05
	sei();
    41b0:	78 94       	sei
	TCC0.CCA = 0xA5;
    41b2:	e0 e0       	ldi	r30, 0x00	; 0
    41b4:	f8 e0       	ldi	r31, 0x08	; 8
    41b6:	85 ea       	ldi	r24, 0xA5	; 165
    41b8:	90 e0       	ldi	r25, 0x00	; 0
    41ba:	80 a7       	std	Z+40, r24	; 0x28
    41bc:	91 a7       	std	Z+41, r25	; 0x29
	TCC0.CCB = 0xA5;
    41be:	82 a7       	std	Z+42, r24	; 0x2a
    41c0:	93 a7       	std	Z+43, r25	; 0x2b
	TCD0.CCA = 0x0;
    41c2:	e0 e0       	ldi	r30, 0x00	; 0
    41c4:	f9 e0       	ldi	r31, 0x09	; 9
    41c6:	10 a6       	std	Z+40, r1	; 0x28
    41c8:	11 a6       	std	Z+41, r1	; 0x29
	TCD0.CCB = 0x0;
    41ca:	12 a6       	std	Z+42, r1	; 0x2a
    41cc:	13 a6       	std	Z+43, r1	; 0x2b
	//PORTC.OUTCLR = PIN2_bm;
	//_delay_ms(1);
	//PORTC.OUTSET = PIN2_bm;
	//_delay_ms(1);
	SPIC_Init();
    41ce:	0e 94 4c 33 	call	0x6698	; 0x6698 <_Z9SPIC_Initv>
	TWI_FRAM_present =  twi_presense_check(&TWIE,FRAM_I2C_ADDR);
    41d2:	60 ea       	ldi	r22, 0xA0	; 160
    41d4:	80 ea       	ldi	r24, 0xA0	; 160
    41d6:	94 e0       	ldi	r25, 0x04	; 4
    41d8:	0e 94 73 34 	call	0x68e6	; 0x68e6 <_Z18twi_presense_checkP10TWI_structh>
    41dc:	80 93 24 23 	sts	0x2324, r24	; 0x802324 <TWI_FRAM_present>
	port_expander_present = twi_presense_check(&TWIE,PCA_I2C_ADDR);
    41e0:	62 e8       	ldi	r22, 0x82	; 130
    41e2:	80 ea       	ldi	r24, 0xA0	; 160
    41e4:	94 e0       	ldi	r25, 0x04	; 4
    41e6:	0e 94 73 34 	call	0x68e6	; 0x68e6 <_Z18twi_presense_checkP10TWI_structh>
    41ea:	80 93 25 23 	sts	0x2325, r24	; 0x802325 <port_expander_present>
	read_profile(p_Profile_a,0,TWI_FRAM_present,offset_profile_a);
    41ee:	28 e2       	ldi	r18, 0x28	; 40
    41f0:	30 e0       	ldi	r19, 0x00	; 0
    41f2:	40 91 24 23 	lds	r20, 0x2324	; 0x802324 <TWI_FRAM_present>
    41f6:	60 e0       	ldi	r22, 0x00	; 0
    41f8:	80 91 0d 21 	lds	r24, 0x210D	; 0x80210d <p_Profile_a>
    41fc:	90 91 0e 21 	lds	r25, 0x210E	; 0x80210e <p_Profile_a+0x1>
    4200:	0e 94 b5 04 	call	0x96a	; 0x96a <_Z12read_profileP13Speed_profilehbj>
	read_profile(p_Profile_b,0,TWI_FRAM_present,offset_profile_b);
    4204:	27 e4       	ldi	r18, 0x47	; 71
    4206:	30 e0       	ldi	r19, 0x00	; 0
    4208:	40 91 24 23 	lds	r20, 0x2324	; 0x802324 <TWI_FRAM_present>
    420c:	60 e0       	ldi	r22, 0x00	; 0
    420e:	80 91 0b 21 	lds	r24, 0x210B	; 0x80210b <p_Profile_b>
    4212:	90 91 0c 21 	lds	r25, 0x210C	; 0x80210c <p_Profile_b+0x1>
    4216:	0e 94 b5 04 	call	0x96a	; 0x96a <_Z12read_profileP13Speed_profilehbj>
	read_param_profile(p_parameter_a,0,TWI_FRAM_present,offset_settings_regulator);
    421a:	20 e0       	ldi	r18, 0x00	; 0
    421c:	30 e0       	ldi	r19, 0x00	; 0
    421e:	40 91 24 23 	lds	r20, 0x2324	; 0x802324 <TWI_FRAM_present>
    4222:	60 e0       	ldi	r22, 0x00	; 0
    4224:	80 91 09 21 	lds	r24, 0x2109	; 0x802109 <p_parameter_a>
    4228:	90 91 0a 21 	lds	r25, 0x210A	; 0x80210a <p_parameter_a+0x1>
    422c:	0e 94 df 04 	call	0x9be	; 0x9be <_Z18read_param_profileP20regulator_parametershbj>
	read_param_profile(p_parameter_b,1,TWI_FRAM_present,offset_settings_regulator);
    4230:	20 e0       	ldi	r18, 0x00	; 0
    4232:	30 e0       	ldi	r19, 0x00	; 0
    4234:	40 91 24 23 	lds	r20, 0x2324	; 0x802324 <TWI_FRAM_present>
    4238:	61 e0       	ldi	r22, 0x01	; 1
    423a:	80 91 07 21 	lds	r24, 0x2107	; 0x802107 <p_parameter_b>
    423e:	90 91 08 21 	lds	r25, 0x2108	; 0x802108 <p_parameter_b+0x1>
    4242:	0e 94 df 04 	call	0x9be	; 0x9be <_Z18read_param_profileP20regulator_parametershbj>
	if(calculate_crc32_checksum((unsigned char *)p_Profile_a,sizeof(Speed_profile_t)-4) != p_Profile_a->CRC_value)
    4246:	6b e1       	ldi	r22, 0x1B	; 27
    4248:	80 91 0d 21 	lds	r24, 0x210D	; 0x80210d <p_Profile_a>
    424c:	90 91 0e 21 	lds	r25, 0x210E	; 0x80210e <p_Profile_a+0x1>
    4250:	0e 94 f8 03 	call	0x7f0	; 0x7f0 <_Z24calculate_crc32_checksumPhh>
    4254:	e0 91 0d 21 	lds	r30, 0x210D	; 0x80210d <p_Profile_a>
    4258:	f0 91 0e 21 	lds	r31, 0x210E	; 0x80210e <p_Profile_a+0x1>
    425c:	03 8d       	ldd	r16, Z+27	; 0x1b
    425e:	14 8d       	ldd	r17, Z+28	; 0x1c
    4260:	25 8d       	ldd	r18, Z+29	; 0x1d
    4262:	36 8d       	ldd	r19, Z+30	; 0x1e
    4264:	60 17       	cp	r22, r16
    4266:	71 07       	cpc	r23, r17
    4268:	82 07       	cpc	r24, r18
    426a:	93 07       	cpc	r25, r19
    426c:	11 f0       	breq	.+4      	; 0x4272 <main+0x16c>
		init_profile_a();
    426e:	0e 94 80 16 	call	0x2d00	; 0x2d00 <_Z14init_profile_av>
	//if(p_Profile_a->speed_fast < 100)
		
	if(calculate_crc32_checksum((unsigned char *)p_Profile_b,sizeof(Speed_profile_t)-4) != p_Profile_b->CRC_value)
    4272:	6b e1       	ldi	r22, 0x1B	; 27
    4274:	80 91 0b 21 	lds	r24, 0x210B	; 0x80210b <p_Profile_b>
    4278:	90 91 0c 21 	lds	r25, 0x210C	; 0x80210c <p_Profile_b+0x1>
    427c:	0e 94 f8 03 	call	0x7f0	; 0x7f0 <_Z24calculate_crc32_checksumPhh>
    4280:	e0 91 0b 21 	lds	r30, 0x210B	; 0x80210b <p_Profile_b>
    4284:	f0 91 0c 21 	lds	r31, 0x210C	; 0x80210c <p_Profile_b+0x1>
    4288:	03 8d       	ldd	r16, Z+27	; 0x1b
    428a:	14 8d       	ldd	r17, Z+28	; 0x1c
    428c:	25 8d       	ldd	r18, Z+29	; 0x1d
    428e:	36 8d       	ldd	r19, Z+30	; 0x1e
    4290:	60 17       	cp	r22, r16
    4292:	71 07       	cpc	r23, r17
    4294:	82 07       	cpc	r24, r18
    4296:	93 07       	cpc	r25, r19
    4298:	11 f0       	breq	.+4      	; 0x429e <main+0x198>
		init_profile_b();
    429a:	0e 94 cf 16 	call	0x2d9e	; 0x2d9e <_Z14init_profile_bv>
	if(calculate_crc32_checksum((unsigned char *)p_parameter_a,sizeof(regulator_parameters_t)-4) != p_parameter_a->CRC_value)
    429e:	60 e1       	ldi	r22, 0x10	; 16
    42a0:	80 91 09 21 	lds	r24, 0x2109	; 0x802109 <p_parameter_a>
    42a4:	90 91 0a 21 	lds	r25, 0x210A	; 0x80210a <p_parameter_a+0x1>
    42a8:	0e 94 f8 03 	call	0x7f0	; 0x7f0 <_Z24calculate_crc32_checksumPhh>
    42ac:	e0 91 09 21 	lds	r30, 0x2109	; 0x802109 <p_parameter_a>
    42b0:	f0 91 0a 21 	lds	r31, 0x210A	; 0x80210a <p_parameter_a+0x1>
    42b4:	00 89       	ldd	r16, Z+16	; 0x10
    42b6:	11 89       	ldd	r17, Z+17	; 0x11
    42b8:	22 89       	ldd	r18, Z+18	; 0x12
    42ba:	33 89       	ldd	r19, Z+19	; 0x13
    42bc:	60 17       	cp	r22, r16
    42be:	71 07       	cpc	r23, r17
    42c0:	82 07       	cpc	r24, r18
    42c2:	93 07       	cpc	r25, r19
    42c4:	31 f0       	breq	.+12     	; 0x42d2 <main+0x1cc>
		init_parameter(p_parameter_a,0,TWI_FRAM_present);
    42c6:	40 91 24 23 	lds	r20, 0x2324	; 0x802324 <TWI_FRAM_present>
    42ca:	60 e0       	ldi	r22, 0x00	; 0
    42cc:	cf 01       	movw	r24, r30
    42ce:	0e 94 1e 17 	call	0x2e3c	; 0x2e3c <_Z14init_parameterP20regulator_parametershb>
	if(calculate_crc32_checksum((unsigned char *)p_parameter_b,sizeof(regulator_parameters_t)-4) != p_parameter_b->CRC_value)
    42d2:	60 e1       	ldi	r22, 0x10	; 16
    42d4:	80 91 07 21 	lds	r24, 0x2107	; 0x802107 <p_parameter_b>
    42d8:	90 91 08 21 	lds	r25, 0x2108	; 0x802108 <p_parameter_b+0x1>
    42dc:	0e 94 f8 03 	call	0x7f0	; 0x7f0 <_Z24calculate_crc32_checksumPhh>
    42e0:	e0 91 07 21 	lds	r30, 0x2107	; 0x802107 <p_parameter_b>
    42e4:	f0 91 08 21 	lds	r31, 0x2108	; 0x802108 <p_parameter_b+0x1>
    42e8:	00 89       	ldd	r16, Z+16	; 0x10
    42ea:	11 89       	ldd	r17, Z+17	; 0x11
    42ec:	22 89       	ldd	r18, Z+18	; 0x12
    42ee:	33 89       	ldd	r19, Z+19	; 0x13
    42f0:	60 17       	cp	r22, r16
    42f2:	71 07       	cpc	r23, r17
    42f4:	82 07       	cpc	r24, r18
    42f6:	93 07       	cpc	r25, r19
    42f8:	31 f0       	breq	.+12     	; 0x4306 <main+0x200>
		init_parameter(p_parameter_b,1,TWI_FRAM_present);
    42fa:	40 91 24 23 	lds	r20, 0x2324	; 0x802324 <TWI_FRAM_present>
    42fe:	61 e0       	ldi	r22, 0x01	; 1
    4300:	cf 01       	movw	r24, r30
    4302:	0e 94 1e 17 	call	0x2e3c	; 0x2e3c <_Z14init_parameterP20regulator_parametershb>
	
	Sollwert_RPM_a = p_Profile_a->speed_fast;
    4306:	20 91 0d 21 	lds	r18, 0x210D	; 0x80210d <p_Profile_a>
    430a:	30 91 0e 21 	lds	r19, 0x210E	; 0x80210e <p_Profile_a+0x1>
    430e:	f9 01       	movw	r30, r18
    4310:	81 85       	ldd	r24, Z+9	; 0x09
    4312:	92 85       	ldd	r25, Z+10	; 0x0a
    4314:	80 93 21 21 	sts	0x2121, r24	; 0x802121 <Sollwert_RPM_a>
    4318:	90 93 22 21 	sts	0x2122, r25	; 0x802122 <Sollwert_RPM_a+0x1>
	Sollwert_RPM_b = p_Profile_b->speed_fast;
    431c:	e0 91 0b 21 	lds	r30, 0x210B	; 0x80210b <p_Profile_b>
    4320:	f0 91 0c 21 	lds	r31, 0x210C	; 0x80210c <p_Profile_b+0x1>
    4324:	81 85       	ldd	r24, Z+9	; 0x09
    4326:	92 85       	ldd	r25, Z+10	; 0x0a
    4328:	80 93 1f 21 	sts	0x211F, r24	; 0x80211f <Sollwert_RPM_b>
    432c:	90 93 20 21 	sts	0x2120, r25	; 0x802120 <Sollwert_RPM_b+0x1>
	uint32_t next_change_a = Unixtimestamp + p_Profile_a->time_fast_init;
    4330:	c0 90 1e 24 	lds	r12, 0x241E	; 0x80241e <Unixtimestamp>
    4334:	d0 90 1f 24 	lds	r13, 0x241F	; 0x80241f <Unixtimestamp+0x1>
    4338:	e0 90 20 24 	lds	r14, 0x2420	; 0x802420 <Unixtimestamp+0x2>
    433c:	f0 90 21 24 	lds	r15, 0x2421	; 0x802421 <Unixtimestamp+0x3>
    4340:	d9 01       	movw	r26, r18
    4342:	1b 96       	adiw	r26, 0x0b	; 11
    4344:	4d 91       	ld	r20, X+
    4346:	5d 91       	ld	r21, X+
    4348:	6d 91       	ld	r22, X+
    434a:	7c 91       	ld	r23, X
    434c:	1e 97       	sbiw	r26, 0x0e	; 14
    434e:	d7 01       	movw	r26, r14
    4350:	c6 01       	movw	r24, r12
    4352:	84 0f       	add	r24, r20
    4354:	95 1f       	adc	r25, r21
    4356:	a6 1f       	adc	r26, r22
    4358:	b7 1f       	adc	r27, r23
    435a:	8a 83       	std	Y+2, r24	; 0x02
    435c:	9b 83       	std	Y+3, r25	; 0x03
    435e:	ac 83       	std	Y+4, r26	; 0x04
    4360:	bd 83       	std	Y+5, r27	; 0x05
	uint32_t end_time_a = Unixtimestamp + p_Profile_a->total_time;
    4362:	c0 90 1e 24 	lds	r12, 0x241E	; 0x80241e <Unixtimestamp>
    4366:	d0 90 1f 24 	lds	r13, 0x241F	; 0x80241f <Unixtimestamp+0x1>
    436a:	e0 90 20 24 	lds	r14, 0x2420	; 0x802420 <Unixtimestamp+0x2>
    436e:	f0 90 21 24 	lds	r15, 0x2421	; 0x802421 <Unixtimestamp+0x3>
    4372:	d9 01       	movw	r26, r18
    4374:	1f 96       	adiw	r26, 0x0f	; 15
    4376:	4d 91       	ld	r20, X+
    4378:	5d 91       	ld	r21, X+
    437a:	6d 91       	ld	r22, X+
    437c:	7c 91       	ld	r23, X
    437e:	52 97       	sbiw	r26, 0x12	; 18
    4380:	d7 01       	movw	r26, r14
    4382:	c6 01       	movw	r24, r12
    4384:	84 0f       	add	r24, r20
    4386:	95 1f       	adc	r25, r21
    4388:	a6 1f       	adc	r26, r22
    438a:	b7 1f       	adc	r27, r23
    438c:	8e 83       	std	Y+6, r24	; 0x06
    438e:	9f 83       	std	Y+7, r25	; 0x07
    4390:	a8 87       	std	Y+8, r26	; 0x08
    4392:	b9 87       	std	Y+9, r27	; 0x09
	uint32_t next_change_b = Unixtimestamp + p_Profile_b->time_fast_init;
    4394:	80 91 1e 24 	lds	r24, 0x241E	; 0x80241e <Unixtimestamp>
    4398:	90 91 1f 24 	lds	r25, 0x241F	; 0x80241f <Unixtimestamp+0x1>
    439c:	a0 91 20 24 	lds	r26, 0x2420	; 0x802420 <Unixtimestamp+0x2>
    43a0:	b0 91 21 24 	lds	r27, 0x2421	; 0x802421 <Unixtimestamp+0x3>
    43a4:	43 85       	ldd	r20, Z+11	; 0x0b
    43a6:	54 85       	ldd	r21, Z+12	; 0x0c
    43a8:	65 85       	ldd	r22, Z+13	; 0x0d
    43aa:	76 85       	ldd	r23, Z+14	; 0x0e
    43ac:	84 0f       	add	r24, r20
    43ae:	95 1f       	adc	r25, r21
    43b0:	a6 1f       	adc	r26, r22
    43b2:	b7 1f       	adc	r27, r23
    43b4:	8a 87       	std	Y+10, r24	; 0x0a
    43b6:	9b 87       	std	Y+11, r25	; 0x0b
    43b8:	ac 87       	std	Y+12, r26	; 0x0c
    43ba:	bd 87       	std	Y+13, r27	; 0x0d
	uint32_t end_time_b = Unixtimestamp + p_Profile_b->total_time;
    43bc:	80 91 1e 24 	lds	r24, 0x241E	; 0x80241e <Unixtimestamp>
    43c0:	90 91 1f 24 	lds	r25, 0x241F	; 0x80241f <Unixtimestamp+0x1>
    43c4:	a0 91 20 24 	lds	r26, 0x2420	; 0x802420 <Unixtimestamp+0x2>
    43c8:	b0 91 21 24 	lds	r27, 0x2421	; 0x802421 <Unixtimestamp+0x3>
    43cc:	47 85       	ldd	r20, Z+15	; 0x0f
    43ce:	50 89       	ldd	r21, Z+16	; 0x10
    43d0:	61 89       	ldd	r22, Z+17	; 0x11
    43d2:	72 89       	ldd	r23, Z+18	; 0x12
    43d4:	84 0f       	add	r24, r20
    43d6:	95 1f       	adc	r25, r21
    43d8:	a6 1f       	adc	r26, r22
    43da:	b7 1f       	adc	r27, r23
    43dc:	8e 87       	std	Y+14, r24	; 0x0e
    43de:	9f 87       	std	Y+15, r25	; 0x0f
    43e0:	a8 8b       	std	Y+16, r26	; 0x10
    43e2:	b9 8b       	std	Y+17, r27	; 0x11
	if(port_expander_present)
    43e4:	80 91 25 23 	lds	r24, 0x2325	; 0x802325 <port_expander_present>
    43e8:	88 23       	and	r24, r24
    43ea:	41 f0       	breq	.+16     	; 0x43fc <main+0x2f6>
	{
		PCA_config();
    43ec:	0e 94 93 05 	call	0xb26	; 0xb26 <_Z10PCA_configv>
		lcd_reset();
    43f0:	0e 94 b7 05 	call	0xb6e	; 0xb6e <_Z9lcd_resetv>
		lcd_init(0);
    43f4:	80 e0       	ldi	r24, 0x00	; 0
    43f6:	0e 94 2f 07 	call	0xe5e	; 0xe5e <_Z8lcd_inith>
    43fa:	12 c0       	rjmp	.+36     	; 0x4420 <main+0x31a>
    43fc:	bf ef       	ldi	r27, 0xFF	; 255
    43fe:	e3 ec       	ldi	r30, 0xC3	; 195
    4400:	f9 e0       	ldi	r31, 0x09	; 9
    4402:	b1 50       	subi	r27, 0x01	; 1
    4404:	e0 40       	sbci	r30, 0x00	; 0
    4406:	f0 40       	sbci	r31, 0x00	; 0
    4408:	e1 f7       	brne	.-8      	; 0x4402 <main+0x2fc>
    440a:	00 c0       	rjmp	.+0      	; 0x440c <main+0x306>
    440c:	00 00       	nop
	}
	else
	{
		_delay_ms(100);
		lcd_init_SH1106(0);
    440e:	80 e0       	ldi	r24, 0x00	; 0
    4410:	0e 94 dd 06 	call	0xdba	; 0xdba <_Z15lcd_init_SH1106h>
		lcd_gotoxy(1,1,port_expander_present);
    4414:	40 91 25 23 	lds	r20, 0x2325	; 0x802325 <port_expander_present>
    4418:	61 e0       	ldi	r22, 0x01	; 1
    441a:	81 e0       	ldi	r24, 0x01	; 1
    441c:	0e 94 0f 06 	call	0xc1e	; 0xc1e <_Z10lcd_gotoxyhhb>
		
	}
	
	lcd_gotoxy(left,0,port_expander_present);
    4420:	40 91 25 23 	lds	r20, 0x2325	; 0x802325 <port_expander_present>
    4424:	60 e0       	ldi	r22, 0x00	; 0
    4426:	81 e0       	ldi	r24, 0x01	; 1
    4428:	0e 94 0f 06 	call	0xc1e	; 0xc1e <_Z10lcd_gotoxyhhb>
	char Str1[7];
	if(PORTB.IN & PIN2_bm)
    442c:	80 91 28 06 	lds	r24, 0x0628	; 0x800628 <__TEXT_REGION_LENGTH__+0x700628>
    4430:	82 ff       	sbrs	r24, 2
    4432:	0a c0       	rjmp	.+20     	; 0x4448 <main+0x342>
		strcpy(Str1,"120 mm") ;
    4434:	87 e0       	ldi	r24, 0x07	; 7
    4436:	e6 e0       	ldi	r30, 0x06	; 6
    4438:	f3 e2       	ldi	r31, 0x23	; 35
    443a:	de 01       	movw	r26, r28
    443c:	52 96       	adiw	r26, 0x12	; 18
    443e:	01 90       	ld	r0, Z+
    4440:	0d 92       	st	X+, r0
    4442:	8a 95       	dec	r24
    4444:	e1 f7       	brne	.-8      	; 0x443e <main+0x338>
    4446:	09 c0       	rjmp	.+18     	; 0x445a <main+0x354>
	else
		strcpy(Str1,"140 mm") ;
    4448:	87 e0       	ldi	r24, 0x07	; 7
    444a:	ed e0       	ldi	r30, 0x0D	; 13
    444c:	f3 e2       	ldi	r31, 0x23	; 35
    444e:	de 01       	movw	r26, r28
    4450:	52 96       	adiw	r26, 0x12	; 18
    4452:	01 90       	ld	r0, Z+
    4454:	0d 92       	st	X+, r0
    4456:	8a 95       	dec	r24
    4458:	e1 f7       	brne	.-8      	; 0x4452 <main+0x34c>
	lcd_puts(Str1);
    445a:	ce 01       	movw	r24, r28
    445c:	42 96       	adiw	r24, 0x12	; 18
    445e:	0e 94 9d 0a 	call	0x153a	; 0x153a <_Z8lcd_putsPKc>
	lcd_gotoxy(right,0,port_expander_present);
    4462:	40 91 25 23 	lds	r20, 0x2325	; 0x802325 <port_expander_present>
    4466:	60 e0       	ldi	r22, 0x00	; 0
    4468:	8c e0       	ldi	r24, 0x0C	; 12
    446a:	0e 94 0f 06 	call	0xc1e	; 0xc1e <_Z10lcd_gotoxyhhb>
	if(PORTB.IN & PIN1_bm)
    446e:	80 91 28 06 	lds	r24, 0x0628	; 0x800628 <__TEXT_REGION_LENGTH__+0x700628>
    4472:	81 ff       	sbrs	r24, 1
    4474:	0a c0       	rjmp	.+20     	; 0x448a <main+0x384>
	strcpy(Str1,"120 mm") ;
    4476:	87 e0       	ldi	r24, 0x07	; 7
    4478:	e6 e0       	ldi	r30, 0x06	; 6
    447a:	f3 e2       	ldi	r31, 0x23	; 35
    447c:	de 01       	movw	r26, r28
    447e:	52 96       	adiw	r26, 0x12	; 18
    4480:	01 90       	ld	r0, Z+
    4482:	0d 92       	st	X+, r0
    4484:	8a 95       	dec	r24
    4486:	e1 f7       	brne	.-8      	; 0x4480 <main+0x37a>
    4488:	09 c0       	rjmp	.+18     	; 0x449c <main+0x396>
	else
	strcpy(Str1,"140 mm") ;
    448a:	87 e0       	ldi	r24, 0x07	; 7
    448c:	ed e0       	ldi	r30, 0x0D	; 13
    448e:	f3 e2       	ldi	r31, 0x23	; 35
    4490:	de 01       	movw	r26, r28
    4492:	52 96       	adiw	r26, 0x12	; 18
    4494:	01 90       	ld	r0, Z+
    4496:	0d 92       	st	X+, r0
    4498:	8a 95       	dec	r24
    449a:	e1 f7       	brne	.-8      	; 0x4494 <main+0x38e>
	lcd_puts(Str1);
    449c:	ce 01       	movw	r24, r28
    449e:	42 96       	adiw	r24, 0x12	; 18
    44a0:	0e 94 9d 0a 	call	0x153a	; 0x153a <_Z8lcd_putsPKc>
	char text_buffer[16];
	char int_buffer[10];
    bool size_a = false;
	bool size_b = false;
    44a4:	28 96       	adiw	r28, 0x08	; 8
    44a6:	1f ae       	std	Y+63, r1	; 0x3f
    44a8:	28 97       	sbiw	r28, 0x08	; 8
	else
	strcpy(Str1,"140 mm") ;
	lcd_puts(Str1);
	char text_buffer[16];
	char int_buffer[10];
    bool size_a = false;
    44aa:	27 96       	adiw	r28, 0x07	; 7
    44ac:	1f ae       	std	Y+63, r1	; 0x3f
    44ae:	27 97       	sbiw	r28, 0x07	; 7
	bool change_speed_a = false;
	bool change_speed_b = false;
	uint8_t position_main = 0;
	uint8_t counter = 0;
	uint32_t avg_voltage_a = 0;
	uint32_t avg_voltage_b = 0;
    44b0:	41 2c       	mov	r4, r1
    44b2:	51 2c       	mov	r5, r1
    44b4:	32 01       	movw	r6, r4
	bool change_b = false;
	bool change_speed_a = false;
	bool change_speed_b = false;
	uint8_t position_main = 0;
	uint8_t counter = 0;
	uint32_t avg_voltage_a = 0;
    44b6:	24 96       	adiw	r28, 0x04	; 4
    44b8:	1c ae       	std	Y+60, r1	; 0x3c
    44ba:	1d ae       	std	Y+61, r1	; 0x3d
    44bc:	1e ae       	std	Y+62, r1	; 0x3e
    44be:	1f ae       	std	Y+63, r1	; 0x3f
    44c0:	24 97       	sbiw	r28, 0x04	; 4
	bool change_a = false;
	bool change_b = false;
	bool change_speed_a = false;
	bool change_speed_b = false;
	uint8_t position_main = 0;
	uint8_t counter = 0;
    44c2:	d1 2c       	mov	r13, r1
	uint8_t status_b = 0;
	bool change_a = false;
	bool change_b = false;
	bool change_speed_a = false;
	bool change_speed_b = false;
	uint8_t position_main = 0;
    44c4:	26 96       	adiw	r28, 0x06	; 6
    44c6:	1f ae       	std	Y+63, r1	; 0x3f
    44c8:	26 97       	sbiw	r28, 0x06	; 6
	uint8_t status_a = 0;
	uint8_t status_b = 0;
	bool change_a = false;
	bool change_b = false;
	bool change_speed_a = false;
	bool change_speed_b = false;
    44ca:	2c 96       	adiw	r28, 0x0c	; 12
    44cc:	1f ae       	std	Y+63, r1	; 0x3f
    44ce:	2c 97       	sbiw	r28, 0x0c	; 12
	type_of_encoder = eeprom_read_byte(&type_of_encoder_EE);
	uint8_t status_a = 0;
	uint8_t status_b = 0;
	bool change_a = false;
	bool change_b = false;
	bool change_speed_a = false;
    44d0:	2d 96       	adiw	r28, 0x0d	; 13
    44d2:	1f ae       	std	Y+63, r1	; 0x3f
    44d4:	2d 97       	sbiw	r28, 0x0d	; 13
	bool high_speed_b = false;
	type_of_encoder = eeprom_read_byte(&type_of_encoder_EE);
	uint8_t status_a = 0;
	uint8_t status_b = 0;
	bool change_a = false;
	bool change_b = false;
    44d6:	a1 2c       	mov	r10, r1
	bool high_speed_a = true;
	bool high_speed_b = false;
	type_of_encoder = eeprom_read_byte(&type_of_encoder_EE);
	uint8_t status_a = 0;
	uint8_t status_b = 0;
	bool change_a = false;
    44d8:	29 96       	adiw	r28, 0x09	; 9
    44da:	1f ae       	std	Y+63, r1	; 0x3f
    44dc:	29 97       	sbiw	r28, 0x09	; 9
	bool update_display = true;
	bool high_speed_a = true;
	bool high_speed_b = false;
	type_of_encoder = eeprom_read_byte(&type_of_encoder_EE);
	uint8_t status_a = 0;
	uint8_t status_b = 0;
    44de:	b1 2c       	mov	r11, r1
	uint8_t position = 0;
	bool update_display = true;
	bool high_speed_a = true;
	bool high_speed_b = false;
	type_of_encoder = eeprom_read_byte(&type_of_encoder_EE);
	uint8_t status_a = 0;
    44e0:	25 96       	adiw	r28, 0x05	; 5
    44e2:	1f ae       	std	Y+63, r1	; 0x3f
    44e4:	25 97       	sbiw	r28, 0x05	; 5
int main(void)
{  
	uint16_t Ram = 0;
	uint16_t test = 0;
	uint8_t position = 0;
	bool update_display = true;
    44e6:	cc 24       	eor	r12, r12
    44e8:	c3 94       	inc	r12
	bool size_b = false;
	
    while (1) 
    {
		Ram = get_mem_unused()/41;
		if((PORTB.IN & PIN2_bm) != size_a)
    44ea:	0f 2e       	mov	r0, r31
    44ec:	f0 e2       	ldi	r31, 0x20	; 32
    44ee:	2f 2e       	mov	r2, r31
    44f0:	f6 e0       	ldi	r31, 0x06	; 6
    44f2:	3f 2e       	mov	r3, r31
    44f4:	f0 2d       	mov	r31, r0
					strcat(text_buffer,int_buffer);
				}
				else
					utoa(calc_voltage(avg_voltage_a)/1000,text_buffer,10);
				char helper[] = " V";
				strcat(text_buffer,",");
    44f6:	4e 01       	movw	r8, r28
    44f8:	09 e1       	ldi	r16, 0x19	; 25
    44fa:	80 0e       	add	r8, r16
    44fc:	91 1c       	adc	r9, r1
    bool size_a = false;
	bool size_b = false;
	
    while (1) 
    {
		Ram = get_mem_unused()/41;
    44fe:	0e 94 3f 33 	call	0x667e	; 0x667e <_Z14get_mem_unusedv>
    4502:	2b 96       	adiw	r28, 0x0b	; 11
    4504:	8e af       	std	Y+62, r24	; 0x3e
    4506:	9f af       	std	Y+63, r25	; 0x3f
    4508:	2b 97       	sbiw	r28, 0x0b	; 11
		if((PORTB.IN & PIN2_bm) != size_a)
    450a:	d1 01       	movw	r26, r2
    450c:	18 96       	adiw	r26, 0x08	; 8
    450e:	8c 91       	ld	r24, X
    4510:	84 70       	andi	r24, 0x04	; 4
    4512:	90 e0       	ldi	r25, 0x00	; 0
    4514:	27 96       	adiw	r28, 0x07	; 7
    4516:	bf ad       	ldd	r27, Y+63	; 0x3f
    4518:	27 97       	sbiw	r28, 0x07	; 7
    451a:	2b 2f       	mov	r18, r27
    451c:	30 e0       	ldi	r19, 0x00	; 0
    451e:	82 17       	cp	r24, r18
    4520:	93 07       	cpc	r25, r19
    4522:	c1 f1       	breq	.+112    	; 0x4594 <main+0x48e>
		{
			if(PORTB.IN & PIN2_bm)
    4524:	f1 01       	movw	r30, r2
    4526:	80 85       	ldd	r24, Z+8	; 0x08
    4528:	82 ff       	sbrs	r24, 2
    452a:	21 c0       	rjmp	.+66     	; 0x456e <main+0x468>
			{
				size_a = true;
				I_Anteil_a = p_parameter_a->I_voltage_0;
    452c:	e0 91 09 21 	lds	r30, 0x2109	; 0x802109 <p_parameter_a>
    4530:	f0 91 0a 21 	lds	r31, 0x210A	; 0x80210a <p_parameter_a+0x1>
    4534:	84 81       	ldd	r24, Z+4	; 0x04
    4536:	95 81       	ldd	r25, Z+5	; 0x05
    4538:	a6 81       	ldd	r26, Z+6	; 0x06
    453a:	b7 81       	ldd	r27, Z+7	; 0x07
    453c:	80 93 1b 21 	sts	0x211B, r24	; 0x80211b <I_Anteil_a>
    4540:	90 93 1c 21 	sts	0x211C, r25	; 0x80211c <I_Anteil_a+0x1>
    4544:	a0 93 1d 21 	sts	0x211D, r26	; 0x80211d <I_Anteil_a+0x2>
    4548:	b0 93 1e 21 	sts	0x211E, r27	; 0x80211e <I_Anteil_a+0x3>
				I_Anteil_a = p_parameter_a->I_speed_0;
    454c:	80 81       	ld	r24, Z
    454e:	91 81       	ldd	r25, Z+1	; 0x01
    4550:	a2 81       	ldd	r26, Z+2	; 0x02
    4552:	b3 81       	ldd	r27, Z+3	; 0x03
    4554:	80 93 1b 21 	sts	0x211B, r24	; 0x80211b <I_Anteil_a>
    4558:	90 93 1c 21 	sts	0x211C, r25	; 0x80211c <I_Anteil_a+0x1>
    455c:	a0 93 1d 21 	sts	0x211D, r26	; 0x80211d <I_Anteil_a+0x2>
    4560:	b0 93 1e 21 	sts	0x211E, r27	; 0x80211e <I_Anteil_a+0x3>
		Ram = get_mem_unused()/41;
		if((PORTB.IN & PIN2_bm) != size_a)
		{
			if(PORTB.IN & PIN2_bm)
			{
				size_a = true;
    4564:	f1 e0       	ldi	r31, 0x01	; 1
    4566:	27 96       	adiw	r28, 0x07	; 7
    4568:	ff af       	std	Y+63, r31	; 0x3f
    456a:	27 97       	sbiw	r28, 0x07	; 7
    456c:	13 c0       	rjmp	.+38     	; 0x4594 <main+0x48e>
			}
			else
			{
				size_a = false;
				I_Anteil_a = p_parameter_a->I_voltage_1;
				I_Anteil_a = p_parameter_a->I_speed_1;
    456e:	e0 91 09 21 	lds	r30, 0x2109	; 0x802109 <p_parameter_a>
    4572:	f0 91 0a 21 	lds	r31, 0x210A	; 0x80210a <p_parameter_a+0x1>
    4576:	80 85       	ldd	r24, Z+8	; 0x08
    4578:	91 85       	ldd	r25, Z+9	; 0x09
    457a:	a2 85       	ldd	r26, Z+10	; 0x0a
    457c:	b3 85       	ldd	r27, Z+11	; 0x0b
    457e:	80 93 1b 21 	sts	0x211B, r24	; 0x80211b <I_Anteil_a>
    4582:	90 93 1c 21 	sts	0x211C, r25	; 0x80211c <I_Anteil_a+0x1>
    4586:	a0 93 1d 21 	sts	0x211D, r26	; 0x80211d <I_Anteil_a+0x2>
    458a:	b0 93 1e 21 	sts	0x211E, r27	; 0x80211e <I_Anteil_a+0x3>
				I_Anteil_a = p_parameter_a->I_speed_0;
				
			}
			else
			{
				size_a = false;
    458e:	27 96       	adiw	r28, 0x07	; 7
    4590:	1f ae       	std	Y+63, r1	; 0x3f
    4592:	27 97       	sbiw	r28, 0x07	; 7
				I_Anteil_a = p_parameter_a->I_speed_1;
			}
			
		}
		
		if((PORTB.IN & PIN1_bm) != size_b)
    4594:	d1 01       	movw	r26, r2
    4596:	18 96       	adiw	r26, 0x08	; 8
    4598:	8c 91       	ld	r24, X
    459a:	82 70       	andi	r24, 0x02	; 2
    459c:	90 e0       	ldi	r25, 0x00	; 0
    459e:	28 96       	adiw	r28, 0x08	; 8
    45a0:	bf ad       	ldd	r27, Y+63	; 0x3f
    45a2:	28 97       	sbiw	r28, 0x08	; 8
    45a4:	2b 2f       	mov	r18, r27
    45a6:	30 e0       	ldi	r19, 0x00	; 0
    45a8:	82 17       	cp	r24, r18
    45aa:	93 07       	cpc	r25, r19
    45ac:	c1 f1       	breq	.+112    	; 0x461e <main+0x518>
		{
			if(PORTB.IN & PIN1_bm)
    45ae:	f1 01       	movw	r30, r2
    45b0:	80 85       	ldd	r24, Z+8	; 0x08
    45b2:	81 ff       	sbrs	r24, 1
    45b4:	21 c0       	rjmp	.+66     	; 0x45f8 <main+0x4f2>
			{
				size_b = true;
				I_Anteil_b = p_parameter_b->I_voltage_0;
    45b6:	e0 91 07 21 	lds	r30, 0x2107	; 0x802107 <p_parameter_b>
    45ba:	f0 91 08 21 	lds	r31, 0x2108	; 0x802108 <p_parameter_b+0x1>
    45be:	84 81       	ldd	r24, Z+4	; 0x04
    45c0:	95 81       	ldd	r25, Z+5	; 0x05
    45c2:	a6 81       	ldd	r26, Z+6	; 0x06
    45c4:	b7 81       	ldd	r27, Z+7	; 0x07
    45c6:	80 93 13 21 	sts	0x2113, r24	; 0x802113 <I_Anteil_b>
    45ca:	90 93 14 21 	sts	0x2114, r25	; 0x802114 <I_Anteil_b+0x1>
    45ce:	a0 93 15 21 	sts	0x2115, r26	; 0x802115 <I_Anteil_b+0x2>
    45d2:	b0 93 16 21 	sts	0x2116, r27	; 0x802116 <I_Anteil_b+0x3>
				I_Anteil_b = p_parameter_b->I_speed_0;
    45d6:	80 81       	ld	r24, Z
    45d8:	91 81       	ldd	r25, Z+1	; 0x01
    45da:	a2 81       	ldd	r26, Z+2	; 0x02
    45dc:	b3 81       	ldd	r27, Z+3	; 0x03
    45de:	80 93 13 21 	sts	0x2113, r24	; 0x802113 <I_Anteil_b>
    45e2:	90 93 14 21 	sts	0x2114, r25	; 0x802114 <I_Anteil_b+0x1>
    45e6:	a0 93 15 21 	sts	0x2115, r26	; 0x802115 <I_Anteil_b+0x2>
    45ea:	b0 93 16 21 	sts	0x2116, r27	; 0x802116 <I_Anteil_b+0x3>
		
		if((PORTB.IN & PIN1_bm) != size_b)
		{
			if(PORTB.IN & PIN1_bm)
			{
				size_b = true;
    45ee:	f1 e0       	ldi	r31, 0x01	; 1
    45f0:	28 96       	adiw	r28, 0x08	; 8
    45f2:	ff af       	std	Y+63, r31	; 0x3f
    45f4:	28 97       	sbiw	r28, 0x08	; 8
    45f6:	13 c0       	rjmp	.+38     	; 0x461e <main+0x518>
			}
			else
			{
				size_b = false;
				I_Anteil_b = p_parameter_b->I_voltage_1;
				I_Anteil_b = p_parameter_b->I_speed_1;
    45f8:	e0 91 07 21 	lds	r30, 0x2107	; 0x802107 <p_parameter_b>
    45fc:	f0 91 08 21 	lds	r31, 0x2108	; 0x802108 <p_parameter_b+0x1>
    4600:	80 85       	ldd	r24, Z+8	; 0x08
    4602:	91 85       	ldd	r25, Z+9	; 0x09
    4604:	a2 85       	ldd	r26, Z+10	; 0x0a
    4606:	b3 85       	ldd	r27, Z+11	; 0x0b
    4608:	80 93 13 21 	sts	0x2113, r24	; 0x802113 <I_Anteil_b>
    460c:	90 93 14 21 	sts	0x2114, r25	; 0x802114 <I_Anteil_b+0x1>
    4610:	a0 93 15 21 	sts	0x2115, r26	; 0x802115 <I_Anteil_b+0x2>
    4614:	b0 93 16 21 	sts	0x2116, r27	; 0x802116 <I_Anteil_b+0x3>
				I_Anteil_b = p_parameter_b->I_speed_0;
				
			}
			else
			{
				size_b = false;
    4618:	28 96       	adiw	r28, 0x08	; 8
    461a:	1f ae       	std	Y+63, r1	; 0x3f
    461c:	28 97       	sbiw	r28, 0x08	; 8
			}
			
		}
		
		
		EP_DEF_in(ep_out);          // Endpunkt-Tasks
    461e:	84 e3       	ldi	r24, 0x34	; 52
    4620:	91 e2       	ldi	r25, 0x21	; 33
    4622:	0e 94 3e 37 	call	0x6e7c	; 0x6e7c <ep_def_in>
		EP_DEF_out(ep_in);
    4626:	8d e3       	ldi	r24, 0x3D	; 61
    4628:	91 e2       	ldi	r25, 0x21	; 33
    462a:	0e 94 01 38 	call	0x7002	; 0x7002 <ep_def_out>
		EP_DEF_out(ep_note);
    462e:	8b e2       	ldi	r24, 0x2B	; 43
    4630:	91 e2       	ldi	r25, 0x21	; 33
    4632:	0e 94 01 38 	call	0x7002	; 0x7002 <ep_def_out>

		if (cdc_rxb.bytes<cdc_rxb.len)    // Neue Bytes empfangen?
    4636:	a5 e6       	ldi	r26, 0x65	; 101
    4638:	b5 e2       	ldi	r27, 0x25	; 37
    463a:	1c 91       	ld	r17, X
    463c:	e4 e6       	ldi	r30, 0x64	; 100
    463e:	f5 e2       	ldi	r31, 0x25	; 37
    4640:	80 81       	ld	r24, Z
    4642:	81 17       	cp	r24, r17
    4644:	c8 f4       	brcc	.+50     	; 0x4678 <main+0x572>
		{
			memcpy(empfangene_Bytes, cdc_rxb.data, cdc_rxb.len);  // aus Puffer lesen
    4646:	41 2f       	mov	r20, r17
    4648:	50 e0       	ldi	r21, 0x00	; 0
    464a:	64 e2       	ldi	r22, 0x24	; 36
    464c:	75 e2       	ldi	r23, 0x25	; 37
    464e:	88 e4       	ldi	r24, 0x48	; 72
    4650:	93 e2       	ldi	r25, 0x23	; 35
    4652:	0e 94 7a 3b 	call	0x76f4	; 0x76f4 <memcpy>
			cdc_rxb.bytes=cdc_rxb.len;    // als gelesen markieren
    4656:	a4 e6       	ldi	r26, 0x64	; 100
    4658:	b5 e2       	ldi	r27, 0x25	; 37
    465a:	1c 93       	st	X, r17
			cdc_rxb.flag=1;          // dann später wieder auf neue Daten testen
    465c:	81 e0       	ldi	r24, 0x01	; 1
    465e:	80 93 66 25 	sts	0x2566, r24	; 0x802566 <cdc_rxb+0x42>
			
			switch (empfangene_Bytes[0])  // erstes Byte betrachten
    4662:	80 91 48 23 	lds	r24, 0x2348	; 0x802348 <empfangene_Bytes>
    4666:	81 34       	cpi	r24, 0x41	; 65
    4668:	39 f0       	breq	.+14     	; 0x4678 <main+0x572>
    466a:	82 34       	cpi	r24, 0x42	; 66
    466c:	49 f4       	brne	.+18     	; 0x4680 <main+0x57a>
			{  case 'A': ;   // LED toggeln
				break;
				case 'B':   Dauerantwort = ~Dauerantwort;  // Zustand toggeln
    466e:	80 91 46 23 	lds	r24, 0x2346	; 0x802346 <Dauerantwort>
    4672:	80 95       	com	r24
    4674:	80 93 46 23 	sts	0x2346, r24	; 0x802346 <Dauerantwort>
				break;
				default:  Echo=1;
			}
		}
		
		if (Echo==1)  // das Empfangene zurücksenden
    4678:	80 91 47 23 	lds	r24, 0x2347	; 0x802347 <Echo>
    467c:	81 30       	cpi	r24, 0x01	; 1
    467e:	91 f4       	brne	.+36     	; 0x46a4 <main+0x59e>
		{
			cdc_txb.bytes=0;
    4680:	e7 e2       	ldi	r30, 0x27	; 39
    4682:	f6 e2       	ldi	r31, 0x26	; 38
    4684:	10 82       	st	Z, r1
			memcpy(cdc_txb.data, empfangene_Bytes, cdc_rxb.len);
    4686:	41 2f       	mov	r20, r17
    4688:	50 e0       	ldi	r21, 0x00	; 0
    468a:	68 e4       	ldi	r22, 0x48	; 72
    468c:	73 e2       	ldi	r23, 0x23	; 35
    468e:	87 ee       	ldi	r24, 0xE7	; 231
    4690:	95 e2       	ldi	r25, 0x25	; 37
    4692:	0e 94 7a 3b 	call	0x76f4	; 0x76f4 <memcpy>
			cdc_txb.len=cdc_rxb.len;  // ein Zeichen zu versenden
    4696:	10 93 28 26 	sts	0x2628, r17	; 0x802628 <cdc_txb+0x41>
			cdc_txb.flag=1; // versenden
    469a:	81 e0       	ldi	r24, 0x01	; 1
    469c:	80 93 29 26 	sts	0x2629, r24	; 0x802629 <cdc_txb+0x42>
			Echo=0;
    46a0:	10 92 47 23 	sts	0x2347, r1	; 0x802347 <Echo>
		}
		
		// Switch on/off and Reset side a
		if(!change_a)
    46a4:	29 96       	adiw	r28, 0x09	; 9
    46a6:	ff ad       	ldd	r31, Y+63	; 0x3f
    46a8:	29 97       	sbiw	r28, 0x09	; 9
    46aa:	f1 11       	cpse	r31, r1
    46ac:	73 c0       	rjmp	.+230    	; 0x4794 <main+0x68e>
		{
			if(status_a == 1)
    46ae:	25 96       	adiw	r28, 0x05	; 5
    46b0:	0f ad       	ldd	r16, Y+63	; 0x3f
    46b2:	25 97       	sbiw	r28, 0x05	; 5
    46b4:	01 30       	cpi	r16, 0x01	; 1
    46b6:	31 f4       	brne	.+12     	; 0x46c4 <main+0x5be>
			{
				running_a = true;
    46b8:	81 e0       	ldi	r24, 0x01	; 1
    46ba:	80 93 10 24 	sts	0x2410, r24	; 0x802410 <running_a>
				hand_a = false;
    46be:	10 92 0e 24 	sts	0x240E, r1	; 0x80240e <hand_a>
    46c2:	14 c0       	rjmp	.+40     	; 0x46ec <main+0x5e6>
			}
			if(status_a == 0)
    46c4:	25 96       	adiw	r28, 0x05	; 5
    46c6:	1f ad       	ldd	r17, Y+63	; 0x3f
    46c8:	25 97       	sbiw	r28, 0x05	; 5
    46ca:	11 11       	cpse	r17, r1
    46cc:	05 c0       	rjmp	.+10     	; 0x46d8 <main+0x5d2>
			{
				running_a = false;
    46ce:	10 92 10 24 	sts	0x2410, r1	; 0x802410 <running_a>
				hand_a = false;
    46d2:	10 92 0e 24 	sts	0x240E, r1	; 0x80240e <hand_a>
    46d6:	15 c0       	rjmp	.+42     	; 0x4702 <main+0x5fc>
			}
			if(status_a == 2)
    46d8:	25 96       	adiw	r28, 0x05	; 5
    46da:	2f ad       	ldd	r18, Y+63	; 0x3f
    46dc:	25 97       	sbiw	r28, 0x05	; 5
    46de:	22 30       	cpi	r18, 0x02	; 2
    46e0:	29 f4       	brne	.+10     	; 0x46ec <main+0x5e6>
			{
				running_a = false;
    46e2:	10 92 10 24 	sts	0x2410, r1	; 0x802410 <running_a>
				hand_a = false;
    46e6:	10 92 0e 24 	sts	0x240E, r1	; 0x80240e <hand_a>
    46ea:	54 c0       	rjmp	.+168    	; 0x4794 <main+0x68e>
			}
			if(status_a == 3)
    46ec:	25 96       	adiw	r28, 0x05	; 5
    46ee:	3f ad       	ldd	r19, Y+63	; 0x3f
    46f0:	25 97       	sbiw	r28, 0x05	; 5
    46f2:	33 30       	cpi	r19, 0x03	; 3
    46f4:	31 f4       	brne	.+12     	; 0x4702 <main+0x5fc>
			{
				running_a = true;
    46f6:	81 e0       	ldi	r24, 0x01	; 1
    46f8:	80 93 10 24 	sts	0x2410, r24	; 0x802410 <running_a>
				hand_a = true;
    46fc:	80 93 0e 24 	sts	0x240E, r24	; 0x80240e <hand_a>
    4700:	49 c0       	rjmp	.+146    	; 0x4794 <main+0x68e>
			}
			if(status_a == 4)
    4702:	25 96       	adiw	r28, 0x05	; 5
    4704:	4f ad       	ldd	r20, Y+63	; 0x3f
    4706:	25 97       	sbiw	r28, 0x05	; 5
    4708:	44 30       	cpi	r20, 0x04	; 4
    470a:	09 f0       	breq	.+2      	; 0x470e <main+0x608>
    470c:	43 c0       	rjmp	.+134    	; 0x4794 <main+0x68e>
				{
					next_change_a = Unixtimestamp + p_Profile_a->time_fast_init;
    470e:	e0 91 0d 21 	lds	r30, 0x210D	; 0x80210d <p_Profile_a>
    4712:	f0 91 0e 21 	lds	r31, 0x210E	; 0x80210e <p_Profile_a+0x1>
    4716:	80 91 1e 24 	lds	r24, 0x241E	; 0x80241e <Unixtimestamp>
    471a:	90 91 1f 24 	lds	r25, 0x241F	; 0x80241f <Unixtimestamp+0x1>
    471e:	a0 91 20 24 	lds	r26, 0x2420	; 0x802420 <Unixtimestamp+0x2>
    4722:	b0 91 21 24 	lds	r27, 0x2421	; 0x802421 <Unixtimestamp+0x3>
    4726:	43 85       	ldd	r20, Z+11	; 0x0b
    4728:	54 85       	ldd	r21, Z+12	; 0x0c
    472a:	65 85       	ldd	r22, Z+13	; 0x0d
    472c:	76 85       	ldd	r23, Z+14	; 0x0e
    472e:	84 0f       	add	r24, r20
    4730:	95 1f       	adc	r25, r21
    4732:	a6 1f       	adc	r26, r22
    4734:	b7 1f       	adc	r27, r23
    4736:	8a 83       	std	Y+2, r24	; 0x02
    4738:	9b 83       	std	Y+3, r25	; 0x03
    473a:	ac 83       	std	Y+4, r26	; 0x04
    473c:	bd 83       	std	Y+5, r27	; 0x05
					end_time_a = Unixtimestamp + p_Profile_a->total_time;
    473e:	80 91 1e 24 	lds	r24, 0x241E	; 0x80241e <Unixtimestamp>
    4742:	90 91 1f 24 	lds	r25, 0x241F	; 0x80241f <Unixtimestamp+0x1>
    4746:	a0 91 20 24 	lds	r26, 0x2420	; 0x802420 <Unixtimestamp+0x2>
    474a:	b0 91 21 24 	lds	r27, 0x2421	; 0x802421 <Unixtimestamp+0x3>
    474e:	47 85       	ldd	r20, Z+15	; 0x0f
    4750:	50 89       	ldd	r21, Z+16	; 0x10
    4752:	61 89       	ldd	r22, Z+17	; 0x11
    4754:	72 89       	ldd	r23, Z+18	; 0x12
    4756:	84 0f       	add	r24, r20
    4758:	95 1f       	adc	r25, r21
    475a:	a6 1f       	adc	r26, r22
    475c:	b7 1f       	adc	r27, r23
    475e:	8e 83       	std	Y+6, r24	; 0x06
    4760:	9f 83       	std	Y+7, r25	; 0x07
    4762:	a8 87       	std	Y+8, r26	; 0x08
    4764:	b9 87       	std	Y+9, r27	; 0x09
					Sollwert_RPM_a = p_Profile_a->speed_fast;
    4766:	81 85       	ldd	r24, Z+9	; 0x09
    4768:	92 85       	ldd	r25, Z+10	; 0x0a
    476a:	80 93 21 21 	sts	0x2121, r24	; 0x802121 <Sollwert_RPM_a>
    476e:	90 93 22 21 	sts	0x2122, r25	; 0x802122 <Sollwert_RPM_a+0x1>
					status_a = 0;
					end_a = false;
    4772:	10 92 97 23 	sts	0x2397, r1	; 0x802397 <end_a>
					p_Profile_a->slowdown = true;
    4776:	81 e0       	ldi	r24, 0x01	; 1
    4778:	84 83       	std	Z+4, r24	; 0x04
					p_Profile_a->speedup = false;
    477a:	15 82       	std	Z+5, r1	; 0x05
					p_Profile_a->switchoff = false;
    477c:	13 82       	std	Z+3, r1	; 0x03
					runtime_a = 0;
    477e:	10 92 9c 23 	sts	0x239C, r1	; 0x80239c <runtime_a>
    4782:	10 92 9d 23 	sts	0x239D, r1	; 0x80239d <runtime_a+0x1>
    4786:	10 92 9e 23 	sts	0x239E, r1	; 0x80239e <runtime_a+0x2>
    478a:	10 92 9f 23 	sts	0x239F, r1	; 0x80239f <runtime_a+0x3>
			if(status_a == 4)
				{
					next_change_a = Unixtimestamp + p_Profile_a->time_fast_init;
					end_time_a = Unixtimestamp + p_Profile_a->total_time;
					Sollwert_RPM_a = p_Profile_a->speed_fast;
					status_a = 0;
    478e:	25 96       	adiw	r28, 0x05	; 5
    4790:	1f ae       	std	Y+63, r1	; 0x3f
    4792:	25 97       	sbiw	r28, 0x05	; 5
					runtime_a = 0;
					
				}
		}
		
		if(!change_b)
    4794:	a1 10       	cpse	r10, r1
    4796:	65 c0       	rjmp	.+202    	; 0x4862 <main+0x75c>
		{
			if(status_b == 1)
    4798:	51 e0       	ldi	r21, 0x01	; 1
    479a:	b5 12       	cpse	r11, r21
    479c:	06 c0       	rjmp	.+12     	; 0x47aa <main+0x6a4>
			{
				running_b = true;
    479e:	81 e0       	ldi	r24, 0x01	; 1
    47a0:	80 93 0f 24 	sts	0x240F, r24	; 0x80240f <running_b>
				hand_b = false;
    47a4:	10 92 0d 24 	sts	0x240D, r1	; 0x80240d <hand_b>
    47a8:	0f c0       	rjmp	.+30     	; 0x47c8 <main+0x6c2>
			}
			if(status_b == 0)
    47aa:	b1 10       	cpse	r11, r1
    47ac:	05 c0       	rjmp	.+10     	; 0x47b8 <main+0x6b2>
			{
				running_b = false;
    47ae:	10 92 0f 24 	sts	0x240F, r1	; 0x80240f <running_b>
				hand_b = false;
    47b2:	10 92 0d 24 	sts	0x240D, r1	; 0x80240d <hand_b>
    47b6:	11 c0       	rjmp	.+34     	; 0x47da <main+0x6d4>
			}
			if(status_b == 2)
    47b8:	82 e0       	ldi	r24, 0x02	; 2
    47ba:	b8 12       	cpse	r11, r24
    47bc:	05 c0       	rjmp	.+10     	; 0x47c8 <main+0x6c2>
			{
				running_b = false;
    47be:	10 92 0f 24 	sts	0x240F, r1	; 0x80240f <running_b>
				hand_b = false;
    47c2:	10 92 0d 24 	sts	0x240D, r1	; 0x80240d <hand_b>
    47c6:	4d c0       	rjmp	.+154    	; 0x4862 <main+0x75c>
			}
			if(status_b == 3)
    47c8:	93 e0       	ldi	r25, 0x03	; 3
    47ca:	b9 12       	cpse	r11, r25
    47cc:	06 c0       	rjmp	.+12     	; 0x47da <main+0x6d4>
			{
				running_b = true;
    47ce:	81 e0       	ldi	r24, 0x01	; 1
    47d0:	80 93 0f 24 	sts	0x240F, r24	; 0x80240f <running_b>
				hand_b = true;
    47d4:	80 93 0d 24 	sts	0x240D, r24	; 0x80240d <hand_b>
    47d8:	44 c0       	rjmp	.+136    	; 0x4862 <main+0x75c>
			}
			
			if(status_b == 4)
    47da:	a4 e0       	ldi	r26, 0x04	; 4
    47dc:	ba 12       	cpse	r11, r26
    47de:	41 c0       	rjmp	.+130    	; 0x4862 <main+0x75c>
			{
				next_change_b = Unixtimestamp + p_Profile_b->time_fast_init;
    47e0:	e0 91 0b 21 	lds	r30, 0x210B	; 0x80210b <p_Profile_b>
    47e4:	f0 91 0c 21 	lds	r31, 0x210C	; 0x80210c <p_Profile_b+0x1>
    47e8:	80 91 1e 24 	lds	r24, 0x241E	; 0x80241e <Unixtimestamp>
    47ec:	90 91 1f 24 	lds	r25, 0x241F	; 0x80241f <Unixtimestamp+0x1>
    47f0:	a0 91 20 24 	lds	r26, 0x2420	; 0x802420 <Unixtimestamp+0x2>
    47f4:	b0 91 21 24 	lds	r27, 0x2421	; 0x802421 <Unixtimestamp+0x3>
    47f8:	43 85       	ldd	r20, Z+11	; 0x0b
    47fa:	54 85       	ldd	r21, Z+12	; 0x0c
    47fc:	65 85       	ldd	r22, Z+13	; 0x0d
    47fe:	76 85       	ldd	r23, Z+14	; 0x0e
    4800:	84 0f       	add	r24, r20
    4802:	95 1f       	adc	r25, r21
    4804:	a6 1f       	adc	r26, r22
    4806:	b7 1f       	adc	r27, r23
    4808:	8a 87       	std	Y+10, r24	; 0x0a
    480a:	9b 87       	std	Y+11, r25	; 0x0b
    480c:	ac 87       	std	Y+12, r26	; 0x0c
    480e:	bd 87       	std	Y+13, r27	; 0x0d
				end_time_b = Unixtimestamp + p_Profile_b->total_time;
    4810:	80 91 1e 24 	lds	r24, 0x241E	; 0x80241e <Unixtimestamp>
    4814:	90 91 1f 24 	lds	r25, 0x241F	; 0x80241f <Unixtimestamp+0x1>
    4818:	a0 91 20 24 	lds	r26, 0x2420	; 0x802420 <Unixtimestamp+0x2>
    481c:	b0 91 21 24 	lds	r27, 0x2421	; 0x802421 <Unixtimestamp+0x3>
    4820:	47 85       	ldd	r20, Z+15	; 0x0f
    4822:	50 89       	ldd	r21, Z+16	; 0x10
    4824:	61 89       	ldd	r22, Z+17	; 0x11
    4826:	72 89       	ldd	r23, Z+18	; 0x12
    4828:	84 0f       	add	r24, r20
    482a:	95 1f       	adc	r25, r21
    482c:	a6 1f       	adc	r26, r22
    482e:	b7 1f       	adc	r27, r23
    4830:	8e 87       	std	Y+14, r24	; 0x0e
    4832:	9f 87       	std	Y+15, r25	; 0x0f
    4834:	a8 8b       	std	Y+16, r26	; 0x10
    4836:	b9 8b       	std	Y+17, r27	; 0x11
				Sollwert_RPM_b = p_Profile_b->speed_fast;
    4838:	81 85       	ldd	r24, Z+9	; 0x09
    483a:	92 85       	ldd	r25, Z+10	; 0x0a
    483c:	80 93 1f 21 	sts	0x211F, r24	; 0x80211f <Sollwert_RPM_b>
    4840:	90 93 20 21 	sts	0x2120, r25	; 0x802120 <Sollwert_RPM_b+0x1>
				status_b = 0;
				end_b = false;
    4844:	10 92 96 23 	sts	0x2396, r1	; 0x802396 <end_b>
				p_Profile_b->slowdown = true;
    4848:	81 e0       	ldi	r24, 0x01	; 1
    484a:	84 83       	std	Z+4, r24	; 0x04
				p_Profile_b->speedup = false;
    484c:	15 82       	std	Z+5, r1	; 0x05
				p_Profile_b->switchoff = false;
    484e:	13 82       	std	Z+3, r1	; 0x03
				runtime_b = 0;
    4850:	10 92 98 23 	sts	0x2398, r1	; 0x802398 <runtime_b>
    4854:	10 92 99 23 	sts	0x2399, r1	; 0x802399 <runtime_b+0x1>
    4858:	10 92 9a 23 	sts	0x239A, r1	; 0x80239a <runtime_b+0x2>
    485c:	10 92 9b 23 	sts	0x239B, r1	; 0x80239b <runtime_b+0x3>
			if(status_b == 4)
			{
				next_change_b = Unixtimestamp + p_Profile_b->time_fast_init;
				end_time_b = Unixtimestamp + p_Profile_b->total_time;
				Sollwert_RPM_b = p_Profile_b->speed_fast;
				status_b = 0;
    4860:	b1 2c       	mov	r11, r1
			}
		}
		
			
		
		if(!show_menu)
    4862:	80 91 a3 23 	lds	r24, 0x23A3	; 0x8023a3 <show_menu>
    4866:	81 11       	cpse	r24, r1
    4868:	90 c0       	rjmp	.+288    	; 0x498a <main+0x884>
		{
			if(!change_a && !change_b && !change_speed_a && !change_speed_b)
    486a:	29 96       	adiw	r28, 0x09	; 9
    486c:	bf ad       	ldd	r27, Y+63	; 0x3f
    486e:	29 97       	sbiw	r28, 0x09	; 9
    4870:	b1 11       	cpse	r27, r1
    4872:	0c 94 7b 32 	jmp	0x64f6	; 0x64f6 <main+0x23f0>
    4876:	a1 10       	cpse	r10, r1
    4878:	28 c0       	rjmp	.+80     	; 0x48ca <main+0x7c4>
    487a:	2d 96       	adiw	r28, 0x0d	; 13
    487c:	ef ad       	ldd	r30, Y+63	; 0x3f
    487e:	2d 97       	sbiw	r28, 0x0d	; 13
    4880:	e1 11       	cpse	r30, r1
    4882:	28 c0       	rjmp	.+80     	; 0x48d4 <main+0x7ce>
    4884:	2c 96       	adiw	r28, 0x0c	; 12
    4886:	ff ad       	ldd	r31, Y+63	; 0x3f
    4888:	2c 97       	sbiw	r28, 0x0c	; 12
    488a:	f1 11       	cpse	r31, r1
    488c:	3d c0       	rjmp	.+122    	; 0x4908 <main+0x802>
				position_main += encode_read2();
    488e:	0e 94 b4 10 	call	0x2168	; 0x2168 <_Z12encode_read2v>
    4892:	26 96       	adiw	r28, 0x06	; 6
    4894:	0f ad       	ldd	r16, Y+63	; 0x3f
    4896:	26 97       	sbiw	r28, 0x06	; 6
    4898:	08 0f       	add	r16, r24
    489a:	26 96       	adiw	r28, 0x06	; 6
    489c:	0f af       	std	Y+63, r16	; 0x3f
    489e:	26 97       	sbiw	r28, 0x06	; 6
    48a0:	33 c0       	rjmp	.+102    	; 0x4908 <main+0x802>
			if(change_a)
			{
				status_a += encode_read2();
				if(status_a == 255)
					status_a = 4;
    48a2:	84 e0       	ldi	r24, 0x04	; 4
				status_a %= 5;
    48a4:	9d ec       	ldi	r25, 0xCD	; 205
    48a6:	89 9f       	mul	r24, r25
    48a8:	91 2d       	mov	r25, r1
    48aa:	11 24       	eor	r1, r1
    48ac:	96 95       	lsr	r25
    48ae:	96 95       	lsr	r25
    48b0:	25 96       	adiw	r28, 0x05	; 5
    48b2:	9f af       	std	Y+63, r25	; 0x3f
    48b4:	25 97       	sbiw	r28, 0x05	; 5
    48b6:	99 0f       	add	r25, r25
    48b8:	99 0f       	add	r25, r25
    48ba:	25 96       	adiw	r28, 0x05	; 5
    48bc:	1f ad       	ldd	r17, Y+63	; 0x3f
    48be:	25 97       	sbiw	r28, 0x05	; 5
    48c0:	91 0f       	add	r25, r17
    48c2:	89 1b       	sub	r24, r25
    48c4:	25 96       	adiw	r28, 0x05	; 5
    48c6:	8f af       	std	Y+63, r24	; 0x3f
    48c8:	25 97       	sbiw	r28, 0x05	; 5
			}
			if(change_speed_a)
    48ca:	2d 96       	adiw	r28, 0x0d	; 13
    48cc:	2f ad       	ldd	r18, Y+63	; 0x3f
    48ce:	2d 97       	sbiw	r28, 0x0d	; 13
    48d0:	22 23       	and	r18, r18
    48d2:	d1 f0       	breq	.+52     	; 0x4908 <main+0x802>
			{
				Sollwert_RPM_a += 10 * encode_read2();
    48d4:	0e 94 b4 10 	call	0x2168	; 0x2168 <_Z12encode_read2v>
    48d8:	20 91 21 21 	lds	r18, 0x2121	; 0x802121 <Sollwert_RPM_a>
    48dc:	30 91 22 21 	lds	r19, 0x2122	; 0x802122 <Sollwert_RPM_a+0x1>
    48e0:	08 2e       	mov	r0, r24
    48e2:	00 0c       	add	r0, r0
    48e4:	99 0b       	sbc	r25, r25
    48e6:	ac 01       	movw	r20, r24
    48e8:	44 0f       	add	r20, r20
    48ea:	55 1f       	adc	r21, r21
    48ec:	88 0f       	add	r24, r24
    48ee:	99 1f       	adc	r25, r25
    48f0:	88 0f       	add	r24, r24
    48f2:	99 1f       	adc	r25, r25
    48f4:	88 0f       	add	r24, r24
    48f6:	99 1f       	adc	r25, r25
    48f8:	84 0f       	add	r24, r20
    48fa:	95 1f       	adc	r25, r21
    48fc:	82 0f       	add	r24, r18
    48fe:	93 1f       	adc	r25, r19
    4900:	80 93 21 21 	sts	0x2121, r24	; 0x802121 <Sollwert_RPM_a>
    4904:	90 93 22 21 	sts	0x2122, r25	; 0x802122 <Sollwert_RPM_a+0x1>
			}
			if(change_speed_b)
    4908:	2c 96       	adiw	r28, 0x0c	; 12
    490a:	3f ad       	ldd	r19, Y+63	; 0x3f
    490c:	2c 97       	sbiw	r28, 0x0c	; 12
    490e:	33 23       	and	r19, r19
    4910:	d1 f0       	breq	.+52     	; 0x4946 <main+0x840>
			{
				Sollwert_RPM_b += 10 * encode_read2();
    4912:	0e 94 b4 10 	call	0x2168	; 0x2168 <_Z12encode_read2v>
    4916:	20 91 1f 21 	lds	r18, 0x211F	; 0x80211f <Sollwert_RPM_b>
    491a:	30 91 20 21 	lds	r19, 0x2120	; 0x802120 <Sollwert_RPM_b+0x1>
    491e:	08 2e       	mov	r0, r24
    4920:	00 0c       	add	r0, r0
    4922:	99 0b       	sbc	r25, r25
    4924:	ac 01       	movw	r20, r24
    4926:	44 0f       	add	r20, r20
    4928:	55 1f       	adc	r21, r21
    492a:	88 0f       	add	r24, r24
    492c:	99 1f       	adc	r25, r25
    492e:	88 0f       	add	r24, r24
    4930:	99 1f       	adc	r25, r25
    4932:	88 0f       	add	r24, r24
    4934:	99 1f       	adc	r25, r25
    4936:	84 0f       	add	r24, r20
    4938:	95 1f       	adc	r25, r21
    493a:	82 0f       	add	r24, r18
    493c:	93 1f       	adc	r25, r19
    493e:	80 93 1f 21 	sts	0x211F, r24	; 0x80211f <Sollwert_RPM_b>
    4942:	90 93 20 21 	sts	0x2120, r25	; 0x802120 <Sollwert_RPM_b+0x1>
			}
			
			if(change_b)
    4946:	aa 20       	and	r10, r10
    4948:	91 f0       	breq	.+36     	; 0x496e <main+0x868>
			{	
				status_b += encode_read2();
    494a:	0e 94 b4 10 	call	0x2168	; 0x2168 <_Z12encode_read2v>
    494e:	8b 0d       	add	r24, r11
				if(status_b == 255)
    4950:	8f 3f       	cpi	r24, 0xFF	; 255
    4952:	09 f4       	brne	.+2      	; 0x4956 <main+0x850>
				status_b = 4;
    4954:	84 e0       	ldi	r24, 0x04	; 4
				status_b %= 5;
    4956:	9d ec       	ldi	r25, 0xCD	; 205
    4958:	89 9f       	mul	r24, r25
    495a:	b1 2c       	mov	r11, r1
    495c:	11 24       	eor	r1, r1
    495e:	b6 94       	lsr	r11
    4960:	b6 94       	lsr	r11
    4962:	9b 2d       	mov	r25, r11
    4964:	99 0f       	add	r25, r25
    4966:	99 0f       	add	r25, r25
    4968:	b9 0e       	add	r11, r25
    496a:	8b 19       	sub	r24, r11
    496c:	b8 2e       	mov	r11, r24
			}
			
			
				
			if(get_key_long( 1<<KEY0))
    496e:	80 e1       	ldi	r24, 0x10	; 16
    4970:	0e 94 b9 0b 	call	0x1772	; 0x1772 <_Z12get_key_longh>
    4974:	88 23       	and	r24, r24
    4976:	49 f0       	breq	.+18     	; 0x498a <main+0x884>
			{
				show_menu = true;
    4978:	81 e0       	ldi	r24, 0x01	; 1
    497a:	80 93 a3 23 	sts	0x23A3, r24	; 0x8023a3 <show_menu>
				menu.sub_menu = 0;
    497e:	e0 ea       	ldi	r30, 0xA0	; 160
    4980:	f3 e2       	ldi	r31, 0x23	; 35
    4982:	10 82       	st	Z, r1
				menu.menu_point = 0;
    4984:	11 82       	std	Z+1, r1	; 0x01
				screen_clear = true;
    4986:	80 93 a2 23 	sts	0x23A2, r24	; 0x8023a2 <screen_clear>
			}
		}
		
		//do regulator calulations	
		if(calc_regulator)
    498a:	80 91 14 24 	lds	r24, 0x2414	; 0x802414 <calc_regulator>
    498e:	88 23       	and	r24, r24
    4990:	21 f0       	breq	.+8      	; 0x499a <main+0x894>
		{
			calc_regulator = false;
    4992:	10 92 14 24 	sts	0x2414, r1	; 0x802414 <calc_regulator>
			regulator();
    4996:	0e 94 ce 0c 	call	0x199c	; 0x199c <_Z9regulatorv>
		}
		
		
		// read voltages of side a and b
		
		ADC_Value_a = ADCA_Conversion(&(ADCA.CH1), 1);
    499a:	61 e0       	ldi	r22, 0x01	; 1
    499c:	88 e2       	ldi	r24, 0x28	; 40
    499e:	92 e0       	ldi	r25, 0x02	; 2
    49a0:	0e 94 3d 16 	call	0x2c7a	; 0x2c7a <_Z15ADCA_ConversionP13ADC_CH_structc>
    49a4:	80 93 29 21 	sts	0x2129, r24	; 0x802129 <ADC_Value_a>
    49a8:	90 93 2a 21 	sts	0x212A, r25	; 0x80212a <ADC_Value_a+0x1>
		ADC_Value_b = ADCA_Conversion(&(ADCA.CH0), 0);
    49ac:	60 e0       	ldi	r22, 0x00	; 0
    49ae:	80 e2       	ldi	r24, 0x20	; 32
    49b0:	92 e0       	ldi	r25, 0x02	; 2
    49b2:	0e 94 3d 16 	call	0x2c7a	; 0x2c7a <_Z15ADCA_ConversionP13ADC_CH_structc>
    49b6:	80 93 27 21 	sts	0x2127, r24	; 0x802127 <ADC_Value_b>
    49ba:	90 93 28 21 	sts	0x2128, r25	; 0x802128 <ADC_Value_b+0x1>
		counter++;
    49be:	d3 94       	inc	r13
		if(counter < 50)
    49c0:	41 e3       	ldi	r20, 0x31	; 49
    49c2:	4d 15       	cp	r20, r13
    49c4:	10 f4       	brcc	.+4      	; 0x49ca <main+0x8c4>
    49c6:	0c 94 87 32 	jmp	0x650e	; 0x650e <main+0x2408>
		{	
			avg_voltage_a += ADC_Value_a;
    49ca:	80 91 29 21 	lds	r24, 0x2129	; 0x802129 <ADC_Value_a>
    49ce:	90 91 2a 21 	lds	r25, 0x212A	; 0x80212a <ADC_Value_a+0x1>
    49d2:	24 96       	adiw	r28, 0x04	; 4
    49d4:	0c ad       	ldd	r16, Y+60	; 0x3c
    49d6:	1d ad       	ldd	r17, Y+61	; 0x3d
    49d8:	2e ad       	ldd	r18, Y+62	; 0x3e
    49da:	3f ad       	ldd	r19, Y+63	; 0x3f
    49dc:	24 97       	sbiw	r28, 0x04	; 4
    49de:	08 0f       	add	r16, r24
    49e0:	19 1f       	adc	r17, r25
    49e2:	21 1d       	adc	r18, r1
    49e4:	31 1d       	adc	r19, r1
    49e6:	24 96       	adiw	r28, 0x04	; 4
    49e8:	0c af       	std	Y+60, r16	; 0x3c
    49ea:	1d af       	std	Y+61, r17	; 0x3d
    49ec:	2e af       	std	Y+62, r18	; 0x3e
    49ee:	3f af       	std	Y+63, r19	; 0x3f
    49f0:	24 97       	sbiw	r28, 0x04	; 4
			avg_voltage_b += ADC_Value_b;
    49f2:	80 91 27 21 	lds	r24, 0x2127	; 0x802127 <ADC_Value_b>
    49f6:	90 91 28 21 	lds	r25, 0x2128	; 0x802128 <ADC_Value_b+0x1>
    49fa:	48 0e       	add	r4, r24
    49fc:	59 1e       	adc	r5, r25
    49fe:	61 1c       	adc	r6, r1
    4a00:	71 1c       	adc	r7, r1
		
		
		
		
		//automode changes of side a
		if(running_a  && !hand_a)
    4a02:	80 91 10 24 	lds	r24, 0x2410	; 0x802410 <running_a>
    4a06:	88 23       	and	r24, r24
    4a08:	11 f4       	brne	.+4      	; 0x4a0e <main+0x908>
    4a0a:	0c 94 e3 32 	jmp	0x65c6	; 0x65c6 <main+0x24c0>
    4a0e:	80 91 0e 24 	lds	r24, 0x240E	; 0x80240e <hand_a>
    4a12:	81 11       	cpse	r24, r1
    4a14:	0c 94 db 32 	jmp	0x65b6	; 0x65b6 <main+0x24b0>
		{
			if(!end_a)
    4a18:	80 91 97 23 	lds	r24, 0x2397	; 0x802397 <end_a>
    4a1c:	81 11       	cpse	r24, r1
    4a1e:	04 c0       	rjmp	.+8      	; 0x4a28 <main+0x922>
			PORTA.OUTSET = PIN6_bm;
    4a20:	80 e4       	ldi	r24, 0x40	; 64
    4a22:	80 93 05 06 	sts	0x0605, r24	; 0x800605 <__TEXT_REGION_LENGTH__+0x700605>
    4a26:	08 c0       	rjmp	.+16     	; 0x4a38 <main+0x932>
			else
			Blink_LED(&PORTA,PIN6_bp,Blink,Frequenz_2Hz);
    4a28:	40 91 1d 24 	lds	r20, 0x241D	; 0x80241d <Blink>
    4a2c:	24 e0       	ldi	r18, 0x04	; 4
    4a2e:	66 e0       	ldi	r22, 0x06	; 6
    4a30:	80 e0       	ldi	r24, 0x00	; 0
    4a32:	96 e0       	ldi	r25, 0x06	; 6
    4a34:	0e 94 88 0f 	call	0x1f10	; 0x1f10 <_Z9Blink_LEDP11PORT_structhhh>
			if(Unixtimestamp >= next_change_a)
    4a38:	40 91 1e 24 	lds	r20, 0x241E	; 0x80241e <Unixtimestamp>
    4a3c:	50 91 1f 24 	lds	r21, 0x241F	; 0x80241f <Unixtimestamp+0x1>
    4a40:	60 91 20 24 	lds	r22, 0x2420	; 0x802420 <Unixtimestamp+0x2>
    4a44:	70 91 21 24 	lds	r23, 0x2421	; 0x802421 <Unixtimestamp+0x3>
    4a48:	8a 81       	ldd	r24, Y+2	; 0x02
    4a4a:	9b 81       	ldd	r25, Y+3	; 0x03
    4a4c:	ac 81       	ldd	r26, Y+4	; 0x04
    4a4e:	bd 81       	ldd	r27, Y+5	; 0x05
    4a50:	48 17       	cp	r20, r24
    4a52:	59 07       	cpc	r21, r25
    4a54:	6a 07       	cpc	r22, r26
    4a56:	7b 07       	cpc	r23, r27
    4a58:	08 f4       	brcc	.+2      	; 0x4a5c <main+0x956>
    4a5a:	71 c1       	rjmp	.+738    	; 0x4d3e <main+0xc38>
			{
				if(p_Profile_a->type == type_normal  || p_Profile_a->type == type_stop)
    4a5c:	e0 91 0d 21 	lds	r30, 0x210D	; 0x80210d <p_Profile_a>
    4a60:	f0 91 0e 21 	lds	r31, 0x210E	; 0x80210e <p_Profile_a+0x1>
    4a64:	82 81       	ldd	r24, Z+2	; 0x02
    4a66:	88 23       	and	r24, r24
    4a68:	11 f4       	brne	.+4      	; 0x4a6e <main+0x968>
    4a6a:	0c 94 cf 32 	jmp	0x659e	; 0x659e <main+0x2498>
    4a6e:	82 30       	cpi	r24, 0x02	; 2
    4a70:	79 f5       	brne	.+94     	; 0x4ad0 <main+0x9ca>
    4a72:	0c 94 b3 32 	jmp	0x6566	; 0x6566 <main+0x2460>
						}
						
						
						
					}
					if(p_Profile_a->slowdown)
    4a76:	84 81       	ldd	r24, Z+4	; 0x04
    4a78:	88 23       	and	r24, r24
    4a7a:	51 f1       	breq	.+84     	; 0x4ad0 <main+0x9ca>
					{
						Sollwert_RPM_a = p_Profile_a->speed_slow;
    4a7c:	87 81       	ldd	r24, Z+7	; 0x07
    4a7e:	90 85       	ldd	r25, Z+8	; 0x08
    4a80:	80 93 21 21 	sts	0x2121, r24	; 0x802121 <Sollwert_RPM_a>
    4a84:	90 93 22 21 	sts	0x2122, r25	; 0x802122 <Sollwert_RPM_a+0x1>
						next_change_a = Unixtimestamp + (p_Profile_a->total_time - p_Profile_a->time_fast_init);
    4a88:	40 91 1e 24 	lds	r20, 0x241E	; 0x80241e <Unixtimestamp>
    4a8c:	50 91 1f 24 	lds	r21, 0x241F	; 0x80241f <Unixtimestamp+0x1>
    4a90:	60 91 20 24 	lds	r22, 0x2420	; 0x802420 <Unixtimestamp+0x2>
    4a94:	70 91 21 24 	lds	r23, 0x2421	; 0x802421 <Unixtimestamp+0x3>
    4a98:	87 85       	ldd	r24, Z+15	; 0x0f
    4a9a:	90 89       	ldd	r25, Z+16	; 0x10
    4a9c:	a1 89       	ldd	r26, Z+17	; 0x11
    4a9e:	b2 89       	ldd	r27, Z+18	; 0x12
    4aa0:	84 0f       	add	r24, r20
    4aa2:	95 1f       	adc	r25, r21
    4aa4:	a6 1f       	adc	r26, r22
    4aa6:	b7 1f       	adc	r27, r23
    4aa8:	43 85       	ldd	r20, Z+11	; 0x0b
    4aaa:	54 85       	ldd	r21, Z+12	; 0x0c
    4aac:	65 85       	ldd	r22, Z+13	; 0x0d
    4aae:	76 85       	ldd	r23, Z+14	; 0x0e
    4ab0:	84 1b       	sub	r24, r20
    4ab2:	95 0b       	sbc	r25, r21
    4ab4:	a6 0b       	sbc	r26, r22
    4ab6:	b7 0b       	sbc	r27, r23
    4ab8:	8a 83       	std	Y+2, r24	; 0x02
    4aba:	9b 83       	std	Y+3, r25	; 0x03
    4abc:	ac 83       	std	Y+4, r26	; 0x04
    4abe:	bd 83       	std	Y+5, r27	; 0x05
						p_Profile_a->slowdown = false;
    4ac0:	14 82       	std	Z+4, r1	; 0x04
						p_Profile_a->switchoff = true;
    4ac2:	81 e0       	ldi	r24, 0x01	; 1
    4ac4:	83 83       	std	Z+3, r24	; 0x03
						
					}
					
					
				}
				if(p_Profile_a->type == type_switch)
    4ac6:	82 81       	ldd	r24, Z+2	; 0x02
    4ac8:	81 30       	cpi	r24, 0x01	; 1
    4aca:	09 f0       	breq	.+2      	; 0x4ace <main+0x9c8>
    4acc:	38 c1       	rjmp	.+624    	; 0x4d3e <main+0xc38>
    4ace:	09 c0       	rjmp	.+18     	; 0x4ae2 <main+0x9dc>
    4ad0:	82 81       	ldd	r24, Z+2	; 0x02
    4ad2:	81 30       	cpi	r24, 0x01	; 1
    4ad4:	09 f0       	breq	.+2      	; 0x4ad8 <main+0x9d2>
    4ad6:	33 c1       	rjmp	.+614    	; 0x4d3e <main+0xc38>
				{
					bool change = true;
					if(p_Profile_a->switchoff && change)
    4ad8:	83 81       	ldd	r24, Z+3	; 0x03
    4ada:	88 23       	and	r24, r24
    4adc:	11 f4       	brne	.+4      	; 0x4ae2 <main+0x9dc>
    4ade:	0c 94 d5 32 	jmp	0x65aa	; 0x65aa <main+0x24a4>
					{
						change = false;
						end_a = true;
    4ae2:	81 e0       	ldi	r24, 0x01	; 1
    4ae4:	80 93 97 23 	sts	0x2397, r24	; 0x802397 <end_a>
						{
							running_a = false;
						}
						else
						{
							next_change_a = Unixtimestamp + p_Profile_a->speed_slow;
    4ae8:	40 91 1e 24 	lds	r20, 0x241E	; 0x80241e <Unixtimestamp>
    4aec:	50 91 1f 24 	lds	r21, 0x241F	; 0x80241f <Unixtimestamp+0x1>
    4af0:	60 91 20 24 	lds	r22, 0x2420	; 0x802420 <Unixtimestamp+0x2>
    4af4:	70 91 21 24 	lds	r23, 0x2421	; 0x802421 <Unixtimestamp+0x3>
    4af8:	87 81       	ldd	r24, Z+7	; 0x07
    4afa:	90 85       	ldd	r25, Z+8	; 0x08
    4afc:	48 0f       	add	r20, r24
    4afe:	59 1f       	adc	r21, r25
    4b00:	61 1d       	adc	r22, r1
    4b02:	71 1d       	adc	r23, r1
    4b04:	4a 83       	std	Y+2, r20	; 0x02
    4b06:	5b 83       	std	Y+3, r21	; 0x03
    4b08:	6c 83       	std	Y+4, r22	; 0x04
    4b0a:	7d 83       	std	Y+5, r23	; 0x05
    4b0c:	0c 94 34 33 	jmp	0x6668	; 0x6668 <main+0x2562>
						
					}
					if(p_Profile_a->speedup && change)
					{
						change = false;
						runtime_a += p_Profile_a->speed_time;
    4b10:	40 91 9c 23 	lds	r20, 0x239C	; 0x80239c <runtime_a>
    4b14:	50 91 9d 23 	lds	r21, 0x239D	; 0x80239d <runtime_a+0x1>
    4b18:	60 91 9e 23 	lds	r22, 0x239E	; 0x80239e <runtime_a+0x2>
    4b1c:	70 91 9f 23 	lds	r23, 0x239F	; 0x80239f <runtime_a+0x3>
    4b20:	87 89       	ldd	r24, Z+23	; 0x17
    4b22:	90 8d       	ldd	r25, Z+24	; 0x18
    4b24:	a1 8d       	ldd	r26, Z+25	; 0x19
    4b26:	b2 8d       	ldd	r27, Z+26	; 0x1a
    4b28:	84 0f       	add	r24, r20
    4b2a:	95 1f       	adc	r25, r21
    4b2c:	a6 1f       	adc	r26, r22
    4b2e:	b7 1f       	adc	r27, r23
    4b30:	80 93 9c 23 	sts	0x239C, r24	; 0x80239c <runtime_a>
    4b34:	90 93 9d 23 	sts	0x239D, r25	; 0x80239d <runtime_a+0x1>
    4b38:	a0 93 9e 23 	sts	0x239E, r26	; 0x80239e <runtime_a+0x2>
    4b3c:	b0 93 9f 23 	sts	0x239F, r27	; 0x80239f <runtime_a+0x3>
						Sollwert_RPM_a = p_Profile_a->speed_fast;
    4b40:	81 85       	ldd	r24, Z+9	; 0x09
    4b42:	92 85       	ldd	r25, Z+10	; 0x0a
    4b44:	80 93 21 21 	sts	0x2121, r24	; 0x802121 <Sollwert_RPM_a>
    4b48:	90 93 22 21 	sts	0x2122, r25	; 0x802122 <Sollwert_RPM_a+0x1>
						p_Profile_a->speedup = false;
    4b4c:	15 82       	std	Z+5, r1	; 0x05
						p_Profile_a->slowdown_switch = true;
    4b4e:	81 e0       	ldi	r24, 0x01	; 1
    4b50:	86 83       	std	Z+6, r24	; 0x06
						p_Profile_a->slowdown = false;
    4b52:	14 82       	std	Z+4, r1	; 0x04
						p_Profile_a->switchoff = false;
    4b54:	13 82       	std	Z+3, r1	; 0x03
						cli();
    4b56:	f8 94       	cli
						next_change_a = Unixtimestamp + p_Profile_a->speed_time;
    4b58:	80 91 1e 24 	lds	r24, 0x241E	; 0x80241e <Unixtimestamp>
    4b5c:	90 91 1f 24 	lds	r25, 0x241F	; 0x80241f <Unixtimestamp+0x1>
    4b60:	a0 91 20 24 	lds	r26, 0x2420	; 0x802420 <Unixtimestamp+0x2>
    4b64:	b0 91 21 24 	lds	r27, 0x2421	; 0x802421 <Unixtimestamp+0x3>
    4b68:	e0 91 0d 21 	lds	r30, 0x210D	; 0x80210d <p_Profile_a>
    4b6c:	f0 91 0e 21 	lds	r31, 0x210E	; 0x80210e <p_Profile_a+0x1>
    4b70:	47 89       	ldd	r20, Z+23	; 0x17
    4b72:	50 8d       	ldd	r21, Z+24	; 0x18
    4b74:	61 8d       	ldd	r22, Z+25	; 0x19
    4b76:	72 8d       	ldd	r23, Z+26	; 0x1a
    4b78:	84 0f       	add	r24, r20
    4b7a:	95 1f       	adc	r25, r21
    4b7c:	a6 1f       	adc	r26, r22
    4b7e:	b7 1f       	adc	r27, r23
    4b80:	8a 83       	std	Y+2, r24	; 0x02
    4b82:	9b 83       	std	Y+3, r25	; 0x03
    4b84:	ac 83       	std	Y+4, r26	; 0x04
    4b86:	bd 83       	std	Y+5, r27	; 0x05
						sei();
    4b88:	78 94       	sei
    4b8a:	0c 94 34 33 	jmp	0x6668	; 0x6668 <main+0x2562>
						
					}
					if(p_Profile_a->slowdown_switch && change)
					{
						change = false;
						Sollwert_RPM_a = p_Profile_a->speed_slow;
    4b8e:	87 81       	ldd	r24, Z+7	; 0x07
    4b90:	90 85       	ldd	r25, Z+8	; 0x08
    4b92:	80 93 21 21 	sts	0x2121, r24	; 0x802121 <Sollwert_RPM_a>
    4b96:	90 93 22 21 	sts	0x2122, r25	; 0x802122 <Sollwert_RPM_a+0x1>
						runtime_a += p_Profile_a->time_slow;
    4b9a:	43 89       	ldd	r20, Z+19	; 0x13
    4b9c:	54 89       	ldd	r21, Z+20	; 0x14
    4b9e:	65 89       	ldd	r22, Z+21	; 0x15
    4ba0:	76 89       	ldd	r23, Z+22	; 0x16
    4ba2:	80 91 9c 23 	lds	r24, 0x239C	; 0x80239c <runtime_a>
    4ba6:	90 91 9d 23 	lds	r25, 0x239D	; 0x80239d <runtime_a+0x1>
    4baa:	a0 91 9e 23 	lds	r26, 0x239E	; 0x80239e <runtime_a+0x2>
    4bae:	b0 91 9f 23 	lds	r27, 0x239F	; 0x80239f <runtime_a+0x3>
    4bb2:	84 0f       	add	r24, r20
    4bb4:	95 1f       	adc	r25, r21
    4bb6:	a6 1f       	adc	r26, r22
    4bb8:	b7 1f       	adc	r27, r23
    4bba:	80 93 9c 23 	sts	0x239C, r24	; 0x80239c <runtime_a>
    4bbe:	90 93 9d 23 	sts	0x239D, r25	; 0x80239d <runtime_a+0x1>
    4bc2:	a0 93 9e 23 	sts	0x239E, r26	; 0x80239e <runtime_a+0x2>
    4bc6:	b0 93 9f 23 	sts	0x239F, r27	; 0x80239f <runtime_a+0x3>
						uint32_t time_a_remaining = p_Profile_a->total_time - runtime_a;
    4bca:	07 85       	ldd	r16, Z+15	; 0x0f
    4bcc:	10 89       	ldd	r17, Z+16	; 0x10
    4bce:	21 89       	ldd	r18, Z+17	; 0x11
    4bd0:	32 89       	ldd	r19, Z+18	; 0x12
    4bd2:	08 1b       	sub	r16, r24
    4bd4:	19 0b       	sbc	r17, r25
    4bd6:	2a 0b       	sbc	r18, r26
    4bd8:	3b 0b       	sbc	r19, r27
    4bda:	d9 01       	movw	r26, r18
    4bdc:	c8 01       	movw	r24, r16
						if(time_a_remaining > (p_Profile_a->speed_time+p_Profile_a->time_slow))
    4bde:	07 89       	ldd	r16, Z+23	; 0x17
    4be0:	10 8d       	ldd	r17, Z+24	; 0x18
    4be2:	21 8d       	ldd	r18, Z+25	; 0x19
    4be4:	32 8d       	ldd	r19, Z+26	; 0x1a
    4be6:	40 0f       	add	r20, r16
    4be8:	51 1f       	adc	r21, r17
    4bea:	62 1f       	adc	r22, r18
    4bec:	73 1f       	adc	r23, r19
    4bee:	48 17       	cp	r20, r24
    4bf0:	59 07       	cpc	r21, r25
    4bf2:	6a 07       	cpc	r22, r26
    4bf4:	7b 07       	cpc	r23, r27
    4bf6:	20 f5       	brcc	.+72     	; 0x4c40 <main+0xb3a>
						{
							cli();
    4bf8:	f8 94       	cli
							next_change_a = Unixtimestamp + p_Profile_a->time_slow;
    4bfa:	80 91 1e 24 	lds	r24, 0x241E	; 0x80241e <Unixtimestamp>
    4bfe:	90 91 1f 24 	lds	r25, 0x241F	; 0x80241f <Unixtimestamp+0x1>
    4c02:	a0 91 20 24 	lds	r26, 0x2420	; 0x802420 <Unixtimestamp+0x2>
    4c06:	b0 91 21 24 	lds	r27, 0x2421	; 0x802421 <Unixtimestamp+0x3>
    4c0a:	e0 91 0d 21 	lds	r30, 0x210D	; 0x80210d <p_Profile_a>
    4c0e:	f0 91 0e 21 	lds	r31, 0x210E	; 0x80210e <p_Profile_a+0x1>
    4c12:	43 89       	ldd	r20, Z+19	; 0x13
    4c14:	54 89       	ldd	r21, Z+20	; 0x14
    4c16:	65 89       	ldd	r22, Z+21	; 0x15
    4c18:	76 89       	ldd	r23, Z+22	; 0x16
    4c1a:	84 0f       	add	r24, r20
    4c1c:	95 1f       	adc	r25, r21
    4c1e:	a6 1f       	adc	r26, r22
    4c20:	b7 1f       	adc	r27, r23
    4c22:	8a 83       	std	Y+2, r24	; 0x02
    4c24:	9b 83       	std	Y+3, r25	; 0x03
    4c26:	ac 83       	std	Y+4, r26	; 0x04
    4c28:	bd 83       	std	Y+5, r27	; 0x05
							sei();
    4c2a:	78 94       	sei
							p_Profile_a->speedup = true;
    4c2c:	e0 91 0d 21 	lds	r30, 0x210D	; 0x80210d <p_Profile_a>
    4c30:	f0 91 0e 21 	lds	r31, 0x210E	; 0x80210e <p_Profile_a+0x1>
    4c34:	81 e0       	ldi	r24, 0x01	; 1
    4c36:	85 83       	std	Z+5, r24	; 0x05
							p_Profile_a->slowdown = false;
    4c38:	14 82       	std	Z+4, r1	; 0x04
							p_Profile_a->switchoff = false;
    4c3a:	13 82       	std	Z+3, r1	; 0x03
							p_Profile_a->slowdown_switch = false;
    4c3c:	16 82       	std	Z+6, r1	; 0x06
    4c3e:	7f c0       	rjmp	.+254    	; 0x4d3e <main+0xc38>
							
						}
						else
						{
							next_change_a = Unixtimestamp + time_a_remaining;
    4c40:	40 91 1e 24 	lds	r20, 0x241E	; 0x80241e <Unixtimestamp>
    4c44:	50 91 1f 24 	lds	r21, 0x241F	; 0x80241f <Unixtimestamp+0x1>
    4c48:	60 91 20 24 	lds	r22, 0x2420	; 0x802420 <Unixtimestamp+0x2>
    4c4c:	70 91 21 24 	lds	r23, 0x2421	; 0x802421 <Unixtimestamp+0x3>
    4c50:	84 0f       	add	r24, r20
    4c52:	95 1f       	adc	r25, r21
    4c54:	a6 1f       	adc	r26, r22
    4c56:	b7 1f       	adc	r27, r23
    4c58:	8a 83       	std	Y+2, r24	; 0x02
    4c5a:	9b 83       	std	Y+3, r25	; 0x03
    4c5c:	ac 83       	std	Y+4, r26	; 0x04
    4c5e:	bd 83       	std	Y+5, r27	; 0x05
							p_Profile_a->slowdown = false;
    4c60:	14 82       	std	Z+4, r1	; 0x04
							p_Profile_a->switchoff = true;
    4c62:	81 e0       	ldi	r24, 0x01	; 1
    4c64:	83 83       	std	Z+3, r24	; 0x03
							p_Profile_a->speedup = false;
    4c66:	15 82       	std	Z+5, r1	; 0x05
							p_Profile_a->slowdown_switch = false;;
    4c68:	16 82       	std	Z+6, r1	; 0x06
    4c6a:	69 c0       	rjmp	.+210    	; 0x4d3e <main+0xc38>
						}
						
					}
					
					if(p_Profile_a->slowdown && change)
    4c6c:	84 81       	ldd	r24, Z+4	; 0x04
    4c6e:	88 23       	and	r24, r24
    4c70:	09 f4       	brne	.+2      	; 0x4c74 <main+0xb6e>
    4c72:	65 c0       	rjmp	.+202    	; 0x4d3e <main+0xc38>
    4c74:	99 23       	and	r25, r25
    4c76:	09 f4       	brne	.+2      	; 0x4c7a <main+0xb74>
    4c78:	62 c0       	rjmp	.+196    	; 0x4d3e <main+0xc38>
					{
						change = false;
						Sollwert_RPM_a = p_Profile_a->speed_slow;
    4c7a:	87 81       	ldd	r24, Z+7	; 0x07
    4c7c:	90 85       	ldd	r25, Z+8	; 0x08
    4c7e:	80 93 21 21 	sts	0x2121, r24	; 0x802121 <Sollwert_RPM_a>
    4c82:	90 93 22 21 	sts	0x2122, r25	; 0x802122 <Sollwert_RPM_a+0x1>
						runtime_a = p_Profile_a->time_fast_init;
    4c86:	43 85       	ldd	r20, Z+11	; 0x0b
    4c88:	54 85       	ldd	r21, Z+12	; 0x0c
    4c8a:	65 85       	ldd	r22, Z+13	; 0x0d
    4c8c:	76 85       	ldd	r23, Z+14	; 0x0e
    4c8e:	40 93 9c 23 	sts	0x239C, r20	; 0x80239c <runtime_a>
    4c92:	50 93 9d 23 	sts	0x239D, r21	; 0x80239d <runtime_a+0x1>
    4c96:	60 93 9e 23 	sts	0x239E, r22	; 0x80239e <runtime_a+0x2>
    4c9a:	70 93 9f 23 	sts	0x239F, r23	; 0x80239f <runtime_a+0x3>
						uint32_t time_a_remaining = p_Profile_a->total_time - runtime_a;
    4c9e:	87 85       	ldd	r24, Z+15	; 0x0f
    4ca0:	90 89       	ldd	r25, Z+16	; 0x10
    4ca2:	a1 89       	ldd	r26, Z+17	; 0x11
    4ca4:	b2 89       	ldd	r27, Z+18	; 0x12
    4ca6:	84 1b       	sub	r24, r20
    4ca8:	95 0b       	sbc	r25, r21
    4caa:	a6 0b       	sbc	r26, r22
    4cac:	b7 0b       	sbc	r27, r23
						if(time_a_remaining > (p_Profile_a->speed_time+p_Profile_a->time_slow))
    4cae:	07 89       	ldd	r16, Z+23	; 0x17
    4cb0:	10 8d       	ldd	r17, Z+24	; 0x18
    4cb2:	21 8d       	ldd	r18, Z+25	; 0x19
    4cb4:	32 8d       	ldd	r19, Z+26	; 0x1a
    4cb6:	43 89       	ldd	r20, Z+19	; 0x13
    4cb8:	54 89       	ldd	r21, Z+20	; 0x14
    4cba:	65 89       	ldd	r22, Z+21	; 0x15
    4cbc:	76 89       	ldd	r23, Z+22	; 0x16
    4cbe:	40 0f       	add	r20, r16
    4cc0:	51 1f       	adc	r21, r17
    4cc2:	62 1f       	adc	r22, r18
    4cc4:	73 1f       	adc	r23, r19
    4cc6:	48 17       	cp	r20, r24
    4cc8:	59 07       	cpc	r21, r25
    4cca:	6a 07       	cpc	r22, r26
    4ccc:	7b 07       	cpc	r23, r27
    4cce:	18 f5       	brcc	.+70     	; 0x4d16 <main+0xc10>
						{
							cli();
    4cd0:	f8 94       	cli
							next_change_a = Unixtimestamp + p_Profile_a->time_slow;
    4cd2:	80 91 1e 24 	lds	r24, 0x241E	; 0x80241e <Unixtimestamp>
    4cd6:	90 91 1f 24 	lds	r25, 0x241F	; 0x80241f <Unixtimestamp+0x1>
    4cda:	a0 91 20 24 	lds	r26, 0x2420	; 0x802420 <Unixtimestamp+0x2>
    4cde:	b0 91 21 24 	lds	r27, 0x2421	; 0x802421 <Unixtimestamp+0x3>
    4ce2:	e0 91 0d 21 	lds	r30, 0x210D	; 0x80210d <p_Profile_a>
    4ce6:	f0 91 0e 21 	lds	r31, 0x210E	; 0x80210e <p_Profile_a+0x1>
    4cea:	43 89       	ldd	r20, Z+19	; 0x13
    4cec:	54 89       	ldd	r21, Z+20	; 0x14
    4cee:	65 89       	ldd	r22, Z+21	; 0x15
    4cf0:	76 89       	ldd	r23, Z+22	; 0x16
    4cf2:	84 0f       	add	r24, r20
    4cf4:	95 1f       	adc	r25, r21
    4cf6:	a6 1f       	adc	r26, r22
    4cf8:	b7 1f       	adc	r27, r23
    4cfa:	8a 83       	std	Y+2, r24	; 0x02
    4cfc:	9b 83       	std	Y+3, r25	; 0x03
    4cfe:	ac 83       	std	Y+4, r26	; 0x04
    4d00:	bd 83       	std	Y+5, r27	; 0x05
							sei();
    4d02:	78 94       	sei
							p_Profile_a->speedup = true;
    4d04:	e0 91 0d 21 	lds	r30, 0x210D	; 0x80210d <p_Profile_a>
    4d08:	f0 91 0e 21 	lds	r31, 0x210E	; 0x80210e <p_Profile_a+0x1>
    4d0c:	81 e0       	ldi	r24, 0x01	; 1
    4d0e:	85 83       	std	Z+5, r24	; 0x05
							p_Profile_a->slowdown = false;
    4d10:	14 82       	std	Z+4, r1	; 0x04
							p_Profile_a->switchoff = false;
    4d12:	13 82       	std	Z+3, r1	; 0x03
    4d14:	14 c0       	rjmp	.+40     	; 0x4d3e <main+0xc38>
							
						}
						else
						{
							next_change_a = Unixtimestamp + time_a_remaining;
    4d16:	40 91 1e 24 	lds	r20, 0x241E	; 0x80241e <Unixtimestamp>
    4d1a:	50 91 1f 24 	lds	r21, 0x241F	; 0x80241f <Unixtimestamp+0x1>
    4d1e:	60 91 20 24 	lds	r22, 0x2420	; 0x802420 <Unixtimestamp+0x2>
    4d22:	70 91 21 24 	lds	r23, 0x2421	; 0x802421 <Unixtimestamp+0x3>
    4d26:	84 0f       	add	r24, r20
    4d28:	95 1f       	adc	r25, r21
    4d2a:	a6 1f       	adc	r26, r22
    4d2c:	b7 1f       	adc	r27, r23
    4d2e:	8a 83       	std	Y+2, r24	; 0x02
    4d30:	9b 83       	std	Y+3, r25	; 0x03
    4d32:	ac 83       	std	Y+4, r26	; 0x04
    4d34:	bd 83       	std	Y+5, r27	; 0x05
							p_Profile_a->slowdown = false;
    4d36:	14 82       	std	Z+4, r1	; 0x04
							p_Profile_a->switchoff = true;
    4d38:	81 e0       	ldi	r24, 0x01	; 1
    4d3a:	83 83       	std	Z+3, r24	; 0x03
							p_Profile_a->speedup = false;
    4d3c:	15 82       	std	Z+5, r1	; 0x05
			}
			
		}
		
		//automode changes of side b
		if(running_b  && !hand_b)
    4d3e:	80 91 0f 24 	lds	r24, 0x240F	; 0x80240f <running_b>
    4d42:	88 23       	and	r24, r24
    4d44:	11 f4       	brne	.+4      	; 0x4d4a <main+0xc44>
    4d46:	0c 94 20 33 	jmp	0x6640	; 0x6640 <main+0x253a>
    4d4a:	80 91 0d 24 	lds	r24, 0x240D	; 0x80240d <hand_b>
    4d4e:	81 11       	cpse	r24, r1
    4d50:	0c 94 18 33 	jmp	0x6630	; 0x6630 <main+0x252a>
		{
			if(!end_b)
    4d54:	80 91 96 23 	lds	r24, 0x2396	; 0x802396 <end_b>
    4d58:	81 11       	cpse	r24, r1
    4d5a:	05 c0       	rjmp	.+10     	; 0x4d66 <main+0xc60>
				PORTB.OUTSET = PIN0_bm;
    4d5c:	81 e0       	ldi	r24, 0x01	; 1
    4d5e:	d1 01       	movw	r26, r2
    4d60:	15 96       	adiw	r26, 0x05	; 5
    4d62:	8c 93       	st	X, r24
    4d64:	07 c0       	rjmp	.+14     	; 0x4d74 <main+0xc6e>
			else
				Blink_LED(&PORTB,PIN0_bp,Blink,Frequenz_2Hz);
    4d66:	40 91 1d 24 	lds	r20, 0x241D	; 0x80241d <Blink>
    4d6a:	24 e0       	ldi	r18, 0x04	; 4
    4d6c:	60 e0       	ldi	r22, 0x00	; 0
    4d6e:	c1 01       	movw	r24, r2
    4d70:	0e 94 88 0f 	call	0x1f10	; 0x1f10 <_Z9Blink_LEDP11PORT_structhhh>
				
			if(Unixtimestamp >= next_change_b)
    4d74:	40 91 1e 24 	lds	r20, 0x241E	; 0x80241e <Unixtimestamp>
    4d78:	50 91 1f 24 	lds	r21, 0x241F	; 0x80241f <Unixtimestamp+0x1>
    4d7c:	60 91 20 24 	lds	r22, 0x2420	; 0x802420 <Unixtimestamp+0x2>
    4d80:	70 91 21 24 	lds	r23, 0x2421	; 0x802421 <Unixtimestamp+0x3>
    4d84:	8a 85       	ldd	r24, Y+10	; 0x0a
    4d86:	9b 85       	ldd	r25, Y+11	; 0x0b
    4d88:	ac 85       	ldd	r26, Y+12	; 0x0c
    4d8a:	bd 85       	ldd	r27, Y+13	; 0x0d
    4d8c:	48 17       	cp	r20, r24
    4d8e:	59 07       	cpc	r21, r25
    4d90:	6a 07       	cpc	r22, r26
    4d92:	7b 07       	cpc	r23, r27
    4d94:	08 f4       	brcc	.+2      	; 0x4d98 <main+0xc92>
    4d96:	72 c1       	rjmp	.+740    	; 0x507c <main+0xf76>
			{
				if(p_Profile_b->type == type_normal || p_Profile_b->type == type_stop)
    4d98:	e0 91 0b 21 	lds	r30, 0x210B	; 0x80210b <p_Profile_b>
    4d9c:	f0 91 0c 21 	lds	r31, 0x210C	; 0x80210c <p_Profile_b+0x1>
    4da0:	82 81       	ldd	r24, Z+2	; 0x02
    4da2:	88 23       	and	r24, r24
    4da4:	11 f4       	brne	.+4      	; 0x4daa <main+0xca4>
    4da6:	0c 94 12 33 	jmp	0x6624	; 0x6624 <main+0x251e>
    4daa:	82 30       	cpi	r24, 0x02	; 2
    4dac:	79 f5       	brne	.+94     	; 0x4e0c <main+0xd06>
    4dae:	0c 94 f6 32 	jmp	0x65ec	; 0x65ec <main+0x24e6>
						}
						
						
						
					}
					if(p_Profile_b->slowdown)
    4db2:	84 81       	ldd	r24, Z+4	; 0x04
    4db4:	88 23       	and	r24, r24
    4db6:	51 f1       	breq	.+84     	; 0x4e0c <main+0xd06>
					{
						Sollwert_RPM_b = p_Profile_b->speed_slow;
    4db8:	87 81       	ldd	r24, Z+7	; 0x07
    4dba:	90 85       	ldd	r25, Z+8	; 0x08
    4dbc:	80 93 1f 21 	sts	0x211F, r24	; 0x80211f <Sollwert_RPM_b>
    4dc0:	90 93 20 21 	sts	0x2120, r25	; 0x802120 <Sollwert_RPM_b+0x1>
						next_change_b = Unixtimestamp + (p_Profile_b->total_time - p_Profile_b->time_fast_init);
    4dc4:	40 91 1e 24 	lds	r20, 0x241E	; 0x80241e <Unixtimestamp>
    4dc8:	50 91 1f 24 	lds	r21, 0x241F	; 0x80241f <Unixtimestamp+0x1>
    4dcc:	60 91 20 24 	lds	r22, 0x2420	; 0x802420 <Unixtimestamp+0x2>
    4dd0:	70 91 21 24 	lds	r23, 0x2421	; 0x802421 <Unixtimestamp+0x3>
    4dd4:	87 85       	ldd	r24, Z+15	; 0x0f
    4dd6:	90 89       	ldd	r25, Z+16	; 0x10
    4dd8:	a1 89       	ldd	r26, Z+17	; 0x11
    4dda:	b2 89       	ldd	r27, Z+18	; 0x12
    4ddc:	84 0f       	add	r24, r20
    4dde:	95 1f       	adc	r25, r21
    4de0:	a6 1f       	adc	r26, r22
    4de2:	b7 1f       	adc	r27, r23
    4de4:	43 85       	ldd	r20, Z+11	; 0x0b
    4de6:	54 85       	ldd	r21, Z+12	; 0x0c
    4de8:	65 85       	ldd	r22, Z+13	; 0x0d
    4dea:	76 85       	ldd	r23, Z+14	; 0x0e
    4dec:	84 1b       	sub	r24, r20
    4dee:	95 0b       	sbc	r25, r21
    4df0:	a6 0b       	sbc	r26, r22
    4df2:	b7 0b       	sbc	r27, r23
    4df4:	8a 87       	std	Y+10, r24	; 0x0a
    4df6:	9b 87       	std	Y+11, r25	; 0x0b
    4df8:	ac 87       	std	Y+12, r26	; 0x0c
    4dfa:	bd 87       	std	Y+13, r27	; 0x0d
						p_Profile_b->slowdown = false;
    4dfc:	14 82       	std	Z+4, r1	; 0x04
						p_Profile_b->switchoff = true;
    4dfe:	81 e0       	ldi	r24, 0x01	; 1
    4e00:	83 83       	std	Z+3, r24	; 0x03
						
					}
					
					
				}
				if(p_Profile_b->type == type_switch)
    4e02:	82 81       	ldd	r24, Z+2	; 0x02
    4e04:	81 30       	cpi	r24, 0x01	; 1
    4e06:	09 f0       	breq	.+2      	; 0x4e0a <main+0xd04>
    4e08:	39 c1       	rjmp	.+626    	; 0x507c <main+0xf76>
    4e0a:	07 c0       	rjmp	.+14     	; 0x4e1a <main+0xd14>
    4e0c:	82 81       	ldd	r24, Z+2	; 0x02
    4e0e:	81 30       	cpi	r24, 0x01	; 1
    4e10:	09 f0       	breq	.+2      	; 0x4e14 <main+0xd0e>
    4e12:	34 c1       	rjmp	.+616    	; 0x507c <main+0xf76>
				{
					if(p_Profile_b->switchoff)
    4e14:	83 81       	ldd	r24, Z+3	; 0x03
    4e16:	88 23       	and	r24, r24
    4e18:	a9 f0       	breq	.+42     	; 0x4e44 <main+0xd3e>
					{
						end_b = true;
    4e1a:	81 e0       	ldi	r24, 0x01	; 1
    4e1c:	80 93 96 23 	sts	0x2396, r24	; 0x802396 <end_b>
						{
							running_b = false;
						}
						else
						{
							next_change_b = Unixtimestamp + p_Profile_b->speed_slow;
    4e20:	40 91 1e 24 	lds	r20, 0x241E	; 0x80241e <Unixtimestamp>
    4e24:	50 91 1f 24 	lds	r21, 0x241F	; 0x80241f <Unixtimestamp+0x1>
    4e28:	60 91 20 24 	lds	r22, 0x2420	; 0x802420 <Unixtimestamp+0x2>
    4e2c:	70 91 21 24 	lds	r23, 0x2421	; 0x802421 <Unixtimestamp+0x3>
    4e30:	87 81       	ldd	r24, Z+7	; 0x07
    4e32:	90 85       	ldd	r25, Z+8	; 0x08
    4e34:	48 0f       	add	r20, r24
    4e36:	59 1f       	adc	r21, r25
    4e38:	61 1d       	adc	r22, r1
    4e3a:	71 1d       	adc	r23, r1
    4e3c:	4a 87       	std	Y+10, r20	; 0x0a
    4e3e:	5b 87       	std	Y+11, r21	; 0x0b
    4e40:	6c 87       	std	Y+12, r22	; 0x0c
    4e42:	7d 87       	std	Y+13, r23	; 0x0d
						}
						
						
						
					}
					if(p_Profile_b->speedup)
    4e44:	85 81       	ldd	r24, Z+5	; 0x05
    4e46:	88 23       	and	r24, r24
    4e48:	09 f4       	brne	.+2      	; 0x4e4c <main+0xd46>
    4e4a:	3d c0       	rjmp	.+122    	; 0x4ec6 <main+0xdc0>
					{
						runtime_b += p_Profile_b->time_slow;
    4e4c:	40 91 98 23 	lds	r20, 0x2398	; 0x802398 <runtime_b>
    4e50:	50 91 99 23 	lds	r21, 0x2399	; 0x802399 <runtime_b+0x1>
    4e54:	60 91 9a 23 	lds	r22, 0x239A	; 0x80239a <runtime_b+0x2>
    4e58:	70 91 9b 23 	lds	r23, 0x239B	; 0x80239b <runtime_b+0x3>
    4e5c:	83 89       	ldd	r24, Z+19	; 0x13
    4e5e:	94 89       	ldd	r25, Z+20	; 0x14
    4e60:	a5 89       	ldd	r26, Z+21	; 0x15
    4e62:	b6 89       	ldd	r27, Z+22	; 0x16
    4e64:	84 0f       	add	r24, r20
    4e66:	95 1f       	adc	r25, r21
    4e68:	a6 1f       	adc	r26, r22
    4e6a:	b7 1f       	adc	r27, r23
    4e6c:	80 93 98 23 	sts	0x2398, r24	; 0x802398 <runtime_b>
    4e70:	90 93 99 23 	sts	0x2399, r25	; 0x802399 <runtime_b+0x1>
    4e74:	a0 93 9a 23 	sts	0x239A, r26	; 0x80239a <runtime_b+0x2>
    4e78:	b0 93 9b 23 	sts	0x239B, r27	; 0x80239b <runtime_b+0x3>
						Sollwert_RPM_b = p_Profile_b->speed_time;
    4e7c:	87 89       	ldd	r24, Z+23	; 0x17
    4e7e:	90 8d       	ldd	r25, Z+24	; 0x18
    4e80:	80 93 1f 21 	sts	0x211F, r24	; 0x80211f <Sollwert_RPM_b>
    4e84:	90 93 20 21 	sts	0x2120, r25	; 0x802120 <Sollwert_RPM_b+0x1>
						p_Profile_b->speedup = false;
    4e88:	15 82       	std	Z+5, r1	; 0x05
						p_Profile_b->slowdown_switch = true;
    4e8a:	81 e0       	ldi	r24, 0x01	; 1
    4e8c:	86 83       	std	Z+6, r24	; 0x06
						p_Profile_b->slowdown = false;
    4e8e:	14 82       	std	Z+4, r1	; 0x04
						p_Profile_b->switchoff = false;
    4e90:	13 82       	std	Z+3, r1	; 0x03
						cli();
    4e92:	f8 94       	cli
						next_change_b = Unixtimestamp + p_Profile_b->speed_time;
    4e94:	80 91 1e 24 	lds	r24, 0x241E	; 0x80241e <Unixtimestamp>
    4e98:	90 91 1f 24 	lds	r25, 0x241F	; 0x80241f <Unixtimestamp+0x1>
    4e9c:	a0 91 20 24 	lds	r26, 0x2420	; 0x802420 <Unixtimestamp+0x2>
    4ea0:	b0 91 21 24 	lds	r27, 0x2421	; 0x802421 <Unixtimestamp+0x3>
    4ea4:	e0 91 0b 21 	lds	r30, 0x210B	; 0x80210b <p_Profile_b>
    4ea8:	f0 91 0c 21 	lds	r31, 0x210C	; 0x80210c <p_Profile_b+0x1>
    4eac:	47 89       	ldd	r20, Z+23	; 0x17
    4eae:	50 8d       	ldd	r21, Z+24	; 0x18
    4eb0:	61 8d       	ldd	r22, Z+25	; 0x19
    4eb2:	72 8d       	ldd	r23, Z+26	; 0x1a
    4eb4:	84 0f       	add	r24, r20
    4eb6:	95 1f       	adc	r25, r21
    4eb8:	a6 1f       	adc	r26, r22
    4eba:	b7 1f       	adc	r27, r23
    4ebc:	8a 87       	std	Y+10, r24	; 0x0a
    4ebe:	9b 87       	std	Y+11, r25	; 0x0b
    4ec0:	ac 87       	std	Y+12, r26	; 0x0c
    4ec2:	bd 87       	std	Y+13, r27	; 0x0d
						sei();
    4ec4:	78 94       	sei
						
						
						
					}
					if(p_Profile_b->slowdown_switch)
    4ec6:	e0 91 0b 21 	lds	r30, 0x210B	; 0x80210b <p_Profile_b>
    4eca:	f0 91 0c 21 	lds	r31, 0x210C	; 0x80210c <p_Profile_b+0x1>
    4ece:	86 81       	ldd	r24, Z+6	; 0x06
    4ed0:	88 23       	and	r24, r24
    4ed2:	09 f4       	brne	.+2      	; 0x4ed6 <main+0xdd0>
    4ed4:	6d c0       	rjmp	.+218    	; 0x4fb0 <main+0xeaa>
					{
						Sollwert_RPM_b = p_Profile_b->speed_slow;
    4ed6:	87 81       	ldd	r24, Z+7	; 0x07
    4ed8:	90 85       	ldd	r25, Z+8	; 0x08
    4eda:	80 93 1f 21 	sts	0x211F, r24	; 0x80211f <Sollwert_RPM_b>
    4ede:	90 93 20 21 	sts	0x2120, r25	; 0x802120 <Sollwert_RPM_b+0x1>
						runtime_b += p_Profile_b->time_slow;
    4ee2:	43 89       	ldd	r20, Z+19	; 0x13
    4ee4:	54 89       	ldd	r21, Z+20	; 0x14
    4ee6:	65 89       	ldd	r22, Z+21	; 0x15
    4ee8:	76 89       	ldd	r23, Z+22	; 0x16
    4eea:	80 91 98 23 	lds	r24, 0x2398	; 0x802398 <runtime_b>
    4eee:	90 91 99 23 	lds	r25, 0x2399	; 0x802399 <runtime_b+0x1>
    4ef2:	a0 91 9a 23 	lds	r26, 0x239A	; 0x80239a <runtime_b+0x2>
    4ef6:	b0 91 9b 23 	lds	r27, 0x239B	; 0x80239b <runtime_b+0x3>
    4efa:	84 0f       	add	r24, r20
    4efc:	95 1f       	adc	r25, r21
    4efe:	a6 1f       	adc	r26, r22
    4f00:	b7 1f       	adc	r27, r23
    4f02:	80 93 98 23 	sts	0x2398, r24	; 0x802398 <runtime_b>
    4f06:	90 93 99 23 	sts	0x2399, r25	; 0x802399 <runtime_b+0x1>
    4f0a:	a0 93 9a 23 	sts	0x239A, r26	; 0x80239a <runtime_b+0x2>
    4f0e:	b0 93 9b 23 	sts	0x239B, r27	; 0x80239b <runtime_b+0x3>
						uint32_t time_b_remaining = p_Profile_b->total_time - runtime_b;
    4f12:	07 85       	ldd	r16, Z+15	; 0x0f
    4f14:	10 89       	ldd	r17, Z+16	; 0x10
    4f16:	21 89       	ldd	r18, Z+17	; 0x11
    4f18:	32 89       	ldd	r19, Z+18	; 0x12
    4f1a:	08 1b       	sub	r16, r24
    4f1c:	19 0b       	sbc	r17, r25
    4f1e:	2a 0b       	sbc	r18, r26
    4f20:	3b 0b       	sbc	r19, r27
    4f22:	d9 01       	movw	r26, r18
    4f24:	c8 01       	movw	r24, r16
						if(time_b_remaining > (p_Profile_b->speed_time+p_Profile_b->time_slow))
    4f26:	07 89       	ldd	r16, Z+23	; 0x17
    4f28:	10 8d       	ldd	r17, Z+24	; 0x18
    4f2a:	21 8d       	ldd	r18, Z+25	; 0x19
    4f2c:	32 8d       	ldd	r19, Z+26	; 0x1a
    4f2e:	40 0f       	add	r20, r16
    4f30:	51 1f       	adc	r21, r17
    4f32:	62 1f       	adc	r22, r18
    4f34:	73 1f       	adc	r23, r19
    4f36:	48 17       	cp	r20, r24
    4f38:	59 07       	cpc	r21, r25
    4f3a:	6a 07       	cpc	r22, r26
    4f3c:	7b 07       	cpc	r23, r27
    4f3e:	18 f5       	brcc	.+70     	; 0x4f86 <main+0xe80>
						{
							cli();
    4f40:	f8 94       	cli
							next_change_b = Unixtimestamp + p_Profile_b->time_slow;
    4f42:	80 91 1e 24 	lds	r24, 0x241E	; 0x80241e <Unixtimestamp>
    4f46:	90 91 1f 24 	lds	r25, 0x241F	; 0x80241f <Unixtimestamp+0x1>
    4f4a:	a0 91 20 24 	lds	r26, 0x2420	; 0x802420 <Unixtimestamp+0x2>
    4f4e:	b0 91 21 24 	lds	r27, 0x2421	; 0x802421 <Unixtimestamp+0x3>
    4f52:	e0 91 0b 21 	lds	r30, 0x210B	; 0x80210b <p_Profile_b>
    4f56:	f0 91 0c 21 	lds	r31, 0x210C	; 0x80210c <p_Profile_b+0x1>
    4f5a:	43 89       	ldd	r20, Z+19	; 0x13
    4f5c:	54 89       	ldd	r21, Z+20	; 0x14
    4f5e:	65 89       	ldd	r22, Z+21	; 0x15
    4f60:	76 89       	ldd	r23, Z+22	; 0x16
    4f62:	84 0f       	add	r24, r20
    4f64:	95 1f       	adc	r25, r21
    4f66:	a6 1f       	adc	r26, r22
    4f68:	b7 1f       	adc	r27, r23
    4f6a:	8a 87       	std	Y+10, r24	; 0x0a
    4f6c:	9b 87       	std	Y+11, r25	; 0x0b
    4f6e:	ac 87       	std	Y+12, r26	; 0x0c
    4f70:	bd 87       	std	Y+13, r27	; 0x0d
							sei();
    4f72:	78 94       	sei
							p_Profile_b->speedup = true;
    4f74:	e0 91 0b 21 	lds	r30, 0x210B	; 0x80210b <p_Profile_b>
    4f78:	f0 91 0c 21 	lds	r31, 0x210C	; 0x80210c <p_Profile_b+0x1>
    4f7c:	81 e0       	ldi	r24, 0x01	; 1
    4f7e:	85 83       	std	Z+5, r24	; 0x05
							p_Profile_b->slowdown = false;
    4f80:	14 82       	std	Z+4, r1	; 0x04
							p_Profile_b->switchoff = false;
    4f82:	13 82       	std	Z+3, r1	; 0x03
    4f84:	7b c0       	rjmp	.+246    	; 0x507c <main+0xf76>
							
						}
						else
						{
							next_change_b = Unixtimestamp + time_b_remaining;
    4f86:	40 91 1e 24 	lds	r20, 0x241E	; 0x80241e <Unixtimestamp>
    4f8a:	50 91 1f 24 	lds	r21, 0x241F	; 0x80241f <Unixtimestamp+0x1>
    4f8e:	60 91 20 24 	lds	r22, 0x2420	; 0x802420 <Unixtimestamp+0x2>
    4f92:	70 91 21 24 	lds	r23, 0x2421	; 0x802421 <Unixtimestamp+0x3>
    4f96:	84 0f       	add	r24, r20
    4f98:	95 1f       	adc	r25, r21
    4f9a:	a6 1f       	adc	r26, r22
    4f9c:	b7 1f       	adc	r27, r23
    4f9e:	8a 87       	std	Y+10, r24	; 0x0a
    4fa0:	9b 87       	std	Y+11, r25	; 0x0b
    4fa2:	ac 87       	std	Y+12, r26	; 0x0c
    4fa4:	bd 87       	std	Y+13, r27	; 0x0d
							p_Profile_b->slowdown = false;
    4fa6:	14 82       	std	Z+4, r1	; 0x04
							p_Profile_b->switchoff = true;
    4fa8:	81 e0       	ldi	r24, 0x01	; 1
    4faa:	83 83       	std	Z+3, r24	; 0x03
							p_Profile_b->speedup = false;
    4fac:	15 82       	std	Z+5, r1	; 0x05
    4fae:	66 c0       	rjmp	.+204    	; 0x507c <main+0xf76>
						}
						
					}
					
					if(p_Profile_b->slowdown)
    4fb0:	84 81       	ldd	r24, Z+4	; 0x04
    4fb2:	88 23       	and	r24, r24
    4fb4:	09 f4       	brne	.+2      	; 0x4fb8 <main+0xeb2>
    4fb6:	62 c0       	rjmp	.+196    	; 0x507c <main+0xf76>
					{
						Sollwert_RPM_b = p_Profile_b->speed_slow;
    4fb8:	87 81       	ldd	r24, Z+7	; 0x07
    4fba:	90 85       	ldd	r25, Z+8	; 0x08
    4fbc:	80 93 1f 21 	sts	0x211F, r24	; 0x80211f <Sollwert_RPM_b>
    4fc0:	90 93 20 21 	sts	0x2120, r25	; 0x802120 <Sollwert_RPM_b+0x1>
						runtime_b = p_Profile_b->time_fast_init;
    4fc4:	43 85       	ldd	r20, Z+11	; 0x0b
    4fc6:	54 85       	ldd	r21, Z+12	; 0x0c
    4fc8:	65 85       	ldd	r22, Z+13	; 0x0d
    4fca:	76 85       	ldd	r23, Z+14	; 0x0e
    4fcc:	40 93 98 23 	sts	0x2398, r20	; 0x802398 <runtime_b>
    4fd0:	50 93 99 23 	sts	0x2399, r21	; 0x802399 <runtime_b+0x1>
    4fd4:	60 93 9a 23 	sts	0x239A, r22	; 0x80239a <runtime_b+0x2>
    4fd8:	70 93 9b 23 	sts	0x239B, r23	; 0x80239b <runtime_b+0x3>
						uint32_t time_b_remaining = p_Profile_b->total_time - runtime_b;
    4fdc:	87 85       	ldd	r24, Z+15	; 0x0f
    4fde:	90 89       	ldd	r25, Z+16	; 0x10
    4fe0:	a1 89       	ldd	r26, Z+17	; 0x11
    4fe2:	b2 89       	ldd	r27, Z+18	; 0x12
    4fe4:	84 1b       	sub	r24, r20
    4fe6:	95 0b       	sbc	r25, r21
    4fe8:	a6 0b       	sbc	r26, r22
    4fea:	b7 0b       	sbc	r27, r23
						if(time_b_remaining > (p_Profile_b->speed_time+p_Profile_b->time_slow))
    4fec:	07 89       	ldd	r16, Z+23	; 0x17
    4fee:	10 8d       	ldd	r17, Z+24	; 0x18
    4ff0:	21 8d       	ldd	r18, Z+25	; 0x19
    4ff2:	32 8d       	ldd	r19, Z+26	; 0x1a
    4ff4:	43 89       	ldd	r20, Z+19	; 0x13
    4ff6:	54 89       	ldd	r21, Z+20	; 0x14
    4ff8:	65 89       	ldd	r22, Z+21	; 0x15
    4ffa:	76 89       	ldd	r23, Z+22	; 0x16
    4ffc:	40 0f       	add	r20, r16
    4ffe:	51 1f       	adc	r21, r17
    5000:	62 1f       	adc	r22, r18
    5002:	73 1f       	adc	r23, r19
    5004:	48 17       	cp	r20, r24
    5006:	59 07       	cpc	r21, r25
    5008:	6a 07       	cpc	r22, r26
    500a:	7b 07       	cpc	r23, r27
    500c:	18 f5       	brcc	.+70     	; 0x5054 <main+0xf4e>
						{
							cli();
    500e:	f8 94       	cli
							next_change_b = Unixtimestamp + p_Profile_b->time_slow;
    5010:	80 91 1e 24 	lds	r24, 0x241E	; 0x80241e <Unixtimestamp>
    5014:	90 91 1f 24 	lds	r25, 0x241F	; 0x80241f <Unixtimestamp+0x1>
    5018:	a0 91 20 24 	lds	r26, 0x2420	; 0x802420 <Unixtimestamp+0x2>
    501c:	b0 91 21 24 	lds	r27, 0x2421	; 0x802421 <Unixtimestamp+0x3>
    5020:	e0 91 0b 21 	lds	r30, 0x210B	; 0x80210b <p_Profile_b>
    5024:	f0 91 0c 21 	lds	r31, 0x210C	; 0x80210c <p_Profile_b+0x1>
    5028:	43 89       	ldd	r20, Z+19	; 0x13
    502a:	54 89       	ldd	r21, Z+20	; 0x14
    502c:	65 89       	ldd	r22, Z+21	; 0x15
    502e:	76 89       	ldd	r23, Z+22	; 0x16
    5030:	84 0f       	add	r24, r20
    5032:	95 1f       	adc	r25, r21
    5034:	a6 1f       	adc	r26, r22
    5036:	b7 1f       	adc	r27, r23
    5038:	8a 87       	std	Y+10, r24	; 0x0a
    503a:	9b 87       	std	Y+11, r25	; 0x0b
    503c:	ac 87       	std	Y+12, r26	; 0x0c
    503e:	bd 87       	std	Y+13, r27	; 0x0d
							sei();
    5040:	78 94       	sei
							p_Profile_b->speedup = true;
    5042:	e0 91 0b 21 	lds	r30, 0x210B	; 0x80210b <p_Profile_b>
    5046:	f0 91 0c 21 	lds	r31, 0x210C	; 0x80210c <p_Profile_b+0x1>
    504a:	81 e0       	ldi	r24, 0x01	; 1
    504c:	85 83       	std	Z+5, r24	; 0x05
							p_Profile_b->slowdown = false;
    504e:	14 82       	std	Z+4, r1	; 0x04
							p_Profile_b->switchoff = false;
    5050:	13 82       	std	Z+3, r1	; 0x03
    5052:	14 c0       	rjmp	.+40     	; 0x507c <main+0xf76>
							
						}
						else
						{
							next_change_b = Unixtimestamp + time_b_remaining;
    5054:	40 91 1e 24 	lds	r20, 0x241E	; 0x80241e <Unixtimestamp>
    5058:	50 91 1f 24 	lds	r21, 0x241F	; 0x80241f <Unixtimestamp+0x1>
    505c:	60 91 20 24 	lds	r22, 0x2420	; 0x802420 <Unixtimestamp+0x2>
    5060:	70 91 21 24 	lds	r23, 0x2421	; 0x802421 <Unixtimestamp+0x3>
    5064:	84 0f       	add	r24, r20
    5066:	95 1f       	adc	r25, r21
    5068:	a6 1f       	adc	r26, r22
    506a:	b7 1f       	adc	r27, r23
    506c:	8a 87       	std	Y+10, r24	; 0x0a
    506e:	9b 87       	std	Y+11, r25	; 0x0b
    5070:	ac 87       	std	Y+12, r26	; 0x0c
    5072:	bd 87       	std	Y+13, r27	; 0x0d
							p_Profile_b->slowdown = false;
    5074:	14 82       	std	Z+4, r1	; 0x04
							p_Profile_b->switchoff = true;
    5076:	81 e0       	ldi	r24, 0x01	; 1
    5078:	83 83       	std	Z+3, r24	; 0x03
							p_Profile_b->speedup = false;
    507a:	15 82       	std	Z+5, r1	; 0x05
		}
		
		//Show display values
		
		//show live values when not in settings
		if(!show_menu)
    507c:	80 91 a3 23 	lds	r24, 0x23A3	; 0x8023a3 <show_menu>
    5080:	81 11       	cpse	r24, r1
    5082:	2b c7       	rjmp	.+3670   	; 0x5eda <main+0x1dd4>
		{
			if(recalc_time)
    5084:	80 91 11 24 	lds	r24, 0x2411	; 0x802411 <recalc_time>
    5088:	88 23       	and	r24, r24
    508a:	09 f4       	brne	.+2      	; 0x508e <main+0xf88>
    508c:	88 c0       	rjmp	.+272    	; 0x519e <main+0x1098>
			{
				recalc_time = false;
    508e:	10 92 11 24 	sts	0x2411, r1	; 0x802411 <recalc_time>
				if(!running_a || hand_a)
    5092:	00 91 10 24 	lds	r16, 0x2410	; 0x802410 <running_a>
    5096:	00 23       	and	r16, r16
    5098:	21 f0       	breq	.+8      	; 0x50a2 <main+0xf9c>
    509a:	80 91 0e 24 	lds	r24, 0x240E	; 0x80240e <hand_a>
    509e:	88 23       	and	r24, r24
    50a0:	b1 f0       	breq	.+44     	; 0x50ce <main+0xfc8>
				{
					next_change_a++;
    50a2:	8a 81       	ldd	r24, Y+2	; 0x02
    50a4:	9b 81       	ldd	r25, Y+3	; 0x03
    50a6:	ac 81       	ldd	r26, Y+4	; 0x04
    50a8:	bd 81       	ldd	r27, Y+5	; 0x05
    50aa:	01 96       	adiw	r24, 0x01	; 1
    50ac:	a1 1d       	adc	r26, r1
    50ae:	b1 1d       	adc	r27, r1
    50b0:	8a 83       	std	Y+2, r24	; 0x02
    50b2:	9b 83       	std	Y+3, r25	; 0x03
    50b4:	ac 83       	std	Y+4, r26	; 0x04
    50b6:	bd 83       	std	Y+5, r27	; 0x05
					end_time_a++;
    50b8:	8e 81       	ldd	r24, Y+6	; 0x06
    50ba:	9f 81       	ldd	r25, Y+7	; 0x07
    50bc:	a8 85       	ldd	r26, Y+8	; 0x08
    50be:	b9 85       	ldd	r27, Y+9	; 0x09
    50c0:	01 96       	adiw	r24, 0x01	; 1
    50c2:	a1 1d       	adc	r26, r1
    50c4:	b1 1d       	adc	r27, r1
    50c6:	8e 83       	std	Y+6, r24	; 0x06
    50c8:	9f 83       	std	Y+7, r25	; 0x07
    50ca:	a8 87       	std	Y+8, r26	; 0x08
    50cc:	b9 87       	std	Y+9, r27	; 0x09
				}
				if(!running_b || hand_b)
    50ce:	80 91 0f 24 	lds	r24, 0x240F	; 0x80240f <running_b>
    50d2:	88 23       	and	r24, r24
    50d4:	21 f0       	breq	.+8      	; 0x50de <main+0xfd8>
    50d6:	80 91 0d 24 	lds	r24, 0x240D	; 0x80240d <hand_b>
    50da:	88 23       	and	r24, r24
    50dc:	b1 f0       	breq	.+44     	; 0x510a <main+0x1004>
				{
					next_change_b++;
    50de:	8a 85       	ldd	r24, Y+10	; 0x0a
    50e0:	9b 85       	ldd	r25, Y+11	; 0x0b
    50e2:	ac 85       	ldd	r26, Y+12	; 0x0c
    50e4:	bd 85       	ldd	r27, Y+13	; 0x0d
    50e6:	01 96       	adiw	r24, 0x01	; 1
    50e8:	a1 1d       	adc	r26, r1
    50ea:	b1 1d       	adc	r27, r1
    50ec:	8a 87       	std	Y+10, r24	; 0x0a
    50ee:	9b 87       	std	Y+11, r25	; 0x0b
    50f0:	ac 87       	std	Y+12, r26	; 0x0c
    50f2:	bd 87       	std	Y+13, r27	; 0x0d
					end_time_b++;
    50f4:	8e 85       	ldd	r24, Y+14	; 0x0e
    50f6:	9f 85       	ldd	r25, Y+15	; 0x0f
    50f8:	a8 89       	ldd	r26, Y+16	; 0x10
    50fa:	b9 89       	ldd	r27, Y+17	; 0x11
    50fc:	01 96       	adiw	r24, 0x01	; 1
    50fe:	a1 1d       	adc	r26, r1
    5100:	b1 1d       	adc	r27, r1
    5102:	8e 87       	std	Y+14, r24	; 0x0e
    5104:	9f 87       	std	Y+15, r25	; 0x0f
    5106:	a8 8b       	std	Y+16, r26	; 0x10
    5108:	b9 8b       	std	Y+17, r27	; 0x11
				}
				
				display_time(&Unixtimestamp,&next_change_a,left,5,(running_a  && !hand_a),end_a);
    510a:	e0 90 97 23 	lds	r14, 0x2397	; 0x802397 <end_a>
    510e:	00 23       	and	r16, r16
    5110:	21 f0       	breq	.+8      	; 0x511a <main+0x1014>
    5112:	00 91 0e 24 	lds	r16, 0x240E	; 0x80240e <hand_a>
    5116:	81 e0       	ldi	r24, 0x01	; 1
    5118:	08 27       	eor	r16, r24
    511a:	25 e0       	ldi	r18, 0x05	; 5
    511c:	41 e0       	ldi	r20, 0x01	; 1
    511e:	be 01       	movw	r22, r28
    5120:	6e 5f       	subi	r22, 0xFE	; 254
    5122:	7f 4f       	sbci	r23, 0xFF	; 255
    5124:	8e e1       	ldi	r24, 0x1E	; 30
    5126:	94 e2       	ldi	r25, 0x24	; 36
    5128:	0e 94 2e 14 	call	0x285c	; 0x285c <_Z12display_timePVmS0_hhbb>
				display_time(&Unixtimestamp,&end_time_a,left,6,(running_a  && !hand_a),end_a);
    512c:	e0 90 97 23 	lds	r14, 0x2397	; 0x802397 <end_a>
    5130:	00 91 10 24 	lds	r16, 0x2410	; 0x802410 <running_a>
    5134:	00 23       	and	r16, r16
    5136:	21 f0       	breq	.+8      	; 0x5140 <main+0x103a>
    5138:	00 91 0e 24 	lds	r16, 0x240E	; 0x80240e <hand_a>
    513c:	81 e0       	ldi	r24, 0x01	; 1
    513e:	08 27       	eor	r16, r24
    5140:	26 e0       	ldi	r18, 0x06	; 6
    5142:	41 e0       	ldi	r20, 0x01	; 1
    5144:	be 01       	movw	r22, r28
    5146:	6a 5f       	subi	r22, 0xFA	; 250
    5148:	7f 4f       	sbci	r23, 0xFF	; 255
    514a:	8e e1       	ldi	r24, 0x1E	; 30
    514c:	94 e2       	ldi	r25, 0x24	; 36
    514e:	0e 94 2e 14 	call	0x285c	; 0x285c <_Z12display_timePVmS0_hhbb>
				display_time(&Unixtimestamp,&next_change_b,right,5,(running_b  && !hand_b),end_b);
    5152:	e0 90 96 23 	lds	r14, 0x2396	; 0x802396 <end_b>
    5156:	00 91 0f 24 	lds	r16, 0x240F	; 0x80240f <running_b>
    515a:	00 23       	and	r16, r16
    515c:	21 f0       	breq	.+8      	; 0x5166 <main+0x1060>
    515e:	00 91 0d 24 	lds	r16, 0x240D	; 0x80240d <hand_b>
    5162:	81 e0       	ldi	r24, 0x01	; 1
    5164:	08 27       	eor	r16, r24
    5166:	25 e0       	ldi	r18, 0x05	; 5
    5168:	4c e0       	ldi	r20, 0x0C	; 12
    516a:	be 01       	movw	r22, r28
    516c:	66 5f       	subi	r22, 0xF6	; 246
    516e:	7f 4f       	sbci	r23, 0xFF	; 255
    5170:	8e e1       	ldi	r24, 0x1E	; 30
    5172:	94 e2       	ldi	r25, 0x24	; 36
    5174:	0e 94 2e 14 	call	0x285c	; 0x285c <_Z12display_timePVmS0_hhbb>
				display_time(&Unixtimestamp,&end_time_b,right,6,(running_b  && !hand_b),end_b);
    5178:	e0 90 96 23 	lds	r14, 0x2396	; 0x802396 <end_b>
    517c:	00 91 0f 24 	lds	r16, 0x240F	; 0x80240f <running_b>
    5180:	00 23       	and	r16, r16
    5182:	21 f0       	breq	.+8      	; 0x518c <main+0x1086>
    5184:	00 91 0d 24 	lds	r16, 0x240D	; 0x80240d <hand_b>
    5188:	81 e0       	ldi	r24, 0x01	; 1
    518a:	08 27       	eor	r16, r24
    518c:	26 e0       	ldi	r18, 0x06	; 6
    518e:	4c e0       	ldi	r20, 0x0C	; 12
    5190:	be 01       	movw	r22, r28
    5192:	62 5f       	subi	r22, 0xF2	; 242
    5194:	7f 4f       	sbci	r23, 0xFF	; 255
    5196:	8e e1       	ldi	r24, 0x1E	; 30
    5198:	94 e2       	ldi	r25, 0x24	; 36
    519a:	0e 94 2e 14 	call	0x285c	; 0x285c <_Z12display_timePVmS0_hhbb>
			}
			
			
			if(update_display)
    519e:	cc 20       	and	r12, r12
    51a0:	09 f4       	brne	.+2      	; 0x51a4 <main+0x109e>
    51a2:	ad c9       	rjmp	.-3238   	; 0x44fe <main+0x3f8>
			{
				
				if(position_main == 255)
    51a4:	26 96       	adiw	r28, 0x06	; 6
    51a6:	1f ad       	ldd	r17, Y+63	; 0x3f
    51a8:	26 97       	sbiw	r28, 0x06	; 6
    51aa:	1f 3f       	cpi	r17, 0xFF	; 255
    51ac:	21 f4       	brne	.+8      	; 0x51b6 <main+0x10b0>
				position_main = 4;
    51ae:	24 e0       	ldi	r18, 0x04	; 4
    51b0:	26 96       	adiw	r28, 0x06	; 6
    51b2:	2f af       	std	Y+63, r18	; 0x3f
    51b4:	26 97       	sbiw	r28, 0x06	; 6
				position_main %= 5;
    51b6:	8d ec       	ldi	r24, 0xCD	; 205
    51b8:	26 96       	adiw	r28, 0x06	; 6
    51ba:	3f ad       	ldd	r19, Y+63	; 0x3f
    51bc:	26 97       	sbiw	r28, 0x06	; 6
    51be:	38 9f       	mul	r19, r24
    51c0:	81 2d       	mov	r24, r1
    51c2:	11 24       	eor	r1, r1
    51c4:	86 95       	lsr	r24
    51c6:	86 95       	lsr	r24
    51c8:	98 2f       	mov	r25, r24
    51ca:	99 0f       	add	r25, r25
    51cc:	99 0f       	add	r25, r25
    51ce:	89 0f       	add	r24, r25
    51d0:	38 1b       	sub	r19, r24
    51d2:	26 96       	adiw	r28, 0x06	; 6
    51d4:	3f af       	std	Y+63, r19	; 0x3f
    51d6:	26 97       	sbiw	r28, 0x06	; 6
				lcd_gotoxy(left,0,port_expander_present);
    51d8:	40 91 25 23 	lds	r20, 0x2325	; 0x802325 <port_expander_present>
    51dc:	60 e0       	ldi	r22, 0x00	; 0
    51de:	81 e0       	ldi	r24, 0x01	; 1
    51e0:	0e 94 0f 06 	call	0xc1e	; 0xc1e <_Z10lcd_gotoxyhhb>
				if(PORTB.IN & PIN2_bm)
    51e4:	d1 01       	movw	r26, r2
    51e6:	18 96       	adiw	r26, 0x08	; 8
    51e8:	8c 91       	ld	r24, X
    51ea:	82 ff       	sbrs	r24, 2
    51ec:	0a c0       	rjmp	.+20     	; 0x5202 <main+0x10fc>
				strcpy(Str1,"120 mm") ;
    51ee:	87 e0       	ldi	r24, 0x07	; 7
    51f0:	e6 e0       	ldi	r30, 0x06	; 6
    51f2:	f3 e2       	ldi	r31, 0x23	; 35
    51f4:	de 01       	movw	r26, r28
    51f6:	52 96       	adiw	r26, 0x12	; 18
    51f8:	01 90       	ld	r0, Z+
    51fa:	0d 92       	st	X+, r0
    51fc:	8a 95       	dec	r24
    51fe:	e1 f7       	brne	.-8      	; 0x51f8 <main+0x10f2>
    5200:	09 c0       	rjmp	.+18     	; 0x5214 <main+0x110e>
				else
				strcpy(Str1,"140 mm") ;
    5202:	87 e0       	ldi	r24, 0x07	; 7
    5204:	ed e0       	ldi	r30, 0x0D	; 13
    5206:	f3 e2       	ldi	r31, 0x23	; 35
    5208:	de 01       	movw	r26, r28
    520a:	52 96       	adiw	r26, 0x12	; 18
    520c:	01 90       	ld	r0, Z+
    520e:	0d 92       	st	X+, r0
    5210:	8a 95       	dec	r24
    5212:	e1 f7       	brne	.-8      	; 0x520c <main+0x1106>
				lcd_puts(Str1);
    5214:	ce 01       	movw	r24, r28
    5216:	42 96       	adiw	r24, 0x12	; 18
    5218:	0e 94 9d 0a 	call	0x153a	; 0x153a <_Z8lcd_putsPKc>
				lcd_gotoxy(right,0,port_expander_present);
    521c:	40 91 25 23 	lds	r20, 0x2325	; 0x802325 <port_expander_present>
    5220:	60 e0       	ldi	r22, 0x00	; 0
    5222:	8c e0       	ldi	r24, 0x0C	; 12
    5224:	0e 94 0f 06 	call	0xc1e	; 0xc1e <_Z10lcd_gotoxyhhb>
				if(PORTB.IN & PIN1_bm)
    5228:	f1 01       	movw	r30, r2
    522a:	80 85       	ldd	r24, Z+8	; 0x08
    522c:	81 ff       	sbrs	r24, 1
    522e:	0a c0       	rjmp	.+20     	; 0x5244 <main+0x113e>
				strcpy(Str1,"120 mm") ;
    5230:	87 e0       	ldi	r24, 0x07	; 7
    5232:	e6 e0       	ldi	r30, 0x06	; 6
    5234:	f3 e2       	ldi	r31, 0x23	; 35
    5236:	de 01       	movw	r26, r28
    5238:	52 96       	adiw	r26, 0x12	; 18
    523a:	01 90       	ld	r0, Z+
    523c:	0d 92       	st	X+, r0
    523e:	8a 95       	dec	r24
    5240:	e1 f7       	brne	.-8      	; 0x523a <main+0x1134>
    5242:	09 c0       	rjmp	.+18     	; 0x5256 <main+0x1150>
				else
				strcpy(Str1,"140 mm") ;
    5244:	87 e0       	ldi	r24, 0x07	; 7
    5246:	ed e0       	ldi	r30, 0x0D	; 13
    5248:	f3 e2       	ldi	r31, 0x23	; 35
    524a:	de 01       	movw	r26, r28
    524c:	52 96       	adiw	r26, 0x12	; 18
    524e:	01 90       	ld	r0, Z+
    5250:	0d 92       	st	X+, r0
    5252:	8a 95       	dec	r24
    5254:	e1 f7       	brne	.-8      	; 0x524e <main+0x1148>
				lcd_puts(Str1);
    5256:	ce 01       	movw	r24, r28
    5258:	42 96       	adiw	r24, 0x12	; 18
    525a:	0e 94 9d 0a 	call	0x153a	; 0x153a <_Z8lcd_putsPKc>
				lcd_gotoxy(0,1,port_expander_present);
    525e:	40 91 25 23 	lds	r20, 0x2325	; 0x802325 <port_expander_present>
    5262:	61 e0       	ldi	r22, 0x01	; 1
    5264:	80 e0       	ldi	r24, 0x00	; 0
    5266:	0e 94 0f 06 	call	0xc1e	; 0xc1e <_Z10lcd_gotoxyhhb>
				uint16_t pwm_a = 0x3E8 - TCD0.CCA;
    526a:	e0 e0       	ldi	r30, 0x00	; 0
    526c:	f9 e0       	ldi	r31, 0x09	; 9
    526e:	80 a5       	ldd	r24, Z+40	; 0x28
    5270:	91 a5       	ldd	r25, Z+41	; 0x29
    5272:	08 ee       	ldi	r16, 0xE8	; 232
    5274:	13 e0       	ldi	r17, 0x03	; 3
    5276:	78 01       	movw	r14, r16
    5278:	e8 1a       	sub	r14, r24
    527a:	f9 0a       	sbc	r15, r25
				uint16_t pwm_b = 0x3E8 - TCD0.CCB;
    527c:	82 a5       	ldd	r24, Z+42	; 0x2a
    527e:	93 a5       	ldd	r25, Z+43	; 0x2b
    5280:	08 1b       	sub	r16, r24
    5282:	19 0b       	sbc	r17, r25
				char int_buffer[4];
				update_display = false;
				if((avg_voltage_a/1000) <10 )
    5284:	24 96       	adiw	r28, 0x04	; 4
    5286:	2c ad       	ldd	r18, Y+60	; 0x3c
    5288:	3d ad       	ldd	r19, Y+61	; 0x3d
    528a:	4e ad       	ldd	r20, Y+62	; 0x3e
    528c:	5f ad       	ldd	r21, Y+63	; 0x3f
    528e:	24 97       	sbiw	r28, 0x04	; 4
    5290:	20 31       	cpi	r18, 0x10	; 16
    5292:	37 42       	sbci	r19, 0x27	; 39
    5294:	41 05       	cpc	r20, r1
    5296:	51 05       	cpc	r21, r1
    5298:	48 f5       	brcc	.+82     	; 0x52ec <main+0x11e6>
				{
					strcpy(text_buffer," ");
    529a:	80 e2       	ldi	r24, 0x20	; 32
    529c:	90 e0       	ldi	r25, 0x00	; 0
    529e:	d4 01       	movw	r26, r8
    52a0:	8d 93       	st	X+, r24
    52a2:	9c 93       	st	X, r25
					utoa(calc_voltage(avg_voltage_a)/1000,int_buffer,10);
    52a4:	22 96       	adiw	r28, 0x02	; 2
    52a6:	8e ad       	ldd	r24, Y+62	; 0x3e
    52a8:	9f ad       	ldd	r25, Y+63	; 0x3f
    52aa:	22 97       	sbiw	r28, 0x02	; 2
    52ac:	0e 94 61 16 	call	0x2cc2	; 0x2cc2 <_Z12calc_voltagej>
    52b0:	9c 01       	movw	r18, r24
    52b2:	36 95       	lsr	r19
    52b4:	27 95       	ror	r18
    52b6:	36 95       	lsr	r19
    52b8:	27 95       	ror	r18
    52ba:	36 95       	lsr	r19
    52bc:	27 95       	ror	r18
    52be:	a5 ec       	ldi	r26, 0xC5	; 197
    52c0:	b0 e2       	ldi	r27, 0x20	; 32
    52c2:	0e 94 59 3b 	call	0x76b2	; 0x76b2 <__umulhisi3>
    52c6:	4a e0       	ldi	r20, 0x0A	; 10
    52c8:	be 01       	movw	r22, r28
    52ca:	67 5d       	subi	r22, 0xD7	; 215
    52cc:	7f 4f       	sbci	r23, 0xFF	; 255
    52ce:	92 95       	swap	r25
    52d0:	82 95       	swap	r24
    52d2:	8f 70       	andi	r24, 0x0F	; 15
    52d4:	89 27       	eor	r24, r25
    52d6:	9f 70       	andi	r25, 0x0F	; 15
    52d8:	89 27       	eor	r24, r25
    52da:	0e 94 b7 3b 	call	0x776e	; 0x776e <__utoa_ncheck>
					strcat(text_buffer,int_buffer);
    52de:	be 01       	movw	r22, r28
    52e0:	67 5d       	subi	r22, 0xD7	; 215
    52e2:	7f 4f       	sbci	r23, 0xFF	; 255
    52e4:	c4 01       	movw	r24, r8
    52e6:	0e 94 83 3b 	call	0x7706	; 0x7706 <strcat>
    52ea:	1b c0       	rjmp	.+54     	; 0x5322 <main+0x121c>
				}
				else
					utoa(calc_voltage(avg_voltage_a)/1000,text_buffer,10);
    52ec:	22 96       	adiw	r28, 0x02	; 2
    52ee:	8e ad       	ldd	r24, Y+62	; 0x3e
    52f0:	9f ad       	ldd	r25, Y+63	; 0x3f
    52f2:	22 97       	sbiw	r28, 0x02	; 2
    52f4:	0e 94 61 16 	call	0x2cc2	; 0x2cc2 <_Z12calc_voltagej>
    52f8:	9c 01       	movw	r18, r24
    52fa:	36 95       	lsr	r19
    52fc:	27 95       	ror	r18
    52fe:	36 95       	lsr	r19
    5300:	27 95       	ror	r18
    5302:	36 95       	lsr	r19
    5304:	27 95       	ror	r18
    5306:	a5 ec       	ldi	r26, 0xC5	; 197
    5308:	b0 e2       	ldi	r27, 0x20	; 32
    530a:	0e 94 59 3b 	call	0x76b2	; 0x76b2 <__umulhisi3>
    530e:	4a e0       	ldi	r20, 0x0A	; 10
    5310:	b4 01       	movw	r22, r8
    5312:	92 95       	swap	r25
    5314:	82 95       	swap	r24
    5316:	8f 70       	andi	r24, 0x0F	; 15
    5318:	89 27       	eor	r24, r25
    531a:	9f 70       	andi	r25, 0x0F	; 15
    531c:	89 27       	eor	r24, r25
    531e:	0e 94 b7 3b 	call	0x776e	; 0x776e <__utoa_ncheck>
				char helper[] = " V";
    5322:	80 e2       	ldi	r24, 0x20	; 32
    5324:	96 e5       	ldi	r25, 0x56	; 86
    5326:	8d af       	std	Y+61, r24	; 0x3d
    5328:	9e af       	std	Y+62, r25	; 0x3e
    532a:	1f ae       	std	Y+63, r1	; 0x3f
				strcat(text_buffer,",");
    532c:	f4 01       	movw	r30, r8
    532e:	01 90       	ld	r0, Z+
    5330:	00 20       	and	r0, r0
    5332:	e9 f7       	brne	.-6      	; 0x532e <main+0x1228>
    5334:	31 97       	sbiw	r30, 0x01	; 1
    5336:	8c e2       	ldi	r24, 0x2C	; 44
    5338:	90 e0       	ldi	r25, 0x00	; 0
    533a:	80 83       	st	Z, r24
    533c:	91 83       	std	Z+1, r25	; 0x01
				utoa(calc_voltage(avg_voltage_a)%1000,int_buffer,10);
    533e:	22 96       	adiw	r28, 0x02	; 2
    5340:	8e ad       	ldd	r24, Y+62	; 0x3e
    5342:	9f ad       	ldd	r25, Y+63	; 0x3f
    5344:	22 97       	sbiw	r28, 0x02	; 2
    5346:	0e 94 61 16 	call	0x2cc2	; 0x2cc2 <_Z12calc_voltagej>
    534a:	fc 01       	movw	r30, r24
    534c:	9c 01       	movw	r18, r24
    534e:	36 95       	lsr	r19
    5350:	27 95       	ror	r18
    5352:	36 95       	lsr	r19
    5354:	27 95       	ror	r18
    5356:	36 95       	lsr	r19
    5358:	27 95       	ror	r18
    535a:	a5 ec       	ldi	r26, 0xC5	; 197
    535c:	b0 e2       	ldi	r27, 0x20	; 32
    535e:	0e 94 59 3b 	call	0x76b2	; 0x76b2 <__umulhisi3>
    5362:	92 95       	swap	r25
    5364:	82 95       	swap	r24
    5366:	8f 70       	andi	r24, 0x0F	; 15
    5368:	89 27       	eor	r24, r25
    536a:	9f 70       	andi	r25, 0x0F	; 15
    536c:	89 27       	eor	r24, r25
    536e:	48 ee       	ldi	r20, 0xE8	; 232
    5370:	53 e0       	ldi	r21, 0x03	; 3
    5372:	84 9f       	mul	r24, r20
    5374:	90 01       	movw	r18, r0
    5376:	85 9f       	mul	r24, r21
    5378:	30 0d       	add	r19, r0
    537a:	94 9f       	mul	r25, r20
    537c:	30 0d       	add	r19, r0
    537e:	11 24       	eor	r1, r1
    5380:	4a e0       	ldi	r20, 0x0A	; 10
    5382:	be 01       	movw	r22, r28
    5384:	67 5d       	subi	r22, 0xD7	; 215
    5386:	7f 4f       	sbci	r23, 0xFF	; 255
    5388:	cf 01       	movw	r24, r30
    538a:	82 1b       	sub	r24, r18
    538c:	93 0b       	sbc	r25, r19
    538e:	0e 94 b7 3b 	call	0x776e	; 0x776e <__utoa_ncheck>
				strcat(text_buffer,int_buffer);
    5392:	be 01       	movw	r22, r28
    5394:	67 5d       	subi	r22, 0xD7	; 215
    5396:	7f 4f       	sbci	r23, 0xFF	; 255
    5398:	c4 01       	movw	r24, r8
    539a:	0e 94 83 3b 	call	0x7706	; 0x7706 <strcat>
				strcat(text_buffer,helper);
    539e:	be 01       	movw	r22, r28
    53a0:	63 5c       	subi	r22, 0xC3	; 195
    53a2:	7f 4f       	sbci	r23, 0xFF	; 255
    53a4:	c4 01       	movw	r24, r8
    53a6:	0e 94 83 3b 	call	0x7706	; 0x7706 <strcat>
				lcd_puts(text_buffer);
    53aa:	c4 01       	movw	r24, r8
    53ac:	0e 94 9d 0a 	call	0x153a	; 0x153a <_Z8lcd_putsPKc>
				lcd_gotoxy(right,1,port_expander_present);
    53b0:	40 91 25 23 	lds	r20, 0x2325	; 0x802325 <port_expander_present>
    53b4:	61 e0       	ldi	r22, 0x01	; 1
    53b6:	8c e0       	ldi	r24, 0x0C	; 12
    53b8:	0e 94 0f 06 	call	0xc1e	; 0xc1e <_Z10lcd_gotoxyhhb>
				if((avg_voltage_b/1000) < 10 )
    53bc:	b0 e1       	ldi	r27, 0x10	; 16
    53be:	4b 16       	cp	r4, r27
    53c0:	b7 e2       	ldi	r27, 0x27	; 39
    53c2:	5b 06       	cpc	r5, r27
    53c4:	61 04       	cpc	r6, r1
    53c6:	71 04       	cpc	r7, r1
    53c8:	30 f5       	brcc	.+76     	; 0x5416 <main+0x1310>
				{
					strcpy(text_buffer," ");
    53ca:	80 e2       	ldi	r24, 0x20	; 32
    53cc:	90 e0       	ldi	r25, 0x00	; 0
    53ce:	f4 01       	movw	r30, r8
    53d0:	80 83       	st	Z, r24
    53d2:	91 83       	std	Z+1, r25	; 0x01
					utoa(calc_voltage(avg_voltage_b)/1000,int_buffer,10);
    53d4:	c2 01       	movw	r24, r4
    53d6:	0e 94 61 16 	call	0x2cc2	; 0x2cc2 <_Z12calc_voltagej>
    53da:	9c 01       	movw	r18, r24
    53dc:	36 95       	lsr	r19
    53de:	27 95       	ror	r18
    53e0:	36 95       	lsr	r19
    53e2:	27 95       	ror	r18
    53e4:	36 95       	lsr	r19
    53e6:	27 95       	ror	r18
    53e8:	a5 ec       	ldi	r26, 0xC5	; 197
    53ea:	b0 e2       	ldi	r27, 0x20	; 32
    53ec:	0e 94 59 3b 	call	0x76b2	; 0x76b2 <__umulhisi3>
    53f0:	4a e0       	ldi	r20, 0x0A	; 10
    53f2:	be 01       	movw	r22, r28
    53f4:	67 5d       	subi	r22, 0xD7	; 215
    53f6:	7f 4f       	sbci	r23, 0xFF	; 255
    53f8:	92 95       	swap	r25
    53fa:	82 95       	swap	r24
    53fc:	8f 70       	andi	r24, 0x0F	; 15
    53fe:	89 27       	eor	r24, r25
    5400:	9f 70       	andi	r25, 0x0F	; 15
    5402:	89 27       	eor	r24, r25
    5404:	0e 94 b7 3b 	call	0x776e	; 0x776e <__utoa_ncheck>
					strcat(text_buffer,int_buffer);
    5408:	be 01       	movw	r22, r28
    540a:	67 5d       	subi	r22, 0xD7	; 215
    540c:	7f 4f       	sbci	r23, 0xFF	; 255
    540e:	c4 01       	movw	r24, r8
    5410:	0e 94 83 3b 	call	0x7706	; 0x7706 <strcat>
    5414:	18 c0       	rjmp	.+48     	; 0x5446 <main+0x1340>
				}
				else
				utoa(calc_voltage(avg_voltage_b)/1000,text_buffer,10);
    5416:	c2 01       	movw	r24, r4
    5418:	0e 94 61 16 	call	0x2cc2	; 0x2cc2 <_Z12calc_voltagej>
    541c:	9c 01       	movw	r18, r24
    541e:	36 95       	lsr	r19
    5420:	27 95       	ror	r18
    5422:	36 95       	lsr	r19
    5424:	27 95       	ror	r18
    5426:	36 95       	lsr	r19
    5428:	27 95       	ror	r18
    542a:	a5 ec       	ldi	r26, 0xC5	; 197
    542c:	b0 e2       	ldi	r27, 0x20	; 32
    542e:	0e 94 59 3b 	call	0x76b2	; 0x76b2 <__umulhisi3>
    5432:	4a e0       	ldi	r20, 0x0A	; 10
    5434:	b4 01       	movw	r22, r8
    5436:	92 95       	swap	r25
    5438:	82 95       	swap	r24
    543a:	8f 70       	andi	r24, 0x0F	; 15
    543c:	89 27       	eor	r24, r25
    543e:	9f 70       	andi	r25, 0x0F	; 15
    5440:	89 27       	eor	r24, r25
    5442:	0e 94 b7 3b 	call	0x776e	; 0x776e <__utoa_ncheck>
				strcat(text_buffer,",");
    5446:	f4 01       	movw	r30, r8
    5448:	01 90       	ld	r0, Z+
    544a:	00 20       	and	r0, r0
    544c:	e9 f7       	brne	.-6      	; 0x5448 <main+0x1342>
    544e:	31 97       	sbiw	r30, 0x01	; 1
    5450:	8c e2       	ldi	r24, 0x2C	; 44
    5452:	90 e0       	ldi	r25, 0x00	; 0
    5454:	80 83       	st	Z, r24
    5456:	91 83       	std	Z+1, r25	; 0x01
				utoa(calc_voltage(avg_voltage_b)%1000,int_buffer,10);
    5458:	c2 01       	movw	r24, r4
    545a:	0e 94 61 16 	call	0x2cc2	; 0x2cc2 <_Z12calc_voltagej>
    545e:	fc 01       	movw	r30, r24
    5460:	9c 01       	movw	r18, r24
    5462:	36 95       	lsr	r19
    5464:	27 95       	ror	r18
    5466:	36 95       	lsr	r19
    5468:	27 95       	ror	r18
    546a:	36 95       	lsr	r19
    546c:	27 95       	ror	r18
    546e:	a5 ec       	ldi	r26, 0xC5	; 197
    5470:	b0 e2       	ldi	r27, 0x20	; 32
    5472:	0e 94 59 3b 	call	0x76b2	; 0x76b2 <__umulhisi3>
    5476:	92 95       	swap	r25
    5478:	82 95       	swap	r24
    547a:	8f 70       	andi	r24, 0x0F	; 15
    547c:	89 27       	eor	r24, r25
    547e:	9f 70       	andi	r25, 0x0F	; 15
    5480:	89 27       	eor	r24, r25
    5482:	48 ee       	ldi	r20, 0xE8	; 232
    5484:	53 e0       	ldi	r21, 0x03	; 3
    5486:	84 9f       	mul	r24, r20
    5488:	90 01       	movw	r18, r0
    548a:	85 9f       	mul	r24, r21
    548c:	30 0d       	add	r19, r0
    548e:	94 9f       	mul	r25, r20
    5490:	30 0d       	add	r19, r0
    5492:	11 24       	eor	r1, r1
    5494:	4a e0       	ldi	r20, 0x0A	; 10
    5496:	be 01       	movw	r22, r28
    5498:	67 5d       	subi	r22, 0xD7	; 215
    549a:	7f 4f       	sbci	r23, 0xFF	; 255
    549c:	cf 01       	movw	r24, r30
    549e:	82 1b       	sub	r24, r18
    54a0:	93 0b       	sbc	r25, r19
    54a2:	0e 94 b7 3b 	call	0x776e	; 0x776e <__utoa_ncheck>
				strcat(text_buffer,int_buffer);
    54a6:	be 01       	movw	r22, r28
    54a8:	67 5d       	subi	r22, 0xD7	; 215
    54aa:	7f 4f       	sbci	r23, 0xFF	; 255
    54ac:	c4 01       	movw	r24, r8
    54ae:	0e 94 83 3b 	call	0x7706	; 0x7706 <strcat>
				strcat(text_buffer,helper);
    54b2:	be 01       	movw	r22, r28
    54b4:	63 5c       	subi	r22, 0xC3	; 195
    54b6:	7f 4f       	sbci	r23, 0xFF	; 255
    54b8:	c4 01       	movw	r24, r8
    54ba:	0e 94 83 3b 	call	0x7706	; 0x7706 <strcat>
				lcd_puts(text_buffer);
    54be:	c4 01       	movw	r24, r8
    54c0:	0e 94 9d 0a 	call	0x153a	; 0x153a <_Z8lcd_putsPKc>
				avg_voltage_a = 0;
				avg_voltage_b = 0;
				lcd_gotoxy(left,2,port_expander_present);
    54c4:	40 91 25 23 	lds	r20, 0x2325	; 0x802325 <port_expander_present>
    54c8:	62 e0       	ldi	r22, 0x02	; 2
    54ca:	81 e0       	ldi	r24, 0x01	; 1
    54cc:	0e 94 0f 06 	call	0xc1e	; 0xc1e <_Z10lcd_gotoxyhhb>
				if(pwm_a < 10)
    54d0:	fa e0       	ldi	r31, 0x0A	; 10
    54d2:	ef 16       	cp	r14, r31
    54d4:	f1 04       	cpc	r15, r1
    54d6:	20 f4       	brcc	.+8      	; 0x54e0 <main+0x13da>
					lcd_puts(" ");
    54d8:	8b ed       	ldi	r24, 0xDB	; 219
    54da:	91 e2       	ldi	r25, 0x21	; 33
    54dc:	0e 94 9d 0a 	call	0x153a	; 0x153a <_Z8lcd_putsPKc>
				if(pwm_a < 100)
    54e0:	24 e6       	ldi	r18, 0x64	; 100
    54e2:	e2 16       	cp	r14, r18
    54e4:	f1 04       	cpc	r15, r1
    54e6:	20 f4       	brcc	.+8      	; 0x54f0 <main+0x13ea>
					lcd_puts(" ");	
    54e8:	8b ed       	ldi	r24, 0xDB	; 219
    54ea:	91 e2       	ldi	r25, 0x21	; 33
    54ec:	0e 94 9d 0a 	call	0x153a	; 0x153a <_Z8lcd_putsPKc>
				if(pwm_a < 1000)
    54f0:	38 ee       	ldi	r19, 0xE8	; 232
    54f2:	e3 16       	cp	r14, r19
    54f4:	33 e0       	ldi	r19, 0x03	; 3
    54f6:	f3 06       	cpc	r15, r19
    54f8:	20 f4       	brcc	.+8      	; 0x5502 <main+0x13fc>
					lcd_puts(" ");
    54fa:	8b ed       	ldi	r24, 0xDB	; 219
    54fc:	91 e2       	ldi	r25, 0x21	; 33
    54fe:	0e 94 9d 0a 	call	0x153a	; 0x153a <_Z8lcd_putsPKc>
    5502:	97 01       	movw	r18, r14
    5504:	ad ec       	ldi	r26, 0xCD	; 205
    5506:	bc ec       	ldi	r27, 0xCC	; 204
    5508:	0e 94 59 3b 	call	0x76b2	; 0x76b2 <__umulhisi3>
    550c:	3c 01       	movw	r6, r24
    550e:	76 94       	lsr	r7
    5510:	67 94       	ror	r6
    5512:	76 94       	lsr	r7
    5514:	67 94       	ror	r6
    5516:	76 94       	lsr	r7
    5518:	67 94       	ror	r6
    551a:	4a e0       	ldi	r20, 0x0A	; 10
    551c:	b4 01       	movw	r22, r8
    551e:	c3 01       	movw	r24, r6
    5520:	0e 94 b7 3b 	call	0x776e	; 0x776e <__utoa_ncheck>
				utoa(pwm_a/10,text_buffer,10);
				strcat(text_buffer,",");
    5524:	f4 01       	movw	r30, r8
    5526:	01 90       	ld	r0, Z+
    5528:	00 20       	and	r0, r0
    552a:	e9 f7       	brne	.-6      	; 0x5526 <main+0x1420>
    552c:	31 97       	sbiw	r30, 0x01	; 1
    552e:	8c e2       	ldi	r24, 0x2C	; 44
    5530:	90 e0       	ldi	r25, 0x00	; 0
    5532:	80 83       	st	Z, r24
    5534:	91 83       	std	Z+1, r25	; 0x01
    5536:	c3 01       	movw	r24, r6
    5538:	88 0f       	add	r24, r24
    553a:	99 1f       	adc	r25, r25
    553c:	66 0c       	add	r6, r6
    553e:	77 1c       	adc	r7, r7
    5540:	66 0c       	add	r6, r6
    5542:	77 1c       	adc	r7, r7
    5544:	66 0c       	add	r6, r6
    5546:	77 1c       	adc	r7, r7
    5548:	68 0e       	add	r6, r24
    554a:	79 1e       	adc	r7, r25
    554c:	4a e0       	ldi	r20, 0x0A	; 10
    554e:	be 01       	movw	r22, r28
    5550:	67 5d       	subi	r22, 0xD7	; 215
    5552:	7f 4f       	sbci	r23, 0xFF	; 255
    5554:	c7 01       	movw	r24, r14
    5556:	86 19       	sub	r24, r6
    5558:	97 09       	sbc	r25, r7
    555a:	0e 94 b7 3b 	call	0x776e	; 0x776e <__utoa_ncheck>
				utoa(pwm_a%10,int_buffer,10);
				strcat(text_buffer,int_buffer);
    555e:	be 01       	movw	r22, r28
    5560:	67 5d       	subi	r22, 0xD7	; 215
    5562:	7f 4f       	sbci	r23, 0xFF	; 255
    5564:	c4 01       	movw	r24, r8
    5566:	0e 94 83 3b 	call	0x7706	; 0x7706 <strcat>
				strcat(text_buffer," %");
    556a:	f4 01       	movw	r30, r8
    556c:	01 90       	ld	r0, Z+
    556e:	00 20       	and	r0, r0
    5570:	e9 f7       	brne	.-6      	; 0x556c <main+0x1466>
    5572:	31 97       	sbiw	r30, 0x01	; 1
    5574:	80 e2       	ldi	r24, 0x20	; 32
    5576:	95 e2       	ldi	r25, 0x25	; 37
    5578:	80 83       	st	Z, r24
    557a:	91 83       	std	Z+1, r25	; 0x01
    557c:	12 82       	std	Z+2, r1	; 0x02
				lcd_puts(text_buffer);
    557e:	c4 01       	movw	r24, r8
    5580:	0e 94 9d 0a 	call	0x153a	; 0x153a <_Z8lcd_putsPKc>
				lcd_gotoxy(right,2,port_expander_present);
    5584:	40 91 25 23 	lds	r20, 0x2325	; 0x802325 <port_expander_present>
    5588:	62 e0       	ldi	r22, 0x02	; 2
    558a:	8c e0       	ldi	r24, 0x0C	; 12
    558c:	0e 94 0f 06 	call	0xc1e	; 0xc1e <_Z10lcd_gotoxyhhb>
				if(pwm_b < 10)
    5590:	0a 30       	cpi	r16, 0x0A	; 10
    5592:	11 05       	cpc	r17, r1
    5594:	20 f4       	brcc	.+8      	; 0x559e <main+0x1498>
				lcd_puts(" ");
    5596:	8b ed       	ldi	r24, 0xDB	; 219
    5598:	91 e2       	ldi	r25, 0x21	; 33
    559a:	0e 94 9d 0a 	call	0x153a	; 0x153a <_Z8lcd_putsPKc>
				if(pwm_b < 100)
    559e:	04 36       	cpi	r16, 0x64	; 100
    55a0:	11 05       	cpc	r17, r1
    55a2:	20 f4       	brcc	.+8      	; 0x55ac <main+0x14a6>
				lcd_puts(" ");
    55a4:	8b ed       	ldi	r24, 0xDB	; 219
    55a6:	91 e2       	ldi	r25, 0x21	; 33
    55a8:	0e 94 9d 0a 	call	0x153a	; 0x153a <_Z8lcd_putsPKc>
				if(pwm_b < 1000)
    55ac:	08 3e       	cpi	r16, 0xE8	; 232
    55ae:	43 e0       	ldi	r20, 0x03	; 3
    55b0:	14 07       	cpc	r17, r20
    55b2:	20 f4       	brcc	.+8      	; 0x55bc <main+0x14b6>
				lcd_puts(" ");
    55b4:	8b ed       	ldi	r24, 0xDB	; 219
    55b6:	91 e2       	ldi	r25, 0x21	; 33
    55b8:	0e 94 9d 0a 	call	0x153a	; 0x153a <_Z8lcd_putsPKc>
    55bc:	98 01       	movw	r18, r16
    55be:	ad ec       	ldi	r26, 0xCD	; 205
    55c0:	bc ec       	ldi	r27, 0xCC	; 204
    55c2:	0e 94 59 3b 	call	0x76b2	; 0x76b2 <__umulhisi3>
    55c6:	7c 01       	movw	r14, r24
    55c8:	f6 94       	lsr	r15
    55ca:	e7 94       	ror	r14
    55cc:	f6 94       	lsr	r15
    55ce:	e7 94       	ror	r14
    55d0:	f6 94       	lsr	r15
    55d2:	e7 94       	ror	r14
    55d4:	4a e0       	ldi	r20, 0x0A	; 10
    55d6:	b4 01       	movw	r22, r8
    55d8:	c7 01       	movw	r24, r14
    55da:	0e 94 b7 3b 	call	0x776e	; 0x776e <__utoa_ncheck>
				utoa(pwm_b/10,text_buffer,10);
				strcat(text_buffer,",");
    55de:	f4 01       	movw	r30, r8
    55e0:	01 90       	ld	r0, Z+
    55e2:	00 20       	and	r0, r0
    55e4:	e9 f7       	brne	.-6      	; 0x55e0 <main+0x14da>
    55e6:	31 97       	sbiw	r30, 0x01	; 1
    55e8:	8c e2       	ldi	r24, 0x2C	; 44
    55ea:	90 e0       	ldi	r25, 0x00	; 0
    55ec:	80 83       	st	Z, r24
    55ee:	91 83       	std	Z+1, r25	; 0x01
    55f0:	c7 01       	movw	r24, r14
    55f2:	88 0f       	add	r24, r24
    55f4:	99 1f       	adc	r25, r25
    55f6:	ee 0c       	add	r14, r14
    55f8:	ff 1c       	adc	r15, r15
    55fa:	ee 0c       	add	r14, r14
    55fc:	ff 1c       	adc	r15, r15
    55fe:	ee 0c       	add	r14, r14
    5600:	ff 1c       	adc	r15, r15
    5602:	e8 0e       	add	r14, r24
    5604:	f9 1e       	adc	r15, r25
    5606:	4a e0       	ldi	r20, 0x0A	; 10
    5608:	be 01       	movw	r22, r28
    560a:	67 5d       	subi	r22, 0xD7	; 215
    560c:	7f 4f       	sbci	r23, 0xFF	; 255
    560e:	c8 01       	movw	r24, r16
    5610:	8e 19       	sub	r24, r14
    5612:	9f 09       	sbc	r25, r15
    5614:	0e 94 b7 3b 	call	0x776e	; 0x776e <__utoa_ncheck>
				utoa(pwm_b%10,int_buffer,10);
				strcat(text_buffer,int_buffer);
    5618:	be 01       	movw	r22, r28
    561a:	67 5d       	subi	r22, 0xD7	; 215
    561c:	7f 4f       	sbci	r23, 0xFF	; 255
    561e:	c4 01       	movw	r24, r8
    5620:	0e 94 83 3b 	call	0x7706	; 0x7706 <strcat>
				strcat(text_buffer," %");
    5624:	f4 01       	movw	r30, r8
    5626:	01 90       	ld	r0, Z+
    5628:	00 20       	and	r0, r0
    562a:	e9 f7       	brne	.-6      	; 0x5626 <main+0x1520>
    562c:	31 97       	sbiw	r30, 0x01	; 1
    562e:	80 e2       	ldi	r24, 0x20	; 32
    5630:	95 e2       	ldi	r25, 0x25	; 37
    5632:	80 83       	st	Z, r24
    5634:	91 83       	std	Z+1, r25	; 0x01
    5636:	12 82       	std	Z+2, r1	; 0x02
				lcd_puts(text_buffer);
    5638:	c4 01       	movw	r24, r8
    563a:	0e 94 9d 0a 	call	0x153a	; 0x153a <_Z8lcd_putsPKc>
				cli();
    563e:	f8 94       	cli
				utoa(RPM_a,text_buffer,10);
    5640:	80 91 19 24 	lds	r24, 0x2419	; 0x802419 <RPM_a>
    5644:	90 91 1a 24 	lds	r25, 0x241A	; 0x80241a <RPM_a+0x1>
    5648:	a0 91 1b 24 	lds	r26, 0x241B	; 0x80241b <RPM_a+0x2>
    564c:	b0 91 1c 24 	lds	r27, 0x241C	; 0x80241c <RPM_a+0x3>
    5650:	4a e0       	ldi	r20, 0x0A	; 10
    5652:	b4 01       	movw	r22, r8
    5654:	0e 94 b7 3b 	call	0x776e	; 0x776e <__utoa_ncheck>
				sei();
    5658:	78 94       	sei
				strcat(text_buffer," RPM");
    565a:	d4 01       	movw	r26, r8
    565c:	0d 90       	ld	r0, X+
    565e:	00 20       	and	r0, r0
    5660:	e9 f7       	brne	.-6      	; 0x565c <main+0x1556>
    5662:	11 97       	sbiw	r26, 0x01	; 1
    5664:	85 e0       	ldi	r24, 0x05	; 5
    5666:	ef e6       	ldi	r30, 0x6F	; 111
    5668:	f2 e2       	ldi	r31, 0x22	; 34
    566a:	01 90       	ld	r0, Z+
    566c:	0d 92       	st	X+, r0
    566e:	8a 95       	dec	r24
    5670:	e1 f7       	brne	.-8      	; 0x566a <main+0x1564>
				lcd_gotoxy(left,3,port_expander_present);
    5672:	40 91 25 23 	lds	r20, 0x2325	; 0x802325 <port_expander_present>
    5676:	63 e0       	ldi	r22, 0x03	; 3
    5678:	81 e0       	ldi	r24, 0x01	; 1
    567a:	0e 94 0f 06 	call	0xc1e	; 0xc1e <_Z10lcd_gotoxyhhb>
				if(RPM_a < 10)
    567e:	80 91 19 24 	lds	r24, 0x2419	; 0x802419 <RPM_a>
    5682:	90 91 1a 24 	lds	r25, 0x241A	; 0x80241a <RPM_a+0x1>
    5686:	a0 91 1b 24 	lds	r26, 0x241B	; 0x80241b <RPM_a+0x2>
    568a:	b0 91 1c 24 	lds	r27, 0x241C	; 0x80241c <RPM_a+0x3>
    568e:	0a 97       	sbiw	r24, 0x0a	; 10
    5690:	a1 05       	cpc	r26, r1
    5692:	b1 05       	cpc	r27, r1
    5694:	20 f4       	brcc	.+8      	; 0x569e <main+0x1598>
					lcd_puts(" ");
    5696:	8b ed       	ldi	r24, 0xDB	; 219
    5698:	91 e2       	ldi	r25, 0x21	; 33
    569a:	0e 94 9d 0a 	call	0x153a	; 0x153a <_Z8lcd_putsPKc>
				if(RPM_a < 100)
    569e:	80 91 19 24 	lds	r24, 0x2419	; 0x802419 <RPM_a>
    56a2:	90 91 1a 24 	lds	r25, 0x241A	; 0x80241a <RPM_a+0x1>
    56a6:	a0 91 1b 24 	lds	r26, 0x241B	; 0x80241b <RPM_a+0x2>
    56aa:	b0 91 1c 24 	lds	r27, 0x241C	; 0x80241c <RPM_a+0x3>
    56ae:	84 36       	cpi	r24, 0x64	; 100
    56b0:	91 05       	cpc	r25, r1
    56b2:	a1 05       	cpc	r26, r1
    56b4:	b1 05       	cpc	r27, r1
    56b6:	20 f4       	brcc	.+8      	; 0x56c0 <main+0x15ba>
					lcd_puts(" ");
    56b8:	8b ed       	ldi	r24, 0xDB	; 219
    56ba:	91 e2       	ldi	r25, 0x21	; 33
    56bc:	0e 94 9d 0a 	call	0x153a	; 0x153a <_Z8lcd_putsPKc>
				if(RPM_a < 1000)
    56c0:	80 91 19 24 	lds	r24, 0x2419	; 0x802419 <RPM_a>
    56c4:	90 91 1a 24 	lds	r25, 0x241A	; 0x80241a <RPM_a+0x1>
    56c8:	a0 91 1b 24 	lds	r26, 0x241B	; 0x80241b <RPM_a+0x2>
    56cc:	b0 91 1c 24 	lds	r27, 0x241C	; 0x80241c <RPM_a+0x3>
    56d0:	88 3e       	cpi	r24, 0xE8	; 232
    56d2:	93 40       	sbci	r25, 0x03	; 3
    56d4:	a1 05       	cpc	r26, r1
    56d6:	b1 05       	cpc	r27, r1
    56d8:	20 f4       	brcc	.+8      	; 0x56e2 <main+0x15dc>
					lcd_puts(" ");
    56da:	8b ed       	ldi	r24, 0xDB	; 219
    56dc:	91 e2       	ldi	r25, 0x21	; 33
    56de:	0e 94 9d 0a 	call	0x153a	; 0x153a <_Z8lcd_putsPKc>
				lcd_puts(text_buffer);
    56e2:	c4 01       	movw	r24, r8
    56e4:	0e 94 9d 0a 	call	0x153a	; 0x153a <_Z8lcd_putsPKc>
				utoa(Sollwert_RPM_a,text_buffer,10);
    56e8:	80 91 21 21 	lds	r24, 0x2121	; 0x802121 <Sollwert_RPM_a>
    56ec:	90 91 22 21 	lds	r25, 0x2122	; 0x802122 <Sollwert_RPM_a+0x1>
    56f0:	4a e0       	ldi	r20, 0x0A	; 10
    56f2:	b4 01       	movw	r22, r8
    56f4:	0e 94 b7 3b 	call	0x776e	; 0x776e <__utoa_ncheck>
				lcd_gotoxy(left,4,port_expander_present);
    56f8:	40 91 25 23 	lds	r20, 0x2325	; 0x802325 <port_expander_present>
    56fc:	64 e0       	ldi	r22, 0x04	; 4
    56fe:	81 e0       	ldi	r24, 0x01	; 1
    5700:	0e 94 0f 06 	call	0xc1e	; 0xc1e <_Z10lcd_gotoxyhhb>
				if(Sollwert_RPM_a < 10)
    5704:	80 91 21 21 	lds	r24, 0x2121	; 0x802121 <Sollwert_RPM_a>
    5708:	90 91 22 21 	lds	r25, 0x2122	; 0x802122 <Sollwert_RPM_a+0x1>
    570c:	0a 97       	sbiw	r24, 0x0a	; 10
    570e:	20 f4       	brcc	.+8      	; 0x5718 <main+0x1612>
					lcd_puts(" ");
    5710:	8b ed       	ldi	r24, 0xDB	; 219
    5712:	91 e2       	ldi	r25, 0x21	; 33
    5714:	0e 94 9d 0a 	call	0x153a	; 0x153a <_Z8lcd_putsPKc>
				if(Sollwert_RPM_a < 100)
    5718:	80 91 21 21 	lds	r24, 0x2121	; 0x802121 <Sollwert_RPM_a>
    571c:	90 91 22 21 	lds	r25, 0x2122	; 0x802122 <Sollwert_RPM_a+0x1>
    5720:	84 36       	cpi	r24, 0x64	; 100
    5722:	91 05       	cpc	r25, r1
    5724:	20 f4       	brcc	.+8      	; 0x572e <main+0x1628>
					lcd_puts(" ");
    5726:	8b ed       	ldi	r24, 0xDB	; 219
    5728:	91 e2       	ldi	r25, 0x21	; 33
    572a:	0e 94 9d 0a 	call	0x153a	; 0x153a <_Z8lcd_putsPKc>
				if(Sollwert_RPM_a < 1000)
    572e:	80 91 21 21 	lds	r24, 0x2121	; 0x802121 <Sollwert_RPM_a>
    5732:	90 91 22 21 	lds	r25, 0x2122	; 0x802122 <Sollwert_RPM_a+0x1>
    5736:	88 3e       	cpi	r24, 0xE8	; 232
    5738:	93 40       	sbci	r25, 0x03	; 3
    573a:	20 f4       	brcc	.+8      	; 0x5744 <main+0x163e>
					lcd_puts(" ");
    573c:	8b ed       	ldi	r24, 0xDB	; 219
    573e:	91 e2       	ldi	r25, 0x21	; 33
    5740:	0e 94 9d 0a 	call	0x153a	; 0x153a <_Z8lcd_putsPKc>
				strcat(text_buffer," RPM");
    5744:	d4 01       	movw	r26, r8
    5746:	0d 90       	ld	r0, X+
    5748:	00 20       	and	r0, r0
    574a:	e9 f7       	brne	.-6      	; 0x5746 <main+0x1640>
    574c:	11 97       	sbiw	r26, 0x01	; 1
    574e:	85 e0       	ldi	r24, 0x05	; 5
    5750:	ef e6       	ldi	r30, 0x6F	; 111
    5752:	f2 e2       	ldi	r31, 0x22	; 34
    5754:	01 90       	ld	r0, Z+
    5756:	0d 92       	st	X+, r0
    5758:	8a 95       	dec	r24
    575a:	e1 f7       	brne	.-8      	; 0x5754 <main+0x164e>
				if(change_speed_a)
    575c:	2d 96       	adiw	r28, 0x0d	; 13
    575e:	bf ad       	ldd	r27, Y+63	; 0x3f
    5760:	2d 97       	sbiw	r28, 0x0d	; 13
    5762:	bb 23       	and	r27, r27
    5764:	21 f0       	breq	.+8      	; 0x576e <main+0x1668>
					lcd_puts_invert(text_buffer);
    5766:	c4 01       	movw	r24, r8
    5768:	0e 94 ac 0a 	call	0x1558	; 0x1558 <_Z15lcd_puts_invertPKc>
    576c:	03 c0       	rjmp	.+6      	; 0x5774 <main+0x166e>
				else
					lcd_puts(text_buffer);
    576e:	c4 01       	movw	r24, r8
    5770:	0e 94 9d 0a 	call	0x153a	; 0x153a <_Z8lcd_putsPKc>
				cli();
    5774:	f8 94       	cli
				utoa(RPM_b,text_buffer,10);
    5776:	80 91 15 24 	lds	r24, 0x2415	; 0x802415 <RPM_b>
    577a:	90 91 16 24 	lds	r25, 0x2416	; 0x802416 <RPM_b+0x1>
    577e:	a0 91 17 24 	lds	r26, 0x2417	; 0x802417 <RPM_b+0x2>
    5782:	b0 91 18 24 	lds	r27, 0x2418	; 0x802418 <RPM_b+0x3>
    5786:	4a e0       	ldi	r20, 0x0A	; 10
    5788:	b4 01       	movw	r22, r8
    578a:	0e 94 b7 3b 	call	0x776e	; 0x776e <__utoa_ncheck>
				sei();
    578e:	78 94       	sei
				strcat(text_buffer," RPM");
    5790:	d4 01       	movw	r26, r8
    5792:	0d 90       	ld	r0, X+
    5794:	00 20       	and	r0, r0
    5796:	e9 f7       	brne	.-6      	; 0x5792 <main+0x168c>
    5798:	11 97       	sbiw	r26, 0x01	; 1
    579a:	85 e0       	ldi	r24, 0x05	; 5
    579c:	ef e6       	ldi	r30, 0x6F	; 111
    579e:	f2 e2       	ldi	r31, 0x22	; 34
    57a0:	01 90       	ld	r0, Z+
    57a2:	0d 92       	st	X+, r0
    57a4:	8a 95       	dec	r24
    57a6:	e1 f7       	brne	.-8      	; 0x57a0 <main+0x169a>
				lcd_gotoxy(right,3,port_expander_present);
    57a8:	40 91 25 23 	lds	r20, 0x2325	; 0x802325 <port_expander_present>
    57ac:	63 e0       	ldi	r22, 0x03	; 3
    57ae:	8c e0       	ldi	r24, 0x0C	; 12
    57b0:	0e 94 0f 06 	call	0xc1e	; 0xc1e <_Z10lcd_gotoxyhhb>
				if(RPM_b < 10)
    57b4:	80 91 15 24 	lds	r24, 0x2415	; 0x802415 <RPM_b>
    57b8:	90 91 16 24 	lds	r25, 0x2416	; 0x802416 <RPM_b+0x1>
    57bc:	a0 91 17 24 	lds	r26, 0x2417	; 0x802417 <RPM_b+0x2>
    57c0:	b0 91 18 24 	lds	r27, 0x2418	; 0x802418 <RPM_b+0x3>
    57c4:	0a 97       	sbiw	r24, 0x0a	; 10
    57c6:	a1 05       	cpc	r26, r1
    57c8:	b1 05       	cpc	r27, r1
    57ca:	20 f4       	brcc	.+8      	; 0x57d4 <main+0x16ce>
				lcd_puts(" ");
    57cc:	8b ed       	ldi	r24, 0xDB	; 219
    57ce:	91 e2       	ldi	r25, 0x21	; 33
    57d0:	0e 94 9d 0a 	call	0x153a	; 0x153a <_Z8lcd_putsPKc>
				if(RPM_b < 100)
    57d4:	80 91 15 24 	lds	r24, 0x2415	; 0x802415 <RPM_b>
    57d8:	90 91 16 24 	lds	r25, 0x2416	; 0x802416 <RPM_b+0x1>
    57dc:	a0 91 17 24 	lds	r26, 0x2417	; 0x802417 <RPM_b+0x2>
    57e0:	b0 91 18 24 	lds	r27, 0x2418	; 0x802418 <RPM_b+0x3>
    57e4:	84 36       	cpi	r24, 0x64	; 100
    57e6:	91 05       	cpc	r25, r1
    57e8:	a1 05       	cpc	r26, r1
    57ea:	b1 05       	cpc	r27, r1
    57ec:	20 f4       	brcc	.+8      	; 0x57f6 <main+0x16f0>
				lcd_puts(" ");
    57ee:	8b ed       	ldi	r24, 0xDB	; 219
    57f0:	91 e2       	ldi	r25, 0x21	; 33
    57f2:	0e 94 9d 0a 	call	0x153a	; 0x153a <_Z8lcd_putsPKc>
				if(RPM_b < 1000)
    57f6:	80 91 15 24 	lds	r24, 0x2415	; 0x802415 <RPM_b>
    57fa:	90 91 16 24 	lds	r25, 0x2416	; 0x802416 <RPM_b+0x1>
    57fe:	a0 91 17 24 	lds	r26, 0x2417	; 0x802417 <RPM_b+0x2>
    5802:	b0 91 18 24 	lds	r27, 0x2418	; 0x802418 <RPM_b+0x3>
    5806:	88 3e       	cpi	r24, 0xE8	; 232
    5808:	93 40       	sbci	r25, 0x03	; 3
    580a:	a1 05       	cpc	r26, r1
    580c:	b1 05       	cpc	r27, r1
    580e:	20 f4       	brcc	.+8      	; 0x5818 <main+0x1712>
				lcd_puts(" ");
    5810:	8b ed       	ldi	r24, 0xDB	; 219
    5812:	91 e2       	ldi	r25, 0x21	; 33
    5814:	0e 94 9d 0a 	call	0x153a	; 0x153a <_Z8lcd_putsPKc>
				lcd_puts(text_buffer);
    5818:	c4 01       	movw	r24, r8
    581a:	0e 94 9d 0a 	call	0x153a	; 0x153a <_Z8lcd_putsPKc>
				utoa(Sollwert_RPM_b,text_buffer,10);
    581e:	80 91 1f 21 	lds	r24, 0x211F	; 0x80211f <Sollwert_RPM_b>
    5822:	90 91 20 21 	lds	r25, 0x2120	; 0x802120 <Sollwert_RPM_b+0x1>
    5826:	4a e0       	ldi	r20, 0x0A	; 10
    5828:	b4 01       	movw	r22, r8
    582a:	0e 94 b7 3b 	call	0x776e	; 0x776e <__utoa_ncheck>
				strcat(text_buffer," RPM");
    582e:	d4 01       	movw	r26, r8
    5830:	0d 90       	ld	r0, X+
    5832:	00 20       	and	r0, r0
    5834:	e9 f7       	brne	.-6      	; 0x5830 <main+0x172a>
    5836:	11 97       	sbiw	r26, 0x01	; 1
    5838:	85 e0       	ldi	r24, 0x05	; 5
    583a:	ef e6       	ldi	r30, 0x6F	; 111
    583c:	f2 e2       	ldi	r31, 0x22	; 34
    583e:	01 90       	ld	r0, Z+
    5840:	0d 92       	st	X+, r0
    5842:	8a 95       	dec	r24
    5844:	e1 f7       	brne	.-8      	; 0x583e <main+0x1738>
				lcd_gotoxy(right,4,port_expander_present);
    5846:	40 91 25 23 	lds	r20, 0x2325	; 0x802325 <port_expander_present>
    584a:	64 e0       	ldi	r22, 0x04	; 4
    584c:	8c e0       	ldi	r24, 0x0C	; 12
    584e:	0e 94 0f 06 	call	0xc1e	; 0xc1e <_Z10lcd_gotoxyhhb>
				if(Sollwert_RPM_b < 10)
    5852:	80 91 1f 21 	lds	r24, 0x211F	; 0x80211f <Sollwert_RPM_b>
    5856:	90 91 20 21 	lds	r25, 0x2120	; 0x802120 <Sollwert_RPM_b+0x1>
    585a:	0a 97       	sbiw	r24, 0x0a	; 10
    585c:	20 f4       	brcc	.+8      	; 0x5866 <main+0x1760>
				lcd_puts(" ");
    585e:	8b ed       	ldi	r24, 0xDB	; 219
    5860:	91 e2       	ldi	r25, 0x21	; 33
    5862:	0e 94 9d 0a 	call	0x153a	; 0x153a <_Z8lcd_putsPKc>
				if(Sollwert_RPM_b < 100)
    5866:	80 91 1f 21 	lds	r24, 0x211F	; 0x80211f <Sollwert_RPM_b>
    586a:	90 91 20 21 	lds	r25, 0x2120	; 0x802120 <Sollwert_RPM_b+0x1>
    586e:	84 36       	cpi	r24, 0x64	; 100
    5870:	91 05       	cpc	r25, r1
    5872:	20 f4       	brcc	.+8      	; 0x587c <main+0x1776>
				lcd_puts(" ");
    5874:	8b ed       	ldi	r24, 0xDB	; 219
    5876:	91 e2       	ldi	r25, 0x21	; 33
    5878:	0e 94 9d 0a 	call	0x153a	; 0x153a <_Z8lcd_putsPKc>
				if(Sollwert_RPM_b < 1000)
    587c:	80 91 1f 21 	lds	r24, 0x211F	; 0x80211f <Sollwert_RPM_b>
    5880:	90 91 20 21 	lds	r25, 0x2120	; 0x802120 <Sollwert_RPM_b+0x1>
    5884:	88 3e       	cpi	r24, 0xE8	; 232
    5886:	93 40       	sbci	r25, 0x03	; 3
    5888:	20 f4       	brcc	.+8      	; 0x5892 <main+0x178c>
				lcd_puts(" ");
    588a:	8b ed       	ldi	r24, 0xDB	; 219
    588c:	91 e2       	ldi	r25, 0x21	; 33
    588e:	0e 94 9d 0a 	call	0x153a	; 0x153a <_Z8lcd_putsPKc>
				if(change_speed_b)
    5892:	2c 96       	adiw	r28, 0x0c	; 12
    5894:	0f ad       	ldd	r16, Y+63	; 0x3f
    5896:	2c 97       	sbiw	r28, 0x0c	; 12
    5898:	00 23       	and	r16, r16
    589a:	21 f0       	breq	.+8      	; 0x58a4 <main+0x179e>
					lcd_puts_invert(text_buffer);
    589c:	c4 01       	movw	r24, r8
    589e:	0e 94 ac 0a 	call	0x1558	; 0x1558 <_Z15lcd_puts_invertPKc>
    58a2:	03 c0       	rjmp	.+6      	; 0x58aa <main+0x17a4>
				else
					lcd_puts(text_buffer);
    58a4:	c4 01       	movw	r24, r8
    58a6:	0e 94 9d 0a 	call	0x153a	; 0x153a <_Z8lcd_putsPKc>
    58aa:	4a e0       	ldi	r20, 0x0A	; 10
    58ac:	b4 01       	movw	r22, r8
    58ae:	80 e0       	ldi	r24, 0x00	; 0
    58b0:	90 e0       	ldi	r25, 0x00	; 0
    58b2:	0e 94 b7 3b 	call	0x776e	; 0x776e <__utoa_ncheck>
				utoa(test,text_buffer,10);
				if(position_main == 0 )
    58b6:	26 96       	adiw	r28, 0x06	; 6
    58b8:	1f ad       	ldd	r17, Y+63	; 0x3f
    58ba:	26 97       	sbiw	r28, 0x06	; 6
    58bc:	11 11       	cpse	r17, r1
    58be:	8f c0       	rjmp	.+286    	; 0x59de <main+0x18d8>
				{
					get_key_short( 1<<KEY0 );
    58c0:	80 e1       	ldi	r24, 0x10	; 16
    58c2:	0e 94 b1 0b 	call	0x1762	; 0x1762 <_Z13get_key_shorth>
					lcd_gotoxy(left-1,4,port_expander_present);
    58c6:	40 91 25 23 	lds	r20, 0x2325	; 0x802325 <port_expander_present>
    58ca:	64 e0       	ldi	r22, 0x04	; 4
    58cc:	80 e0       	ldi	r24, 0x00	; 0
    58ce:	0e 94 0f 06 	call	0xc1e	; 0xc1e <_Z10lcd_gotoxyhhb>
					lcd_puts(" ");
    58d2:	8b ed       	ldi	r24, 0xDB	; 219
    58d4:	91 e2       	ldi	r25, 0x21	; 33
    58d6:	0e 94 9d 0a 	call	0x153a	; 0x153a <_Z8lcd_putsPKc>
					lcd_gotoxy(right-1,4,port_expander_present);
    58da:	40 91 25 23 	lds	r20, 0x2325	; 0x802325 <port_expander_present>
    58de:	64 e0       	ldi	r22, 0x04	; 4
    58e0:	8b e0       	ldi	r24, 0x0B	; 11
    58e2:	0e 94 0f 06 	call	0xc1e	; 0xc1e <_Z10lcd_gotoxyhhb>
					lcd_puts(" ");
    58e6:	8b ed       	ldi	r24, 0xDB	; 219
    58e8:	91 e2       	ldi	r25, 0x21	; 33
    58ea:	0e 94 9d 0a 	call	0x153a	; 0x153a <_Z8lcd_putsPKc>
					lcd_gotoxy(left-1,7,port_expander_present);
    58ee:	40 91 25 23 	lds	r20, 0x2325	; 0x802325 <port_expander_present>
    58f2:	67 e0       	ldi	r22, 0x07	; 7
    58f4:	80 e0       	ldi	r24, 0x00	; 0
    58f6:	0e 94 0f 06 	call	0xc1e	; 0xc1e <_Z10lcd_gotoxyhhb>
					lcd_puts(" ");
    58fa:	8b ed       	ldi	r24, 0xDB	; 219
    58fc:	91 e2       	ldi	r25, 0x21	; 33
    58fe:	0e 94 9d 0a 	call	0x153a	; 0x153a <_Z8lcd_putsPKc>
					lcd_gotoxy(right-1,7,port_expander_present);
    5902:	40 91 25 23 	lds	r20, 0x2325	; 0x802325 <port_expander_present>
    5906:	67 e0       	ldi	r22, 0x07	; 7
    5908:	8b e0       	ldi	r24, 0x0B	; 11
    590a:	0e 94 0f 06 	call	0xc1e	; 0xc1e <_Z10lcd_gotoxyhhb>
					lcd_puts(" ");
    590e:	8b ed       	ldi	r24, 0xDB	; 219
    5910:	91 e2       	ldi	r25, 0x21	; 33
    5912:	0e 94 9d 0a 	call	0x153a	; 0x153a <_Z8lcd_putsPKc>
					lcd_gotoxy(left,7,port_expander_present);
    5916:	40 91 25 23 	lds	r20, 0x2325	; 0x802325 <port_expander_present>
    591a:	67 e0       	ldi	r22, 0x07	; 7
    591c:	81 e0       	ldi	r24, 0x01	; 1
    591e:	0e 94 0f 06 	call	0xc1e	; 0xc1e <_Z10lcd_gotoxyhhb>
					if(status_a == 0)
    5922:	25 96       	adiw	r28, 0x05	; 5
    5924:	2f ad       	ldd	r18, Y+63	; 0x3f
    5926:	25 97       	sbiw	r28, 0x05	; 5
    5928:	21 11       	cpse	r18, r1
    592a:	05 c0       	rjmp	.+10     	; 0x5936 <main+0x1830>
						lcd_puts("Auto/Aus");
    592c:	84 e7       	ldi	r24, 0x74	; 116
    592e:	92 e2       	ldi	r25, 0x22	; 34
    5930:	0e 94 9d 0a 	call	0x153a	; 0x153a <_Z8lcd_putsPKc>
    5934:	14 c0       	rjmp	.+40     	; 0x595e <main+0x1858>
					if(status_a == 1)
    5936:	25 96       	adiw	r28, 0x05	; 5
    5938:	3f ad       	ldd	r19, Y+63	; 0x3f
    593a:	25 97       	sbiw	r28, 0x05	; 5
    593c:	31 30       	cpi	r19, 0x01	; 1
    593e:	29 f4       	brne	.+10     	; 0x594a <main+0x1844>
					lcd_puts("Auto/An ");
    5940:	8d e7       	ldi	r24, 0x7D	; 125
    5942:	92 e2       	ldi	r25, 0x22	; 34
    5944:	0e 94 9d 0a 	call	0x153a	; 0x153a <_Z8lcd_putsPKc>
    5948:	14 c0       	rjmp	.+40     	; 0x5972 <main+0x186c>
					if(status_a == 2)
    594a:	25 96       	adiw	r28, 0x05	; 5
    594c:	4f ad       	ldd	r20, Y+63	; 0x3f
    594e:	25 97       	sbiw	r28, 0x05	; 5
    5950:	42 30       	cpi	r20, 0x02	; 2
    5952:	29 f4       	brne	.+10     	; 0x595e <main+0x1858>
						lcd_puts("Hand/Aus ");
    5954:	86 e8       	ldi	r24, 0x86	; 134
    5956:	92 e2       	ldi	r25, 0x22	; 34
    5958:	0e 94 9d 0a 	call	0x153a	; 0x153a <_Z8lcd_putsPKc>
    595c:	13 c0       	rjmp	.+38     	; 0x5984 <main+0x187e>
					if(status_a == 3)
    595e:	25 96       	adiw	r28, 0x05	; 5
    5960:	5f ad       	ldd	r21, Y+63	; 0x3f
    5962:	25 97       	sbiw	r28, 0x05	; 5
    5964:	53 30       	cpi	r21, 0x03	; 3
    5966:	29 f4       	brne	.+10     	; 0x5972 <main+0x186c>
						lcd_puts("Hand/An  ");
    5968:	80 e9       	ldi	r24, 0x90	; 144
    596a:	92 e2       	ldi	r25, 0x22	; 34
    596c:	0e 94 9d 0a 	call	0x153a	; 0x153a <_Z8lcd_putsPKc>
    5970:	09 c0       	rjmp	.+18     	; 0x5984 <main+0x187e>
					if(status_a == 4)
    5972:	25 96       	adiw	r28, 0x05	; 5
    5974:	8f ad       	ldd	r24, Y+63	; 0x3f
    5976:	25 97       	sbiw	r28, 0x05	; 5
    5978:	84 30       	cpi	r24, 0x04	; 4
    597a:	21 f4       	brne	.+8      	; 0x5984 <main+0x187e>
						lcd_puts("Reset   ");
    597c:	8a e9       	ldi	r24, 0x9A	; 154
    597e:	92 e2       	ldi	r25, 0x22	; 34
    5980:	0e 94 9d 0a 	call	0x153a	; 0x153a <_Z8lcd_putsPKc>
					lcd_gotoxy(right,7,port_expander_present);
    5984:	40 91 25 23 	lds	r20, 0x2325	; 0x802325 <port_expander_present>
    5988:	67 e0       	ldi	r22, 0x07	; 7
    598a:	8c e0       	ldi	r24, 0x0C	; 12
    598c:	0e 94 0f 06 	call	0xc1e	; 0xc1e <_Z10lcd_gotoxyhhb>
					if(status_b == 0)
    5990:	b1 10       	cpse	r11, r1
    5992:	05 c0       	rjmp	.+10     	; 0x599e <main+0x1898>
					lcd_puts("Auto/Aus");
    5994:	84 e7       	ldi	r24, 0x74	; 116
    5996:	92 e2       	ldi	r25, 0x22	; 34
    5998:	0e 94 9d 0a 	call	0x153a	; 0x153a <_Z8lcd_putsPKc>
    599c:	10 c0       	rjmp	.+32     	; 0x59be <main+0x18b8>
					if(status_b == 1)
    599e:	91 e0       	ldi	r25, 0x01	; 1
    59a0:	b9 12       	cpse	r11, r25
    59a2:	05 c0       	rjmp	.+10     	; 0x59ae <main+0x18a8>
					lcd_puts("Auto/An ");
    59a4:	8d e7       	ldi	r24, 0x7D	; 125
    59a6:	92 e2       	ldi	r25, 0x22	; 34
    59a8:	0e 94 9d 0a 	call	0x153a	; 0x153a <_Z8lcd_putsPKc>
    59ac:	10 c0       	rjmp	.+32     	; 0x59ce <main+0x18c8>
					if(status_b == 2)
    59ae:	a2 e0       	ldi	r26, 0x02	; 2
    59b0:	ba 12       	cpse	r11, r26
    59b2:	05 c0       	rjmp	.+10     	; 0x59be <main+0x18b8>
					lcd_puts("Hand/Aus ");
    59b4:	86 e8       	ldi	r24, 0x86	; 134
    59b6:	92 e2       	ldi	r25, 0x22	; 34
    59b8:	0e 94 9d 0a 	call	0x153a	; 0x153a <_Z8lcd_putsPKc>
    59bc:	0d c2       	rjmp	.+1050   	; 0x5dd8 <main+0x1cd2>
					if(status_b == 3)
    59be:	b3 e0       	ldi	r27, 0x03	; 3
    59c0:	bb 12       	cpse	r11, r27
    59c2:	05 c0       	rjmp	.+10     	; 0x59ce <main+0x18c8>
					lcd_puts("Hand/An  ");
    59c4:	80 e9       	ldi	r24, 0x90	; 144
    59c6:	92 e2       	ldi	r25, 0x22	; 34
    59c8:	0e 94 9d 0a 	call	0x153a	; 0x153a <_Z8lcd_putsPKc>
    59cc:	0b c1       	rjmp	.+534    	; 0x5be4 <main+0x1ade>
					if(status_b == 4)
    59ce:	e4 e0       	ldi	r30, 0x04	; 4
    59d0:	be 12       	cpse	r11, r30
    59d2:	02 c2       	rjmp	.+1028   	; 0x5dd8 <main+0x1cd2>
					lcd_puts("Reset   ");
    59d4:	8a e9       	ldi	r24, 0x9A	; 154
    59d6:	92 e2       	ldi	r25, 0x22	; 34
    59d8:	0e 94 9d 0a 	call	0x153a	; 0x153a <_Z8lcd_putsPKc>
    59dc:	fd c1       	rjmp	.+1018   	; 0x5dd8 <main+0x1cd2>
				}
				if(position_main == 1)
    59de:	26 96       	adiw	r28, 0x06	; 6
    59e0:	ff ad       	ldd	r31, Y+63	; 0x3f
    59e2:	26 97       	sbiw	r28, 0x06	; 6
    59e4:	f1 30       	cpi	r31, 0x01	; 1
    59e6:	09 f0       	breq	.+2      	; 0x59ea <main+0x18e4>
    59e8:	fd c0       	rjmp	.+506    	; 0x5be4 <main+0x1ade>
				{
					if( get_key_short( 1<<KEY0 ))
    59ea:	80 e1       	ldi	r24, 0x10	; 16
    59ec:	0e 94 b1 0b 	call	0x1762	; 0x1762 <_Z13get_key_shorth>
    59f0:	88 23       	and	r24, r24
    59f2:	41 f0       	breq	.+16     	; 0x5a04 <main+0x18fe>
					{
						if(change_a)
    59f4:	81 e0       	ldi	r24, 0x01	; 1
    59f6:	29 96       	adiw	r28, 0x09	; 9
    59f8:	0f ad       	ldd	r16, Y+63	; 0x3f
    59fa:	29 97       	sbiw	r28, 0x09	; 9
    59fc:	08 27       	eor	r16, r24
    59fe:	29 96       	adiw	r28, 0x09	; 9
    5a00:	0f af       	std	Y+63, r16	; 0x3f
    5a02:	29 97       	sbiw	r28, 0x09	; 9
							change_a = false;
						else
							change_a = true;
					}
					lcd_gotoxy(left-1,4,port_expander_present);
    5a04:	40 91 25 23 	lds	r20, 0x2325	; 0x802325 <port_expander_present>
    5a08:	64 e0       	ldi	r22, 0x04	; 4
    5a0a:	80 e0       	ldi	r24, 0x00	; 0
    5a0c:	0e 94 0f 06 	call	0xc1e	; 0xc1e <_Z10lcd_gotoxyhhb>
					lcd_puts(" ");
    5a10:	8b ed       	ldi	r24, 0xDB	; 219
    5a12:	91 e2       	ldi	r25, 0x21	; 33
    5a14:	0e 94 9d 0a 	call	0x153a	; 0x153a <_Z8lcd_putsPKc>
					lcd_gotoxy(right-1,4,port_expander_present);
    5a18:	40 91 25 23 	lds	r20, 0x2325	; 0x802325 <port_expander_present>
    5a1c:	64 e0       	ldi	r22, 0x04	; 4
    5a1e:	8b e0       	ldi	r24, 0x0B	; 11
    5a20:	0e 94 0f 06 	call	0xc1e	; 0xc1e <_Z10lcd_gotoxyhhb>
					lcd_puts(" ");
    5a24:	8b ed       	ldi	r24, 0xDB	; 219
    5a26:	91 e2       	ldi	r25, 0x21	; 33
    5a28:	0e 94 9d 0a 	call	0x153a	; 0x153a <_Z8lcd_putsPKc>
					lcd_gotoxy(left-1,7,port_expander_present);
    5a2c:	40 91 25 23 	lds	r20, 0x2325	; 0x802325 <port_expander_present>
    5a30:	67 e0       	ldi	r22, 0x07	; 7
    5a32:	80 e0       	ldi	r24, 0x00	; 0
    5a34:	0e 94 0f 06 	call	0xc1e	; 0xc1e <_Z10lcd_gotoxyhhb>
					lcd_puts(">");
    5a38:	83 ea       	ldi	r24, 0xA3	; 163
    5a3a:	92 e2       	ldi	r25, 0x22	; 34
    5a3c:	0e 94 9d 0a 	call	0x153a	; 0x153a <_Z8lcd_putsPKc>
					lcd_gotoxy(right-1,7,port_expander_present);
    5a40:	40 91 25 23 	lds	r20, 0x2325	; 0x802325 <port_expander_present>
    5a44:	67 e0       	ldi	r22, 0x07	; 7
    5a46:	8b e0       	ldi	r24, 0x0B	; 11
    5a48:	0e 94 0f 06 	call	0xc1e	; 0xc1e <_Z10lcd_gotoxyhhb>
					lcd_puts(" ");
    5a4c:	8b ed       	ldi	r24, 0xDB	; 219
    5a4e:	91 e2       	ldi	r25, 0x21	; 33
    5a50:	0e 94 9d 0a 	call	0x153a	; 0x153a <_Z8lcd_putsPKc>
					lcd_gotoxy(left,7,port_expander_present);
    5a54:	40 91 25 23 	lds	r20, 0x2325	; 0x802325 <port_expander_present>
    5a58:	67 e0       	ldi	r22, 0x07	; 7
    5a5a:	81 e0       	ldi	r24, 0x01	; 1
    5a5c:	0e 94 0f 06 	call	0xc1e	; 0xc1e <_Z10lcd_gotoxyhhb>
					if(change_a)
    5a60:	29 96       	adiw	r28, 0x09	; 9
    5a62:	1f ad       	ldd	r17, Y+63	; 0x3f
    5a64:	29 97       	sbiw	r28, 0x09	; 9
    5a66:	11 23       	and	r17, r17
    5a68:	09 f4       	brne	.+2      	; 0x5a6c <main+0x1966>
    5a6a:	5e c0       	rjmp	.+188    	; 0x5b28 <main+0x1a22>
					{
						if(status_a == 0)
    5a6c:	25 96       	adiw	r28, 0x05	; 5
    5a6e:	2f ad       	ldd	r18, Y+63	; 0x3f
    5a70:	25 97       	sbiw	r28, 0x05	; 5
    5a72:	21 11       	cpse	r18, r1
    5a74:	05 c0       	rjmp	.+10     	; 0x5a80 <main+0x197a>
							lcd_puts_invert("Auto/Aus");
    5a76:	84 e7       	ldi	r24, 0x74	; 116
    5a78:	92 e2       	ldi	r25, 0x22	; 34
    5a7a:	0e 94 ac 0a 	call	0x1558	; 0x1558 <_Z15lcd_puts_invertPKc>
    5a7e:	14 c0       	rjmp	.+40     	; 0x5aa8 <main+0x19a2>
						if(status_a == 1)
    5a80:	25 96       	adiw	r28, 0x05	; 5
    5a82:	3f ad       	ldd	r19, Y+63	; 0x3f
    5a84:	25 97       	sbiw	r28, 0x05	; 5
    5a86:	31 30       	cpi	r19, 0x01	; 1
    5a88:	29 f4       	brne	.+10     	; 0x5a94 <main+0x198e>
							lcd_puts_invert("Auto/An ");
    5a8a:	8d e7       	ldi	r24, 0x7D	; 125
    5a8c:	92 e2       	ldi	r25, 0x22	; 34
    5a8e:	0e 94 ac 0a 	call	0x1558	; 0x1558 <_Z15lcd_puts_invertPKc>
    5a92:	14 c0       	rjmp	.+40     	; 0x5abc <main+0x19b6>
						if(status_a == 2)
    5a94:	25 96       	adiw	r28, 0x05	; 5
    5a96:	4f ad       	ldd	r20, Y+63	; 0x3f
    5a98:	25 97       	sbiw	r28, 0x05	; 5
    5a9a:	42 30       	cpi	r20, 0x02	; 2
    5a9c:	29 f4       	brne	.+10     	; 0x5aa8 <main+0x19a2>
							lcd_puts_invert("Hand/Aus");
    5a9e:	85 ea       	ldi	r24, 0xA5	; 165
    5aa0:	92 e2       	ldi	r25, 0x22	; 34
    5aa2:	0e 94 ac 0a 	call	0x1558	; 0x1558 <_Z15lcd_puts_invertPKc>
    5aa6:	13 c0       	rjmp	.+38     	; 0x5ace <main+0x19c8>
						if(status_a == 3)
    5aa8:	25 96       	adiw	r28, 0x05	; 5
    5aaa:	5f ad       	ldd	r21, Y+63	; 0x3f
    5aac:	25 97       	sbiw	r28, 0x05	; 5
    5aae:	53 30       	cpi	r21, 0x03	; 3
    5ab0:	29 f4       	brne	.+10     	; 0x5abc <main+0x19b6>
							lcd_puts_invert("Hand/An ");
    5ab2:	8e ea       	ldi	r24, 0xAE	; 174
    5ab4:	92 e2       	ldi	r25, 0x22	; 34
    5ab6:	0e 94 ac 0a 	call	0x1558	; 0x1558 <_Z15lcd_puts_invertPKc>
    5aba:	09 c0       	rjmp	.+18     	; 0x5ace <main+0x19c8>
						if(status_a == 4)
    5abc:	25 96       	adiw	r28, 0x05	; 5
    5abe:	8f ad       	ldd	r24, Y+63	; 0x3f
    5ac0:	25 97       	sbiw	r28, 0x05	; 5
    5ac2:	84 30       	cpi	r24, 0x04	; 4
    5ac4:	21 f4       	brne	.+8      	; 0x5ace <main+0x19c8>
							lcd_puts_invert("Reset   ");
    5ac6:	8a e9       	ldi	r24, 0x9A	; 154
    5ac8:	92 e2       	ldi	r25, 0x22	; 34
    5aca:	0e 94 ac 0a 	call	0x1558	; 0x1558 <_Z15lcd_puts_invertPKc>
						lcd_gotoxy(right,7,port_expander_present);
    5ace:	40 91 25 23 	lds	r20, 0x2325	; 0x802325 <port_expander_present>
    5ad2:	67 e0       	ldi	r22, 0x07	; 7
    5ad4:	8c e0       	ldi	r24, 0x0C	; 12
    5ad6:	0e 94 0f 06 	call	0xc1e	; 0xc1e <_Z10lcd_gotoxyhhb>
						if(status_b == 0)
    5ada:	b1 10       	cpse	r11, r1
    5adc:	05 c0       	rjmp	.+10     	; 0x5ae8 <main+0x19e2>
						lcd_puts("Auto/Aus");
    5ade:	84 e7       	ldi	r24, 0x74	; 116
    5ae0:	92 e2       	ldi	r25, 0x22	; 34
    5ae2:	0e 94 9d 0a 	call	0x153a	; 0x153a <_Z8lcd_putsPKc>
    5ae6:	10 c0       	rjmp	.+32     	; 0x5b08 <main+0x1a02>
						if(status_b == 1)
    5ae8:	91 e0       	ldi	r25, 0x01	; 1
    5aea:	b9 12       	cpse	r11, r25
    5aec:	05 c0       	rjmp	.+10     	; 0x5af8 <main+0x19f2>
						lcd_puts("Auto/An ");
    5aee:	8d e7       	ldi	r24, 0x7D	; 125
    5af0:	92 e2       	ldi	r25, 0x22	; 34
    5af2:	0e 94 9d 0a 	call	0x153a	; 0x153a <_Z8lcd_putsPKc>
    5af6:	10 c0       	rjmp	.+32     	; 0x5b18 <main+0x1a12>
						if(status_b == 2)
    5af8:	a2 e0       	ldi	r26, 0x02	; 2
    5afa:	ba 12       	cpse	r11, r26
    5afc:	05 c0       	rjmp	.+10     	; 0x5b08 <main+0x1a02>
						lcd_puts("Hand/Aus");
    5afe:	85 ea       	ldi	r24, 0xA5	; 165
    5b00:	92 e2       	ldi	r25, 0x22	; 34
    5b02:	0e 94 9d 0a 	call	0x153a	; 0x153a <_Z8lcd_putsPKc>
    5b06:	a3 c1       	rjmp	.+838    	; 0x5e4e <main+0x1d48>
						if(status_b == 3)
    5b08:	b3 e0       	ldi	r27, 0x03	; 3
    5b0a:	bb 12       	cpse	r11, r27
    5b0c:	05 c0       	rjmp	.+10     	; 0x5b18 <main+0x1a12>
						lcd_puts("Hand/An ");
    5b0e:	8e ea       	ldi	r24, 0xAE	; 174
    5b10:	92 e2       	ldi	r25, 0x22	; 34
    5b12:	0e 94 9d 0a 	call	0x153a	; 0x153a <_Z8lcd_putsPKc>
    5b16:	60 c1       	rjmp	.+704    	; 0x5dd8 <main+0x1cd2>
						if(status_b == 4)
    5b18:	e4 e0       	ldi	r30, 0x04	; 4
    5b1a:	be 12       	cpse	r11, r30
    5b1c:	98 c1       	rjmp	.+816    	; 0x5e4e <main+0x1d48>
						lcd_puts("Reset   ");
    5b1e:	8a e9       	ldi	r24, 0x9A	; 154
    5b20:	92 e2       	ldi	r25, 0x22	; 34
    5b22:	0e 94 9d 0a 	call	0x153a	; 0x153a <_Z8lcd_putsPKc>
    5b26:	93 c1       	rjmp	.+806    	; 0x5e4e <main+0x1d48>
					}
					else
					{
						if(status_a == 0)
    5b28:	25 96       	adiw	r28, 0x05	; 5
    5b2a:	ff ad       	ldd	r31, Y+63	; 0x3f
    5b2c:	25 97       	sbiw	r28, 0x05	; 5
    5b2e:	f1 11       	cpse	r31, r1
    5b30:	05 c0       	rjmp	.+10     	; 0x5b3c <main+0x1a36>
							lcd_puts("Auto/Aus");
    5b32:	84 e7       	ldi	r24, 0x74	; 116
    5b34:	92 e2       	ldi	r25, 0x22	; 34
    5b36:	0e 94 9d 0a 	call	0x153a	; 0x153a <_Z8lcd_putsPKc>
    5b3a:	14 c0       	rjmp	.+40     	; 0x5b64 <main+0x1a5e>
						if(status_a == 1)
    5b3c:	25 96       	adiw	r28, 0x05	; 5
    5b3e:	0f ad       	ldd	r16, Y+63	; 0x3f
    5b40:	25 97       	sbiw	r28, 0x05	; 5
    5b42:	01 30       	cpi	r16, 0x01	; 1
    5b44:	29 f4       	brne	.+10     	; 0x5b50 <main+0x1a4a>
							lcd_puts("Auto/An ");
    5b46:	8d e7       	ldi	r24, 0x7D	; 125
    5b48:	92 e2       	ldi	r25, 0x22	; 34
    5b4a:	0e 94 9d 0a 	call	0x153a	; 0x153a <_Z8lcd_putsPKc>
    5b4e:	14 c0       	rjmp	.+40     	; 0x5b78 <main+0x1a72>
						if(status_a == 2)
    5b50:	25 96       	adiw	r28, 0x05	; 5
    5b52:	1f ad       	ldd	r17, Y+63	; 0x3f
    5b54:	25 97       	sbiw	r28, 0x05	; 5
    5b56:	12 30       	cpi	r17, 0x02	; 2
    5b58:	29 f4       	brne	.+10     	; 0x5b64 <main+0x1a5e>
							lcd_puts("Hand/Aus");
    5b5a:	85 ea       	ldi	r24, 0xA5	; 165
    5b5c:	92 e2       	ldi	r25, 0x22	; 34
    5b5e:	0e 94 9d 0a 	call	0x153a	; 0x153a <_Z8lcd_putsPKc>
    5b62:	13 c0       	rjmp	.+38     	; 0x5b8a <main+0x1a84>
						if(status_a == 3)
    5b64:	25 96       	adiw	r28, 0x05	; 5
    5b66:	2f ad       	ldd	r18, Y+63	; 0x3f
    5b68:	25 97       	sbiw	r28, 0x05	; 5
    5b6a:	23 30       	cpi	r18, 0x03	; 3
    5b6c:	29 f4       	brne	.+10     	; 0x5b78 <main+0x1a72>
							lcd_puts("Hand/An ");
    5b6e:	8e ea       	ldi	r24, 0xAE	; 174
    5b70:	92 e2       	ldi	r25, 0x22	; 34
    5b72:	0e 94 9d 0a 	call	0x153a	; 0x153a <_Z8lcd_putsPKc>
    5b76:	09 c0       	rjmp	.+18     	; 0x5b8a <main+0x1a84>
						if(status_a == 4)
    5b78:	25 96       	adiw	r28, 0x05	; 5
    5b7a:	3f ad       	ldd	r19, Y+63	; 0x3f
    5b7c:	25 97       	sbiw	r28, 0x05	; 5
    5b7e:	34 30       	cpi	r19, 0x04	; 4
    5b80:	21 f4       	brne	.+8      	; 0x5b8a <main+0x1a84>
							lcd_puts("Reset   ");
    5b82:	8a e9       	ldi	r24, 0x9A	; 154
    5b84:	92 e2       	ldi	r25, 0x22	; 34
    5b86:	0e 94 9d 0a 	call	0x153a	; 0x153a <_Z8lcd_putsPKc>
						lcd_gotoxy(right,7,port_expander_present);
    5b8a:	40 91 25 23 	lds	r20, 0x2325	; 0x802325 <port_expander_present>
    5b8e:	67 e0       	ldi	r22, 0x07	; 7
    5b90:	8c e0       	ldi	r24, 0x0C	; 12
    5b92:	0e 94 0f 06 	call	0xc1e	; 0xc1e <_Z10lcd_gotoxyhhb>
						if(status_b == 0)
    5b96:	b1 10       	cpse	r11, r1
    5b98:	05 c0       	rjmp	.+10     	; 0x5ba4 <main+0x1a9e>
						lcd_puts("Auto/Aus");
    5b9a:	84 e7       	ldi	r24, 0x74	; 116
    5b9c:	92 e2       	ldi	r25, 0x22	; 34
    5b9e:	0e 94 9d 0a 	call	0x153a	; 0x153a <_Z8lcd_putsPKc>
    5ba2:	10 c0       	rjmp	.+32     	; 0x5bc4 <main+0x1abe>
						if(status_b == 1)
    5ba4:	41 e0       	ldi	r20, 0x01	; 1
    5ba6:	b4 12       	cpse	r11, r20
    5ba8:	05 c0       	rjmp	.+10     	; 0x5bb4 <main+0x1aae>
						lcd_puts("Auto/An ");
    5baa:	8d e7       	ldi	r24, 0x7D	; 125
    5bac:	92 e2       	ldi	r25, 0x22	; 34
    5bae:	0e 94 9d 0a 	call	0x153a	; 0x153a <_Z8lcd_putsPKc>
    5bb2:	10 c0       	rjmp	.+32     	; 0x5bd4 <main+0x1ace>
						if(status_b == 2)
    5bb4:	52 e0       	ldi	r21, 0x02	; 2
    5bb6:	b5 12       	cpse	r11, r21
    5bb8:	05 c0       	rjmp	.+10     	; 0x5bc4 <main+0x1abe>
						lcd_puts("Hand/Aus");
    5bba:	85 ea       	ldi	r24, 0xA5	; 165
    5bbc:	92 e2       	ldi	r25, 0x22	; 34
    5bbe:	0e 94 9d 0a 	call	0x153a	; 0x153a <_Z8lcd_putsPKc>
    5bc2:	45 c1       	rjmp	.+650    	; 0x5e4e <main+0x1d48>
						if(status_b == 3)
    5bc4:	83 e0       	ldi	r24, 0x03	; 3
    5bc6:	b8 12       	cpse	r11, r24
    5bc8:	05 c0       	rjmp	.+10     	; 0x5bd4 <main+0x1ace>
						lcd_puts("Hand/An ");
    5bca:	8e ea       	ldi	r24, 0xAE	; 174
    5bcc:	92 e2       	ldi	r25, 0x22	; 34
    5bce:	0e 94 9d 0a 	call	0x153a	; 0x153a <_Z8lcd_putsPKc>
    5bd2:	02 c1       	rjmp	.+516    	; 0x5dd8 <main+0x1cd2>
						if(status_b == 4)
    5bd4:	94 e0       	ldi	r25, 0x04	; 4
    5bd6:	b9 12       	cpse	r11, r25
    5bd8:	3a c1       	rjmp	.+628    	; 0x5e4e <main+0x1d48>
						lcd_puts("Reset   ");
    5bda:	8a e9       	ldi	r24, 0x9A	; 154
    5bdc:	92 e2       	ldi	r25, 0x22	; 34
    5bde:	0e 94 9d 0a 	call	0x153a	; 0x153a <_Z8lcd_putsPKc>
    5be2:	35 c1       	rjmp	.+618    	; 0x5e4e <main+0x1d48>
					}
					
					
				}
				if(position_main == 2)
    5be4:	26 96       	adiw	r28, 0x06	; 6
    5be6:	af ad       	ldd	r26, Y+63	; 0x3f
    5be8:	26 97       	sbiw	r28, 0x06	; 6
    5bea:	a2 30       	cpi	r26, 0x02	; 2
    5bec:	09 f0       	breq	.+2      	; 0x5bf0 <main+0x1aea>
    5bee:	f4 c0       	rjmp	.+488    	; 0x5dd8 <main+0x1cd2>
				{
					if( get_key_short( 1<<KEY0 ))
    5bf0:	80 e1       	ldi	r24, 0x10	; 16
    5bf2:	0e 94 b1 0b 	call	0x1762	; 0x1762 <_Z13get_key_shorth>
    5bf6:	88 23       	and	r24, r24
    5bf8:	11 f0       	breq	.+4      	; 0x5bfe <main+0x1af8>
					{
						if(change_b)
    5bfa:	81 e0       	ldi	r24, 0x01	; 1
    5bfc:	a8 26       	eor	r10, r24
						change_b = false;
						else
						change_b = true;
					}
					lcd_gotoxy(left-1,4,port_expander_present);
    5bfe:	40 91 25 23 	lds	r20, 0x2325	; 0x802325 <port_expander_present>
    5c02:	64 e0       	ldi	r22, 0x04	; 4
    5c04:	80 e0       	ldi	r24, 0x00	; 0
    5c06:	0e 94 0f 06 	call	0xc1e	; 0xc1e <_Z10lcd_gotoxyhhb>
					lcd_puts(" ");
    5c0a:	8b ed       	ldi	r24, 0xDB	; 219
    5c0c:	91 e2       	ldi	r25, 0x21	; 33
    5c0e:	0e 94 9d 0a 	call	0x153a	; 0x153a <_Z8lcd_putsPKc>
					lcd_gotoxy(right-1,4,port_expander_present);
    5c12:	40 91 25 23 	lds	r20, 0x2325	; 0x802325 <port_expander_present>
    5c16:	64 e0       	ldi	r22, 0x04	; 4
    5c18:	8b e0       	ldi	r24, 0x0B	; 11
    5c1a:	0e 94 0f 06 	call	0xc1e	; 0xc1e <_Z10lcd_gotoxyhhb>
					lcd_puts(" ");
    5c1e:	8b ed       	ldi	r24, 0xDB	; 219
    5c20:	91 e2       	ldi	r25, 0x21	; 33
    5c22:	0e 94 9d 0a 	call	0x153a	; 0x153a <_Z8lcd_putsPKc>
					lcd_gotoxy(left-1,7,port_expander_present);
    5c26:	40 91 25 23 	lds	r20, 0x2325	; 0x802325 <port_expander_present>
    5c2a:	67 e0       	ldi	r22, 0x07	; 7
    5c2c:	80 e0       	ldi	r24, 0x00	; 0
    5c2e:	0e 94 0f 06 	call	0xc1e	; 0xc1e <_Z10lcd_gotoxyhhb>
					lcd_puts(" ");
    5c32:	8b ed       	ldi	r24, 0xDB	; 219
    5c34:	91 e2       	ldi	r25, 0x21	; 33
    5c36:	0e 94 9d 0a 	call	0x153a	; 0x153a <_Z8lcd_putsPKc>
					lcd_gotoxy(right-1,7,port_expander_present);
    5c3a:	40 91 25 23 	lds	r20, 0x2325	; 0x802325 <port_expander_present>
    5c3e:	67 e0       	ldi	r22, 0x07	; 7
    5c40:	8b e0       	ldi	r24, 0x0B	; 11
    5c42:	0e 94 0f 06 	call	0xc1e	; 0xc1e <_Z10lcd_gotoxyhhb>
					lcd_puts(">");
    5c46:	83 ea       	ldi	r24, 0xA3	; 163
    5c48:	92 e2       	ldi	r25, 0x22	; 34
    5c4a:	0e 94 9d 0a 	call	0x153a	; 0x153a <_Z8lcd_putsPKc>
					lcd_gotoxy(left,7,port_expander_present);
    5c4e:	40 91 25 23 	lds	r20, 0x2325	; 0x802325 <port_expander_present>
    5c52:	67 e0       	ldi	r22, 0x07	; 7
    5c54:	81 e0       	ldi	r24, 0x01	; 1
    5c56:	0e 94 0f 06 	call	0xc1e	; 0xc1e <_Z10lcd_gotoxyhhb>
					if(change_b)
    5c5a:	aa 20       	and	r10, r10
    5c5c:	09 f4       	brne	.+2      	; 0x5c60 <main+0x1b5a>
    5c5e:	5e c0       	rjmp	.+188    	; 0x5d1c <main+0x1c16>
					{
						if(status_a == 0)
    5c60:	25 96       	adiw	r28, 0x05	; 5
    5c62:	bf ad       	ldd	r27, Y+63	; 0x3f
    5c64:	25 97       	sbiw	r28, 0x05	; 5
    5c66:	b1 11       	cpse	r27, r1
    5c68:	05 c0       	rjmp	.+10     	; 0x5c74 <main+0x1b6e>
						lcd_puts("Auto/Aus");
    5c6a:	84 e7       	ldi	r24, 0x74	; 116
    5c6c:	92 e2       	ldi	r25, 0x22	; 34
    5c6e:	0e 94 9d 0a 	call	0x153a	; 0x153a <_Z8lcd_putsPKc>
    5c72:	14 c0       	rjmp	.+40     	; 0x5c9c <main+0x1b96>
						if(status_a == 1)
    5c74:	25 96       	adiw	r28, 0x05	; 5
    5c76:	ef ad       	ldd	r30, Y+63	; 0x3f
    5c78:	25 97       	sbiw	r28, 0x05	; 5
    5c7a:	e1 30       	cpi	r30, 0x01	; 1
    5c7c:	29 f4       	brne	.+10     	; 0x5c88 <main+0x1b82>
						lcd_puts("Auto/An ");
    5c7e:	8d e7       	ldi	r24, 0x7D	; 125
    5c80:	92 e2       	ldi	r25, 0x22	; 34
    5c82:	0e 94 9d 0a 	call	0x153a	; 0x153a <_Z8lcd_putsPKc>
    5c86:	14 c0       	rjmp	.+40     	; 0x5cb0 <main+0x1baa>
						if(status_a == 2)
    5c88:	25 96       	adiw	r28, 0x05	; 5
    5c8a:	ff ad       	ldd	r31, Y+63	; 0x3f
    5c8c:	25 97       	sbiw	r28, 0x05	; 5
    5c8e:	f2 30       	cpi	r31, 0x02	; 2
    5c90:	29 f4       	brne	.+10     	; 0x5c9c <main+0x1b96>
						lcd_puts("Hand/Aus");
    5c92:	85 ea       	ldi	r24, 0xA5	; 165
    5c94:	92 e2       	ldi	r25, 0x22	; 34
    5c96:	0e 94 9d 0a 	call	0x153a	; 0x153a <_Z8lcd_putsPKc>
    5c9a:	13 c0       	rjmp	.+38     	; 0x5cc2 <main+0x1bbc>
						if(status_a == 3)
    5c9c:	25 96       	adiw	r28, 0x05	; 5
    5c9e:	0f ad       	ldd	r16, Y+63	; 0x3f
    5ca0:	25 97       	sbiw	r28, 0x05	; 5
    5ca2:	03 30       	cpi	r16, 0x03	; 3
    5ca4:	29 f4       	brne	.+10     	; 0x5cb0 <main+0x1baa>
						lcd_puts("Hand/An ");
    5ca6:	8e ea       	ldi	r24, 0xAE	; 174
    5ca8:	92 e2       	ldi	r25, 0x22	; 34
    5caa:	0e 94 9d 0a 	call	0x153a	; 0x153a <_Z8lcd_putsPKc>
    5cae:	09 c0       	rjmp	.+18     	; 0x5cc2 <main+0x1bbc>
						if(status_a == 4)
    5cb0:	25 96       	adiw	r28, 0x05	; 5
    5cb2:	1f ad       	ldd	r17, Y+63	; 0x3f
    5cb4:	25 97       	sbiw	r28, 0x05	; 5
    5cb6:	14 30       	cpi	r17, 0x04	; 4
    5cb8:	21 f4       	brne	.+8      	; 0x5cc2 <main+0x1bbc>
						lcd_puts("Reset   ");
    5cba:	8a e9       	ldi	r24, 0x9A	; 154
    5cbc:	92 e2       	ldi	r25, 0x22	; 34
    5cbe:	0e 94 9d 0a 	call	0x153a	; 0x153a <_Z8lcd_putsPKc>
						lcd_gotoxy(right,7,port_expander_present);
    5cc2:	40 91 25 23 	lds	r20, 0x2325	; 0x802325 <port_expander_present>
    5cc6:	67 e0       	ldi	r22, 0x07	; 7
    5cc8:	8c e0       	ldi	r24, 0x0C	; 12
    5cca:	0e 94 0f 06 	call	0xc1e	; 0xc1e <_Z10lcd_gotoxyhhb>
						if(status_b == 0)
    5cce:	b1 10       	cpse	r11, r1
    5cd0:	05 c0       	rjmp	.+10     	; 0x5cdc <main+0x1bd6>
						lcd_puts_invert("Auto/Aus");
    5cd2:	84 e7       	ldi	r24, 0x74	; 116
    5cd4:	92 e2       	ldi	r25, 0x22	; 34
    5cd6:	0e 94 ac 0a 	call	0x1558	; 0x1558 <_Z15lcd_puts_invertPKc>
    5cda:	10 c0       	rjmp	.+32     	; 0x5cfc <main+0x1bf6>
						if(status_b == 1)
    5cdc:	21 e0       	ldi	r18, 0x01	; 1
    5cde:	b2 12       	cpse	r11, r18
    5ce0:	05 c0       	rjmp	.+10     	; 0x5cec <main+0x1be6>
						lcd_puts_invert("Auto/An ");
    5ce2:	8d e7       	ldi	r24, 0x7D	; 125
    5ce4:	92 e2       	ldi	r25, 0x22	; 34
    5ce6:	0e 94 ac 0a 	call	0x1558	; 0x1558 <_Z15lcd_puts_invertPKc>
    5cea:	10 c0       	rjmp	.+32     	; 0x5d0c <main+0x1c06>
						if(status_b == 2)
    5cec:	32 e0       	ldi	r19, 0x02	; 2
    5cee:	b3 12       	cpse	r11, r19
    5cf0:	05 c0       	rjmp	.+10     	; 0x5cfc <main+0x1bf6>
						lcd_puts_invert("Hand/Aus");
    5cf2:	85 ea       	ldi	r24, 0xA5	; 165
    5cf4:	92 e2       	ldi	r25, 0x22	; 34
    5cf6:	0e 94 ac 0a 	call	0x1558	; 0x1558 <_Z15lcd_puts_invertPKc>
    5cfa:	e3 c0       	rjmp	.+454    	; 0x5ec2 <main+0x1dbc>
						if(status_b == 3)
    5cfc:	43 e0       	ldi	r20, 0x03	; 3
    5cfe:	b4 12       	cpse	r11, r20
    5d00:	05 c0       	rjmp	.+10     	; 0x5d0c <main+0x1c06>
						lcd_puts_invert("Hand/An ");
    5d02:	8e ea       	ldi	r24, 0xAE	; 174
    5d04:	92 e2       	ldi	r25, 0x22	; 34
    5d06:	0e 94 ac 0a 	call	0x1558	; 0x1558 <_Z15lcd_puts_invertPKc>
    5d0a:	a1 c0       	rjmp	.+322    	; 0x5e4e <main+0x1d48>
						if(status_b == 4)
    5d0c:	54 e0       	ldi	r21, 0x04	; 4
    5d0e:	b5 12       	cpse	r11, r21
    5d10:	d8 c0       	rjmp	.+432    	; 0x5ec2 <main+0x1dbc>
						lcd_puts_invert("Reset   ");
    5d12:	8a e9       	ldi	r24, 0x9A	; 154
    5d14:	92 e2       	ldi	r25, 0x22	; 34
    5d16:	0e 94 ac 0a 	call	0x1558	; 0x1558 <_Z15lcd_puts_invertPKc>
    5d1a:	d3 c0       	rjmp	.+422    	; 0x5ec2 <main+0x1dbc>
						
					}
					else
					{
						if(status_a == 0)
    5d1c:	25 96       	adiw	r28, 0x05	; 5
    5d1e:	8f ad       	ldd	r24, Y+63	; 0x3f
    5d20:	25 97       	sbiw	r28, 0x05	; 5
    5d22:	81 11       	cpse	r24, r1
    5d24:	05 c0       	rjmp	.+10     	; 0x5d30 <main+0x1c2a>
						lcd_puts("Auto/Aus");
    5d26:	84 e7       	ldi	r24, 0x74	; 116
    5d28:	92 e2       	ldi	r25, 0x22	; 34
    5d2a:	0e 94 9d 0a 	call	0x153a	; 0x153a <_Z8lcd_putsPKc>
    5d2e:	14 c0       	rjmp	.+40     	; 0x5d58 <main+0x1c52>
						if(status_a == 1)
    5d30:	25 96       	adiw	r28, 0x05	; 5
    5d32:	9f ad       	ldd	r25, Y+63	; 0x3f
    5d34:	25 97       	sbiw	r28, 0x05	; 5
    5d36:	91 30       	cpi	r25, 0x01	; 1
    5d38:	29 f4       	brne	.+10     	; 0x5d44 <main+0x1c3e>
						lcd_puts("Auto/An ");
    5d3a:	8d e7       	ldi	r24, 0x7D	; 125
    5d3c:	92 e2       	ldi	r25, 0x22	; 34
    5d3e:	0e 94 9d 0a 	call	0x153a	; 0x153a <_Z8lcd_putsPKc>
    5d42:	14 c0       	rjmp	.+40     	; 0x5d6c <main+0x1c66>
						if(status_a == 2)
    5d44:	25 96       	adiw	r28, 0x05	; 5
    5d46:	af ad       	ldd	r26, Y+63	; 0x3f
    5d48:	25 97       	sbiw	r28, 0x05	; 5
    5d4a:	a2 30       	cpi	r26, 0x02	; 2
    5d4c:	29 f4       	brne	.+10     	; 0x5d58 <main+0x1c52>
						lcd_puts("Hand/Aus");
    5d4e:	85 ea       	ldi	r24, 0xA5	; 165
    5d50:	92 e2       	ldi	r25, 0x22	; 34
    5d52:	0e 94 9d 0a 	call	0x153a	; 0x153a <_Z8lcd_putsPKc>
    5d56:	13 c0       	rjmp	.+38     	; 0x5d7e <main+0x1c78>
						if(status_a == 3)
    5d58:	25 96       	adiw	r28, 0x05	; 5
    5d5a:	bf ad       	ldd	r27, Y+63	; 0x3f
    5d5c:	25 97       	sbiw	r28, 0x05	; 5
    5d5e:	b3 30       	cpi	r27, 0x03	; 3
    5d60:	29 f4       	brne	.+10     	; 0x5d6c <main+0x1c66>
						lcd_puts("Hand/An ");
    5d62:	8e ea       	ldi	r24, 0xAE	; 174
    5d64:	92 e2       	ldi	r25, 0x22	; 34
    5d66:	0e 94 9d 0a 	call	0x153a	; 0x153a <_Z8lcd_putsPKc>
    5d6a:	09 c0       	rjmp	.+18     	; 0x5d7e <main+0x1c78>
						if(status_a == 4)
    5d6c:	25 96       	adiw	r28, 0x05	; 5
    5d6e:	ef ad       	ldd	r30, Y+63	; 0x3f
    5d70:	25 97       	sbiw	r28, 0x05	; 5
    5d72:	e4 30       	cpi	r30, 0x04	; 4
    5d74:	21 f4       	brne	.+8      	; 0x5d7e <main+0x1c78>
						lcd_puts("Reset   ");
    5d76:	8a e9       	ldi	r24, 0x9A	; 154
    5d78:	92 e2       	ldi	r25, 0x22	; 34
    5d7a:	0e 94 9d 0a 	call	0x153a	; 0x153a <_Z8lcd_putsPKc>
						lcd_gotoxy(right,7,port_expander_present);
    5d7e:	40 91 25 23 	lds	r20, 0x2325	; 0x802325 <port_expander_present>
    5d82:	67 e0       	ldi	r22, 0x07	; 7
    5d84:	8c e0       	ldi	r24, 0x0C	; 12
    5d86:	0e 94 0f 06 	call	0xc1e	; 0xc1e <_Z10lcd_gotoxyhhb>
						if(status_b == 0)
    5d8a:	b1 10       	cpse	r11, r1
    5d8c:	05 c0       	rjmp	.+10     	; 0x5d98 <main+0x1c92>
						lcd_puts("Auto/Aus");
    5d8e:	84 e7       	ldi	r24, 0x74	; 116
    5d90:	92 e2       	ldi	r25, 0x22	; 34
    5d92:	0e 94 9d 0a 	call	0x153a	; 0x153a <_Z8lcd_putsPKc>
    5d96:	10 c0       	rjmp	.+32     	; 0x5db8 <main+0x1cb2>
						if(status_b == 1)
    5d98:	f1 e0       	ldi	r31, 0x01	; 1
    5d9a:	bf 12       	cpse	r11, r31
    5d9c:	05 c0       	rjmp	.+10     	; 0x5da8 <main+0x1ca2>
						lcd_puts("Auto/An ");
    5d9e:	8d e7       	ldi	r24, 0x7D	; 125
    5da0:	92 e2       	ldi	r25, 0x22	; 34
    5da2:	0e 94 9d 0a 	call	0x153a	; 0x153a <_Z8lcd_putsPKc>
    5da6:	10 c0       	rjmp	.+32     	; 0x5dc8 <main+0x1cc2>
						if(status_b == 2)
    5da8:	02 e0       	ldi	r16, 0x02	; 2
    5daa:	b0 12       	cpse	r11, r16
    5dac:	05 c0       	rjmp	.+10     	; 0x5db8 <main+0x1cb2>
						lcd_puts("Hand/Aus");
    5dae:	85 ea       	ldi	r24, 0xA5	; 165
    5db0:	92 e2       	ldi	r25, 0x22	; 34
    5db2:	0e 94 9d 0a 	call	0x153a	; 0x153a <_Z8lcd_putsPKc>
    5db6:	85 c0       	rjmp	.+266    	; 0x5ec2 <main+0x1dbc>
						if(status_b == 3)
    5db8:	13 e0       	ldi	r17, 0x03	; 3
    5dba:	b1 12       	cpse	r11, r17
    5dbc:	05 c0       	rjmp	.+10     	; 0x5dc8 <main+0x1cc2>
						lcd_puts("Hand/An ");
    5dbe:	8e ea       	ldi	r24, 0xAE	; 174
    5dc0:	92 e2       	ldi	r25, 0x22	; 34
    5dc2:	0e 94 9d 0a 	call	0x153a	; 0x153a <_Z8lcd_putsPKc>
    5dc6:	43 c0       	rjmp	.+134    	; 0x5e4e <main+0x1d48>
						if(status_b == 4)
    5dc8:	24 e0       	ldi	r18, 0x04	; 4
    5dca:	b2 12       	cpse	r11, r18
    5dcc:	7a c0       	rjmp	.+244    	; 0x5ec2 <main+0x1dbc>
						lcd_puts("Reset   ");
    5dce:	8a e9       	ldi	r24, 0x9A	; 154
    5dd0:	92 e2       	ldi	r25, 0x22	; 34
    5dd2:	0e 94 9d 0a 	call	0x153a	; 0x153a <_Z8lcd_putsPKc>
    5dd6:	75 c0       	rjmp	.+234    	; 0x5ec2 <main+0x1dbc>
					}
					
				}
				if(position_main == 3)
    5dd8:	26 96       	adiw	r28, 0x06	; 6
    5dda:	3f ad       	ldd	r19, Y+63	; 0x3f
    5ddc:	26 97       	sbiw	r28, 0x06	; 6
    5dde:	33 30       	cpi	r19, 0x03	; 3
    5de0:	b1 f5       	brne	.+108    	; 0x5e4e <main+0x1d48>
				{
					if( get_key_short( 1<<KEY0 ))
    5de2:	80 e1       	ldi	r24, 0x10	; 16
    5de4:	0e 94 b1 0b 	call	0x1762	; 0x1762 <_Z13get_key_shorth>
    5de8:	88 23       	and	r24, r24
    5dea:	41 f0       	breq	.+16     	; 0x5dfc <main+0x1cf6>
					{
						if(change_speed_a)
    5dec:	81 e0       	ldi	r24, 0x01	; 1
    5dee:	2d 96       	adiw	r28, 0x0d	; 13
    5df0:	4f ad       	ldd	r20, Y+63	; 0x3f
    5df2:	2d 97       	sbiw	r28, 0x0d	; 13
    5df4:	48 27       	eor	r20, r24
    5df6:	2d 96       	adiw	r28, 0x0d	; 13
    5df8:	4f af       	std	Y+63, r20	; 0x3f
    5dfa:	2d 97       	sbiw	r28, 0x0d	; 13
							change_speed_a = false;
						else
							change_speed_a = true;
					}
					lcd_gotoxy(left-1,4,port_expander_present);
    5dfc:	40 91 25 23 	lds	r20, 0x2325	; 0x802325 <port_expander_present>
    5e00:	64 e0       	ldi	r22, 0x04	; 4
    5e02:	80 e0       	ldi	r24, 0x00	; 0
    5e04:	0e 94 0f 06 	call	0xc1e	; 0xc1e <_Z10lcd_gotoxyhhb>
					lcd_puts(">");
    5e08:	83 ea       	ldi	r24, 0xA3	; 163
    5e0a:	92 e2       	ldi	r25, 0x22	; 34
    5e0c:	0e 94 9d 0a 	call	0x153a	; 0x153a <_Z8lcd_putsPKc>
					lcd_gotoxy(right-1,4,port_expander_present);
    5e10:	40 91 25 23 	lds	r20, 0x2325	; 0x802325 <port_expander_present>
    5e14:	64 e0       	ldi	r22, 0x04	; 4
    5e16:	8b e0       	ldi	r24, 0x0B	; 11
    5e18:	0e 94 0f 06 	call	0xc1e	; 0xc1e <_Z10lcd_gotoxyhhb>
					lcd_puts(" ");
    5e1c:	8b ed       	ldi	r24, 0xDB	; 219
    5e1e:	91 e2       	ldi	r25, 0x21	; 33
    5e20:	0e 94 9d 0a 	call	0x153a	; 0x153a <_Z8lcd_putsPKc>
					lcd_gotoxy(left-1,7,port_expander_present);
    5e24:	40 91 25 23 	lds	r20, 0x2325	; 0x802325 <port_expander_present>
    5e28:	67 e0       	ldi	r22, 0x07	; 7
    5e2a:	80 e0       	ldi	r24, 0x00	; 0
    5e2c:	0e 94 0f 06 	call	0xc1e	; 0xc1e <_Z10lcd_gotoxyhhb>
					lcd_puts(" ");
    5e30:	8b ed       	ldi	r24, 0xDB	; 219
    5e32:	91 e2       	ldi	r25, 0x21	; 33
    5e34:	0e 94 9d 0a 	call	0x153a	; 0x153a <_Z8lcd_putsPKc>
					lcd_gotoxy(right-1,7,port_expander_present);
    5e38:	40 91 25 23 	lds	r20, 0x2325	; 0x802325 <port_expander_present>
    5e3c:	67 e0       	ldi	r22, 0x07	; 7
    5e3e:	8b e0       	ldi	r24, 0x0B	; 11
    5e40:	0e 94 0f 06 	call	0xc1e	; 0xc1e <_Z10lcd_gotoxyhhb>
					lcd_puts(" ");
    5e44:	8b ed       	ldi	r24, 0xDB	; 219
    5e46:	91 e2       	ldi	r25, 0x21	; 33
    5e48:	0e 94 9d 0a 	call	0x153a	; 0x153a <_Z8lcd_putsPKc>
    5e4c:	3a c0       	rjmp	.+116    	; 0x5ec2 <main+0x1dbc>
					
				}
				if(position_main == 4)
    5e4e:	26 96       	adiw	r28, 0x06	; 6
    5e50:	5f ad       	ldd	r21, Y+63	; 0x3f
    5e52:	26 97       	sbiw	r28, 0x06	; 6
    5e54:	54 30       	cpi	r21, 0x04	; 4
    5e56:	a9 f5       	brne	.+106    	; 0x5ec2 <main+0x1dbc>
				{
					if( get_key_short( 1<<KEY0 ))
    5e58:	80 e1       	ldi	r24, 0x10	; 16
    5e5a:	0e 94 b1 0b 	call	0x1762	; 0x1762 <_Z13get_key_shorth>
    5e5e:	88 23       	and	r24, r24
    5e60:	41 f0       	breq	.+16     	; 0x5e72 <main+0x1d6c>
					{
						if(change_speed_b)
    5e62:	81 e0       	ldi	r24, 0x01	; 1
    5e64:	2c 96       	adiw	r28, 0x0c	; 12
    5e66:	9f ad       	ldd	r25, Y+63	; 0x3f
    5e68:	2c 97       	sbiw	r28, 0x0c	; 12
    5e6a:	98 27       	eor	r25, r24
    5e6c:	2c 96       	adiw	r28, 0x0c	; 12
    5e6e:	9f af       	std	Y+63, r25	; 0x3f
    5e70:	2c 97       	sbiw	r28, 0x0c	; 12
						change_speed_b = false;
						else
						change_speed_b = true;
					}
					lcd_gotoxy(left-1,4,port_expander_present);
    5e72:	40 91 25 23 	lds	r20, 0x2325	; 0x802325 <port_expander_present>
    5e76:	64 e0       	ldi	r22, 0x04	; 4
    5e78:	80 e0       	ldi	r24, 0x00	; 0
    5e7a:	0e 94 0f 06 	call	0xc1e	; 0xc1e <_Z10lcd_gotoxyhhb>
					lcd_puts(" ");
    5e7e:	8b ed       	ldi	r24, 0xDB	; 219
    5e80:	91 e2       	ldi	r25, 0x21	; 33
    5e82:	0e 94 9d 0a 	call	0x153a	; 0x153a <_Z8lcd_putsPKc>
					lcd_gotoxy(right-1,4,port_expander_present);
    5e86:	40 91 25 23 	lds	r20, 0x2325	; 0x802325 <port_expander_present>
    5e8a:	64 e0       	ldi	r22, 0x04	; 4
    5e8c:	8b e0       	ldi	r24, 0x0B	; 11
    5e8e:	0e 94 0f 06 	call	0xc1e	; 0xc1e <_Z10lcd_gotoxyhhb>
					lcd_puts(">");
    5e92:	83 ea       	ldi	r24, 0xA3	; 163
    5e94:	92 e2       	ldi	r25, 0x22	; 34
    5e96:	0e 94 9d 0a 	call	0x153a	; 0x153a <_Z8lcd_putsPKc>
					lcd_gotoxy(left-1,7,port_expander_present);
    5e9a:	40 91 25 23 	lds	r20, 0x2325	; 0x802325 <port_expander_present>
    5e9e:	67 e0       	ldi	r22, 0x07	; 7
    5ea0:	80 e0       	ldi	r24, 0x00	; 0
    5ea2:	0e 94 0f 06 	call	0xc1e	; 0xc1e <_Z10lcd_gotoxyhhb>
					lcd_puts(" ");
    5ea6:	8b ed       	ldi	r24, 0xDB	; 219
    5ea8:	91 e2       	ldi	r25, 0x21	; 33
    5eaa:	0e 94 9d 0a 	call	0x153a	; 0x153a <_Z8lcd_putsPKc>
					lcd_gotoxy(right-1,7,port_expander_present);
    5eae:	40 91 25 23 	lds	r20, 0x2325	; 0x802325 <port_expander_present>
    5eb2:	67 e0       	ldi	r22, 0x07	; 7
    5eb4:	8b e0       	ldi	r24, 0x0B	; 11
    5eb6:	0e 94 0f 06 	call	0xc1e	; 0xc1e <_Z10lcd_gotoxyhhb>
					lcd_puts(" ");
    5eba:	8b ed       	ldi	r24, 0xDB	; 219
    5ebc:	91 e2       	ldi	r25, 0x21	; 33
    5ebe:	0e 94 9d 0a 	call	0x153a	; 0x153a <_Z8lcd_putsPKc>
				utoa(calc_voltage(avg_voltage_b)%1000,int_buffer,10);
				strcat(text_buffer,int_buffer);
				strcat(text_buffer,helper);
				lcd_puts(text_buffer);
				avg_voltage_a = 0;
				avg_voltage_b = 0;
    5ec2:	41 2c       	mov	r4, r1
    5ec4:	51 2c       	mov	r5, r1
    5ec6:	32 01       	movw	r6, r4
				strcat(text_buffer,",");
				utoa(calc_voltage(avg_voltage_b)%1000,int_buffer,10);
				strcat(text_buffer,int_buffer);
				strcat(text_buffer,helper);
				lcd_puts(text_buffer);
				avg_voltage_a = 0;
    5ec8:	24 96       	adiw	r28, 0x04	; 4
    5eca:	1c ae       	std	Y+60, r1	; 0x3c
    5ecc:	1d ae       	std	Y+61, r1	; 0x3d
    5ece:	1e ae       	std	Y+62, r1	; 0x3e
    5ed0:	1f ae       	std	Y+63, r1	; 0x3f
    5ed2:	24 97       	sbiw	r28, 0x04	; 4
				lcd_puts(Str1);
				lcd_gotoxy(0,1,port_expander_present);
				uint16_t pwm_a = 0x3E8 - TCD0.CCA;
				uint16_t pwm_b = 0x3E8 - TCD0.CCB;
				char int_buffer[4];
				update_display = false;
    5ed4:	c1 2c       	mov	r12, r1
    5ed6:	0c 94 7f 22 	jmp	0x44fe	; 0x44fe <main+0x3f8>
		}
		
		//show settings
		else
		{
			if(menu.sub_menu == 0)
    5eda:	80 91 a0 23 	lds	r24, 0x23A0	; 0x8023a0 <menu>
    5ede:	81 11       	cpse	r24, r1
    5ee0:	05 c0       	rjmp	.+10     	; 0x5eec <main+0x1de6>
				position += encode_read2();
    5ee2:	0e 94 b4 10 	call	0x2168	; 0x2168 <_Z12encode_read2v>
    5ee6:	99 81       	ldd	r25, Y+1	; 0x01
    5ee8:	89 0f       	add	r24, r25
    5eea:	89 83       	std	Y+1, r24	; 0x01
			static uint8_t old_position = 255;
			char int_buffer[20];
			switch(menu.menu_point)
    5eec:	e0 91 a1 23 	lds	r30, 0x23A1	; 0x8023a1 <menu+0x1>
    5ef0:	8e 2f       	mov	r24, r30
    5ef2:	90 e0       	ldi	r25, 0x00	; 0
    5ef4:	86 31       	cpi	r24, 0x16	; 22
    5ef6:	91 05       	cpc	r25, r1
    5ef8:	08 f0       	brcs	.+2      	; 0x5efc <main+0x1df6>
    5efa:	f9 c2       	rjmp	.+1522   	; 0x64ee <main+0x23e8>
    5efc:	fc 01       	movw	r30, r24
    5efe:	ea 5c       	subi	r30, 0xCA	; 202
    5f00:	fd 4f       	sbci	r31, 0xFD	; 253
    5f02:	0c 94 50 3b 	jmp	0x76a0	; 0x76a0 <__tablejump2__>
				{
					case 0x00:
					{
						if(screen_clear)
    5f06:	80 91 a2 23 	lds	r24, 0x23A2	; 0x8023a2 <screen_clear>
    5f0a:	88 23       	and	r24, r24
    5f0c:	31 f0       	breq	.+12     	; 0x5f1a <main+0x1e14>
						{
							screen_clear = false;
    5f0e:	10 92 a2 23 	sts	0x23A2, r1	; 0x8023a2 <screen_clear>
							lcd_clrscr(port_expander_present);
    5f12:	80 91 25 23 	lds	r24, 0x2325	; 0x802325 <port_expander_present>
    5f16:	0e 94 85 06 	call	0xd0a	; 0xd0a <_Z10lcd_clrscrb>
						}
						lcd_gotoxy(1,0,port_expander_present);
    5f1a:	40 91 25 23 	lds	r20, 0x2325	; 0x802325 <port_expander_present>
    5f1e:	60 e0       	ldi	r22, 0x00	; 0
    5f20:	81 e0       	ldi	r24, 0x01	; 1
    5f22:	0e 94 0f 06 	call	0xc1e	; 0xc1e <_Z10lcd_gotoxyhhb>
						lcd_puts("Profil links:");
    5f26:	87 eb       	ldi	r24, 0xB7	; 183
    5f28:	92 e2       	ldi	r25, 0x22	; 34
    5f2a:	0e 94 9d 0a 	call	0x153a	; 0x153a <_Z8lcd_putsPKc>
						lcd_gotoxy(1,1,port_expander_present);
    5f2e:	40 91 25 23 	lds	r20, 0x2325	; 0x802325 <port_expander_present>
    5f32:	61 e0       	ldi	r22, 0x01	; 1
    5f34:	81 e0       	ldi	r24, 0x01	; 1
    5f36:	0e 94 0f 06 	call	0xc1e	; 0xc1e <_Z10lcd_gotoxyhhb>
						lcd_puts("Profil rechts:");
    5f3a:	85 ec       	ldi	r24, 0xC5	; 197
    5f3c:	92 e2       	ldi	r25, 0x22	; 34
    5f3e:	0e 94 9d 0a 	call	0x153a	; 0x153a <_Z8lcd_putsPKc>
						lcd_gotoxy(1,2,port_expander_present);
    5f42:	40 91 25 23 	lds	r20, 0x2325	; 0x802325 <port_expander_present>
    5f46:	62 e0       	ldi	r22, 0x02	; 2
    5f48:	81 e0       	ldi	r24, 0x01	; 1
    5f4a:	0e 94 0f 06 	call	0xc1e	; 0xc1e <_Z10lcd_gotoxyhhb>
						lcd_puts("Profile bearbeiten");
    5f4e:	84 ed       	ldi	r24, 0xD4	; 212
    5f50:	92 e2       	ldi	r25, 0x22	; 34
    5f52:	0e 94 9d 0a 	call	0x153a	; 0x153a <_Z8lcd_putsPKc>
						lcd_gotoxy(1,3,port_expander_present);
    5f56:	40 91 25 23 	lds	r20, 0x2325	; 0x802325 <port_expander_present>
    5f5a:	63 e0       	ldi	r22, 0x03	; 3
    5f5c:	81 e0       	ldi	r24, 0x01	; 1
    5f5e:	0e 94 0f 06 	call	0xc1e	; 0xc1e <_Z10lcd_gotoxyhhb>
						lcd_puts("Regelparm. 1");
    5f62:	87 ee       	ldi	r24, 0xE7	; 231
    5f64:	92 e2       	ldi	r25, 0x22	; 34
    5f66:	0e 94 9d 0a 	call	0x153a	; 0x153a <_Z8lcd_putsPKc>
						lcd_gotoxy(1,4,port_expander_present);
    5f6a:	40 91 25 23 	lds	r20, 0x2325	; 0x802325 <port_expander_present>
    5f6e:	64 e0       	ldi	r22, 0x04	; 4
    5f70:	81 e0       	ldi	r24, 0x01	; 1
    5f72:	0e 94 0f 06 	call	0xc1e	; 0xc1e <_Z10lcd_gotoxyhhb>
						lcd_puts("Regelparm. 2");
    5f76:	84 ef       	ldi	r24, 0xF4	; 244
    5f78:	92 e2       	ldi	r25, 0x22	; 34
    5f7a:	0e 94 9d 0a 	call	0x153a	; 0x153a <_Z8lcd_putsPKc>
						lcd_gotoxy(1,5,port_expander_present);
    5f7e:	40 91 25 23 	lds	r20, 0x2325	; 0x802325 <port_expander_present>
    5f82:	65 e0       	ldi	r22, 0x05	; 5
    5f84:	81 e0       	ldi	r24, 0x01	; 1
    5f86:	0e 94 0f 06 	call	0xc1e	; 0xc1e <_Z10lcd_gotoxyhhb>
						lcd_puts("Info");
    5f8a:	83 e5       	ldi	r24, 0x53	; 83
    5f8c:	91 e2       	ldi	r25, 0x21	; 33
    5f8e:	0e 94 9d 0a 	call	0x153a	; 0x153a <_Z8lcd_putsPKc>
						lcd_gotoxy(1,6,port_expander_present);
    5f92:	40 91 25 23 	lds	r20, 0x2325	; 0x802325 <port_expander_present>
    5f96:	66 e0       	ldi	r22, 0x06	; 6
    5f98:	81 e0       	ldi	r24, 0x01	; 1
    5f9a:	0e 94 0f 06 	call	0xc1e	; 0xc1e <_Z10lcd_gotoxyhhb>
						lcd_puts("Exit");
    5f9e:	81 e0       	ldi	r24, 0x01	; 1
    5fa0:	93 e2       	ldi	r25, 0x23	; 35
    5fa2:	0e 94 9d 0a 	call	0x153a	; 0x153a <_Z8lcd_putsPKc>
						
						if(position != old_position)
    5fa6:	89 81       	ldd	r24, Y+1	; 0x01
    5fa8:	90 91 00 21 	lds	r25, 0x2100	; 0x802100 <_ZZ4mainE12old_position>
    5fac:	89 17       	cp	r24, r25
    5fae:	71 f1       	breq	.+92     	; 0x600c <main+0x1f06>
						{
							if(position == 255)
    5fb0:	8f 3f       	cpi	r24, 0xFF	; 255
    5fb2:	11 f4       	brne	.+4      	; 0x5fb8 <main+0x1eb2>
								position = 6;
    5fb4:	86 e0       	ldi	r24, 0x06	; 6
    5fb6:	89 83       	std	Y+1, r24	; 0x01
							position = position%7;
    5fb8:	29 81       	ldd	r18, Y+1	; 0x01
    5fba:	85 e2       	ldi	r24, 0x25	; 37
    5fbc:	28 9f       	mul	r18, r24
    5fbe:	91 2d       	mov	r25, r1
    5fc0:	11 24       	eor	r1, r1
    5fc2:	82 2f       	mov	r24, r18
    5fc4:	89 1b       	sub	r24, r25
    5fc6:	86 95       	lsr	r24
    5fc8:	89 0f       	add	r24, r25
    5fca:	86 95       	lsr	r24
    5fcc:	86 95       	lsr	r24
    5fce:	98 2f       	mov	r25, r24
    5fd0:	99 0f       	add	r25, r25
    5fd2:	99 0f       	add	r25, r25
    5fd4:	99 0f       	add	r25, r25
    5fd6:	98 1b       	sub	r25, r24
    5fd8:	29 1b       	sub	r18, r25
    5fda:	29 83       	std	Y+1, r18	; 0x01
							old_position = position;
    5fdc:	20 93 00 21 	sts	0x2100, r18	; 0x802100 <_ZZ4mainE12old_position>
							for(uint8_t i= 0;i<7;i++)
    5fe0:	10 e0       	ldi	r17, 0x00	; 0
							{
								lcd_gotoxy(0,i,port_expander_present);
    5fe2:	40 91 25 23 	lds	r20, 0x2325	; 0x802325 <port_expander_present>
    5fe6:	61 2f       	mov	r22, r17
    5fe8:	80 e0       	ldi	r24, 0x00	; 0
    5fea:	0e 94 0f 06 	call	0xc1e	; 0xc1e <_Z10lcd_gotoxyhhb>
								if(i == position)
    5fee:	89 81       	ldd	r24, Y+1	; 0x01
    5ff0:	81 13       	cpse	r24, r17
    5ff2:	05 c0       	rjmp	.+10     	; 0x5ffe <main+0x1ef8>
								{
									lcd_puts(">");
    5ff4:	83 ea       	ldi	r24, 0xA3	; 163
    5ff6:	92 e2       	ldi	r25, 0x22	; 34
    5ff8:	0e 94 9d 0a 	call	0x153a	; 0x153a <_Z8lcd_putsPKc>
    5ffc:	04 c0       	rjmp	.+8      	; 0x6006 <main+0x1f00>
								}
								else
								{
									lcd_puts(" ");
    5ffe:	8b ed       	ldi	r24, 0xDB	; 219
    6000:	91 e2       	ldi	r25, 0x21	; 33
    6002:	0e 94 9d 0a 	call	0x153a	; 0x153a <_Z8lcd_putsPKc>
						{
							if(position == 255)
								position = 6;
							position = position%7;
							old_position = position;
							for(uint8_t i= 0;i<7;i++)
    6006:	1f 5f       	subi	r17, 0xFF	; 255
    6008:	17 30       	cpi	r17, 0x07	; 7
    600a:	59 f7       	brne	.-42     	; 0x5fe2 <main+0x1edc>
								{
									lcd_puts(" ");
								}
							}
						}
						if( get_key_short( 1<<KEY0 ))
    600c:	80 e1       	ldi	r24, 0x10	; 16
    600e:	0e 94 b1 0b 	call	0x1762	; 0x1762 <_Z13get_key_shorth>
    6012:	88 23       	and	r24, r24
    6014:	11 f4       	brne	.+4      	; 0x601a <main+0x1f14>
    6016:	0c 94 7f 22 	jmp	0x44fe	; 0x44fe <main+0x3f8>
						{
							if(position != 6)
    601a:	89 81       	ldd	r24, Y+1	; 0x01
    601c:	86 30       	cpi	r24, 0x06	; 6
    601e:	59 f0       	breq	.+22     	; 0x6036 <main+0x1f30>
							{
								menu.menu_point = position | 0x10;
    6020:	80 61       	ori	r24, 0x10	; 16
    6022:	80 93 a1 23 	sts	0x23A1, r24	; 0x8023a1 <menu+0x1>
								screen_clear = true;
    6026:	81 e0       	ldi	r24, 0x01	; 1
    6028:	80 93 a2 23 	sts	0x23A2, r24	; 0x8023a2 <screen_clear>
								position = 0;
    602c:	19 82       	std	Y+1, r1	; 0x01
								old_position = 1;
    602e:	80 93 00 21 	sts	0x2100, r24	; 0x802100 <_ZZ4mainE12old_position>
    6032:	0c 94 7f 22 	jmp	0x44fe	; 0x44fe <main+0x3f8>
								
							}
							else
							{
								show_menu = false;
    6036:	10 92 a3 23 	sts	0x23A3, r1	; 0x8023a3 <show_menu>
								recalc_time = true;
    603a:	81 e0       	ldi	r24, 0x01	; 1
    603c:	80 93 11 24 	sts	0x2411, r24	; 0x802411 <recalc_time>
								update_display = true;
								lcd_clrscr(port_expander_present);
    6040:	80 91 25 23 	lds	r24, 0x2325	; 0x802325 <port_expander_present>
    6044:	0e 94 85 06 	call	0xd0a	; 0xd0a <_Z10lcd_clrscrb>
							}
							else
							{
								show_menu = false;
								recalc_time = true;
								update_display = true;
    6048:	cc 24       	eor	r12, r12
    604a:	c3 94       	inc	r12
    604c:	0c 94 7f 22 	jmp	0x44fe	; 0x44fe <main+0x3f8>
						
					}
					break;
					case 0x10:
					{
						display_menu(&position,int_buffer,p_Profile_a,&old_position,true,&screen_clear);
    6050:	40 91 0d 21 	lds	r20, 0x210D	; 0x80210d <p_Profile_a>
    6054:	50 91 0e 21 	lds	r21, 0x210E	; 0x80210e <p_Profile_a+0x1>
    6058:	0f 2e       	mov	r0, r31
    605a:	f2 ea       	ldi	r31, 0xA2	; 162
    605c:	ef 2e       	mov	r14, r31
    605e:	f3 e2       	ldi	r31, 0x23	; 35
    6060:	ff 2e       	mov	r15, r31
    6062:	f0 2d       	mov	r31, r0
    6064:	01 e0       	ldi	r16, 0x01	; 1
    6066:	20 e0       	ldi	r18, 0x00	; 0
    6068:	31 e2       	ldi	r19, 0x21	; 33
    606a:	be 01       	movw	r22, r28
    606c:	67 5d       	subi	r22, 0xD7	; 215
    606e:	7f 4f       	sbci	r23, 0xFF	; 255
    6070:	ce 01       	movw	r24, r28
    6072:	01 96       	adiw	r24, 0x01	; 1
    6074:	0e 94 06 1c 	call	0x380c	; 0x380c <_Z12display_menuPhPcP13Speed_profileS_bPb>
						if(position != old_position)
    6078:	89 81       	ldd	r24, Y+1	; 0x01
    607a:	90 91 00 21 	lds	r25, 0x2100	; 0x802100 <_ZZ4mainE12old_position>
    607e:	89 17       	cp	r24, r25
    6080:	f9 f0       	breq	.+62     	; 0x60c0 <main+0x1fba>
						{
							if(position == 255)
    6082:	8f 3f       	cpi	r24, 0xFF	; 255
    6084:	11 f4       	brne	.+4      	; 0x608a <main+0x1f84>
							position = 8;
    6086:	88 e0       	ldi	r24, 0x08	; 8
    6088:	89 83       	std	Y+1, r24	; 0x01
							position = position%8;
    608a:	89 81       	ldd	r24, Y+1	; 0x01
    608c:	87 70       	andi	r24, 0x07	; 7
    608e:	89 83       	std	Y+1, r24	; 0x01
							old_position = position;
    6090:	80 93 00 21 	sts	0x2100, r24	; 0x802100 <_ZZ4mainE12old_position>
							for(uint8_t i= 0;i<8;i++)
    6094:	10 e0       	ldi	r17, 0x00	; 0
							{
								lcd_gotoxy(0,i,port_expander_present);
    6096:	40 91 25 23 	lds	r20, 0x2325	; 0x802325 <port_expander_present>
    609a:	61 2f       	mov	r22, r17
    609c:	80 e0       	ldi	r24, 0x00	; 0
    609e:	0e 94 0f 06 	call	0xc1e	; 0xc1e <_Z10lcd_gotoxyhhb>
								if(i == position)
    60a2:	89 81       	ldd	r24, Y+1	; 0x01
    60a4:	81 13       	cpse	r24, r17
    60a6:	05 c0       	rjmp	.+10     	; 0x60b2 <main+0x1fac>
								{
									lcd_puts(">");
    60a8:	83 ea       	ldi	r24, 0xA3	; 163
    60aa:	92 e2       	ldi	r25, 0x22	; 34
    60ac:	0e 94 9d 0a 	call	0x153a	; 0x153a <_Z8lcd_putsPKc>
    60b0:	04 c0       	rjmp	.+8      	; 0x60ba <main+0x1fb4>
								}
								else
								{
									lcd_puts(" ");
    60b2:	8b ed       	ldi	r24, 0xDB	; 219
    60b4:	91 e2       	ldi	r25, 0x21	; 33
    60b6:	0e 94 9d 0a 	call	0x153a	; 0x153a <_Z8lcd_putsPKc>
						{
							if(position == 255)
							position = 8;
							position = position%8;
							old_position = position;
							for(uint8_t i= 0;i<8;i++)
    60ba:	1f 5f       	subi	r17, 0xFF	; 255
    60bc:	18 30       	cpi	r17, 0x08	; 8
    60be:	59 f7       	brne	.-42     	; 0x6096 <main+0x1f90>
									lcd_puts(" ");
								}
							}
						}
						
						if(get_key_short( 1<<KEY0 ))
    60c0:	80 e1       	ldi	r24, 0x10	; 16
    60c2:	0e 94 b1 0b 	call	0x1762	; 0x1762 <_Z13get_key_shorth>
    60c6:	88 23       	and	r24, r24
    60c8:	11 f4       	brne	.+4      	; 0x60ce <main+0x1fc8>
    60ca:	0c 94 7f 22 	jmp	0x44fe	; 0x44fe <main+0x3f8>
						{
							if(position == 0)
    60ce:	89 81       	ldd	r24, Y+1	; 0x01
    60d0:	81 11       	cpse	r24, r1
    60d2:	21 c0       	rjmp	.+66     	; 0x6116 <main+0x2010>
							{
								menu.menu_point = 0;
    60d4:	10 92 a1 23 	sts	0x23A1, r1	; 0x8023a1 <menu+0x1>
								screen_clear = true;
    60d8:	81 e0       	ldi	r24, 0x01	; 1
    60da:	80 93 a2 23 	sts	0x23A2, r24	; 0x8023a2 <screen_clear>
								p_Profile_a->CRC_value = calculate_crc32_checksum((unsigned char *)p_Profile_a,sizeof(Speed_profile_t)-4);
    60de:	00 91 0d 21 	lds	r16, 0x210D	; 0x80210d <p_Profile_a>
    60e2:	10 91 0e 21 	lds	r17, 0x210E	; 0x80210e <p_Profile_a+0x1>
    60e6:	6b e1       	ldi	r22, 0x1B	; 27
    60e8:	c8 01       	movw	r24, r16
    60ea:	0e 94 f8 03 	call	0x7f0	; 0x7f0 <_Z24calculate_crc32_checksumPhh>
    60ee:	d8 01       	movw	r26, r16
    60f0:	5b 96       	adiw	r26, 0x1b	; 27
    60f2:	6d 93       	st	X+, r22
    60f4:	7d 93       	st	X+, r23
    60f6:	8d 93       	st	X+, r24
    60f8:	9c 93       	st	X, r25
    60fa:	5e 97       	sbiw	r26, 0x1e	; 30
								write_profile(p_Profile_a,0,TWI_FRAM_present,offset_profile_a);
    60fc:	28 e2       	ldi	r18, 0x28	; 40
    60fe:	30 e0       	ldi	r19, 0x00	; 0
    6100:	40 91 24 23 	lds	r20, 0x2324	; 0x802324 <TWI_FRAM_present>
    6104:	60 e0       	ldi	r22, 0x00	; 0
    6106:	80 91 0d 21 	lds	r24, 0x210D	; 0x80210d <p_Profile_a>
    610a:	90 91 0e 21 	lds	r25, 0x210E	; 0x80210e <p_Profile_a+0x1>
    610e:	0e 94 08 05 	call	0xa10	; 0xa10 <_Z13write_profileP13Speed_profilehbj>
    6112:	0c 94 7f 22 	jmp	0x44fe	; 0x44fe <main+0x3f8>
							}
							else
							{
								menu.sub_menu = position <<4;
    6116:	82 95       	swap	r24
    6118:	80 7f       	andi	r24, 0xF0	; 240
    611a:	80 93 a0 23 	sts	0x23A0, r24	; 0x8023a0 <menu>
    611e:	0c 94 7f 22 	jmp	0x44fe	; 0x44fe <main+0x3f8>
						
					}
					break;
					case 0x11:
					{
						display_menu(&position,int_buffer,p_Profile_b,&old_position,false,&screen_clear);
    6122:	40 91 0b 21 	lds	r20, 0x210B	; 0x80210b <p_Profile_b>
    6126:	50 91 0c 21 	lds	r21, 0x210C	; 0x80210c <p_Profile_b+0x1>
    612a:	0f 2e       	mov	r0, r31
    612c:	f2 ea       	ldi	r31, 0xA2	; 162
    612e:	ef 2e       	mov	r14, r31
    6130:	f3 e2       	ldi	r31, 0x23	; 35
    6132:	ff 2e       	mov	r15, r31
    6134:	f0 2d       	mov	r31, r0
    6136:	00 e0       	ldi	r16, 0x00	; 0
    6138:	20 e0       	ldi	r18, 0x00	; 0
    613a:	31 e2       	ldi	r19, 0x21	; 33
    613c:	be 01       	movw	r22, r28
    613e:	67 5d       	subi	r22, 0xD7	; 215
    6140:	7f 4f       	sbci	r23, 0xFF	; 255
    6142:	ce 01       	movw	r24, r28
    6144:	01 96       	adiw	r24, 0x01	; 1
    6146:	0e 94 06 1c 	call	0x380c	; 0x380c <_Z12display_menuPhPcP13Speed_profileS_bPb>
						if(position != old_position)
    614a:	89 81       	ldd	r24, Y+1	; 0x01
    614c:	90 91 00 21 	lds	r25, 0x2100	; 0x802100 <_ZZ4mainE12old_position>
    6150:	89 17       	cp	r24, r25
    6152:	f9 f0       	breq	.+62     	; 0x6192 <main+0x208c>
						{
							if(position == 255)
    6154:	8f 3f       	cpi	r24, 0xFF	; 255
    6156:	11 f4       	brne	.+4      	; 0x615c <main+0x2056>
							position = 8;
    6158:	88 e0       	ldi	r24, 0x08	; 8
    615a:	89 83       	std	Y+1, r24	; 0x01
							position = position%8;
    615c:	89 81       	ldd	r24, Y+1	; 0x01
    615e:	87 70       	andi	r24, 0x07	; 7
    6160:	89 83       	std	Y+1, r24	; 0x01
							old_position = position;
    6162:	80 93 00 21 	sts	0x2100, r24	; 0x802100 <_ZZ4mainE12old_position>
							for(uint8_t i= 0;i<8;i++)
    6166:	10 e0       	ldi	r17, 0x00	; 0
							{
								lcd_gotoxy(0,i,port_expander_present);
    6168:	40 91 25 23 	lds	r20, 0x2325	; 0x802325 <port_expander_present>
    616c:	61 2f       	mov	r22, r17
    616e:	80 e0       	ldi	r24, 0x00	; 0
    6170:	0e 94 0f 06 	call	0xc1e	; 0xc1e <_Z10lcd_gotoxyhhb>
								if(i == position)
    6174:	89 81       	ldd	r24, Y+1	; 0x01
    6176:	81 13       	cpse	r24, r17
    6178:	05 c0       	rjmp	.+10     	; 0x6184 <main+0x207e>
								{
									lcd_puts(">");
    617a:	83 ea       	ldi	r24, 0xA3	; 163
    617c:	92 e2       	ldi	r25, 0x22	; 34
    617e:	0e 94 9d 0a 	call	0x153a	; 0x153a <_Z8lcd_putsPKc>
    6182:	04 c0       	rjmp	.+8      	; 0x618c <main+0x2086>
								}
								else
								{
									lcd_puts(" ");
    6184:	8b ed       	ldi	r24, 0xDB	; 219
    6186:	91 e2       	ldi	r25, 0x21	; 33
    6188:	0e 94 9d 0a 	call	0x153a	; 0x153a <_Z8lcd_putsPKc>
						{
							if(position == 255)
							position = 8;
							position = position%8;
							old_position = position;
							for(uint8_t i= 0;i<8;i++)
    618c:	1f 5f       	subi	r17, 0xFF	; 255
    618e:	18 30       	cpi	r17, 0x08	; 8
    6190:	59 f7       	brne	.-42     	; 0x6168 <main+0x2062>
									lcd_puts(" ");
								}
							}
						}
						
						if(get_key_short( 1<<KEY0 ))
    6192:	80 e1       	ldi	r24, 0x10	; 16
    6194:	0e 94 b1 0b 	call	0x1762	; 0x1762 <_Z13get_key_shorth>
    6198:	88 23       	and	r24, r24
    619a:	11 f4       	brne	.+4      	; 0x61a0 <main+0x209a>
    619c:	0c 94 7f 22 	jmp	0x44fe	; 0x44fe <main+0x3f8>
						{
							if(position == 0)
    61a0:	89 81       	ldd	r24, Y+1	; 0x01
    61a2:	81 11       	cpse	r24, r1
    61a4:	1f c0       	rjmp	.+62     	; 0x61e4 <main+0x20de>
							{
								p_Profile_b->CRC_value = calculate_crc32_checksum((unsigned char *)p_Profile_b,sizeof(Speed_profile_t)-4);
    61a6:	00 91 0b 21 	lds	r16, 0x210B	; 0x80210b <p_Profile_b>
    61aa:	10 91 0c 21 	lds	r17, 0x210C	; 0x80210c <p_Profile_b+0x1>
    61ae:	6b e1       	ldi	r22, 0x1B	; 27
    61b0:	c8 01       	movw	r24, r16
    61b2:	0e 94 f8 03 	call	0x7f0	; 0x7f0 <_Z24calculate_crc32_checksumPhh>
    61b6:	f8 01       	movw	r30, r16
    61b8:	63 8f       	std	Z+27, r22	; 0x1b
    61ba:	74 8f       	std	Z+28, r23	; 0x1c
    61bc:	85 8f       	std	Z+29, r24	; 0x1d
    61be:	96 8f       	std	Z+30, r25	; 0x1e
								write_profile(p_Profile_b,0,TWI_FRAM_present,offset_profile_b);
    61c0:	27 e4       	ldi	r18, 0x47	; 71
    61c2:	30 e0       	ldi	r19, 0x00	; 0
    61c4:	40 91 24 23 	lds	r20, 0x2324	; 0x802324 <TWI_FRAM_present>
    61c8:	60 e0       	ldi	r22, 0x00	; 0
    61ca:	80 91 0b 21 	lds	r24, 0x210B	; 0x80210b <p_Profile_b>
    61ce:	90 91 0c 21 	lds	r25, 0x210C	; 0x80210c <p_Profile_b+0x1>
    61d2:	0e 94 08 05 	call	0xa10	; 0xa10 <_Z13write_profileP13Speed_profilehbj>
								menu.menu_point = 0;
    61d6:	10 92 a1 23 	sts	0x23A1, r1	; 0x8023a1 <menu+0x1>
								screen_clear = true;
    61da:	81 e0       	ldi	r24, 0x01	; 1
    61dc:	80 93 a2 23 	sts	0x23A2, r24	; 0x8023a2 <screen_clear>
    61e0:	0c 94 7f 22 	jmp	0x44fe	; 0x44fe <main+0x3f8>
							}
							else
							{
								menu.sub_menu = position <<4;
    61e4:	82 95       	swap	r24
    61e6:	80 7f       	andi	r24, 0xF0	; 240
    61e8:	80 93 a0 23 	sts	0x23A0, r24	; 0x8023a0 <menu>
    61ec:	0c 94 7f 22 	jmp	0x44fe	; 0x44fe <main+0x3f8>
						
					}
					break;
					case 0x12:
					{
						change_profile_menu(&position,p_profile_mod,int_buffer,&old_position,&ID_mod,&screen_clear);
    61f0:	60 91 04 21 	lds	r22, 0x2104	; 0x802104 <p_profile_mod>
    61f4:	70 91 05 21 	lds	r23, 0x2105	; 0x802105 <p_profile_mod+0x1>
    61f8:	0f 2e       	mov	r0, r31
    61fa:	f2 ea       	ldi	r31, 0xA2	; 162
    61fc:	ef 2e       	mov	r14, r31
    61fe:	f3 e2       	ldi	r31, 0x23	; 35
    6200:	ff 2e       	mov	r15, r31
    6202:	f0 2d       	mov	r31, r0
    6204:	06 e2       	ldi	r16, 0x26	; 38
    6206:	13 e2       	ldi	r17, 0x23	; 35
    6208:	20 e0       	ldi	r18, 0x00	; 0
    620a:	31 e2       	ldi	r19, 0x21	; 33
    620c:	ae 01       	movw	r20, r28
    620e:	47 5d       	subi	r20, 0xD7	; 215
    6210:	5f 4f       	sbci	r21, 0xFF	; 255
    6212:	ce 01       	movw	r24, r28
    6214:	01 96       	adiw	r24, 0x01	; 1
    6216:	0e 94 8a 17 	call	0x2f14	; 0x2f14 <_Z19change_profile_menuPhP13Speed_profilePcS_S_Pb>
						if(position != old_position)
    621a:	89 81       	ldd	r24, Y+1	; 0x01
    621c:	90 91 00 21 	lds	r25, 0x2100	; 0x802100 <_ZZ4mainE12old_position>
    6220:	89 17       	cp	r24, r25
    6222:	f9 f0       	breq	.+62     	; 0x6262 <main+0x215c>
						{
							if(position == 255)
    6224:	8f 3f       	cpi	r24, 0xFF	; 255
    6226:	11 f4       	brne	.+4      	; 0x622c <main+0x2126>
							position = 8;
    6228:	88 e0       	ldi	r24, 0x08	; 8
    622a:	89 83       	std	Y+1, r24	; 0x01
							position = position%8;
    622c:	89 81       	ldd	r24, Y+1	; 0x01
    622e:	87 70       	andi	r24, 0x07	; 7
    6230:	89 83       	std	Y+1, r24	; 0x01
							old_position = position;
    6232:	80 93 00 21 	sts	0x2100, r24	; 0x802100 <_ZZ4mainE12old_position>
							for(uint8_t i= 0;i<8;i++)
    6236:	10 e0       	ldi	r17, 0x00	; 0
							{
								lcd_gotoxy(0,i,port_expander_present);
    6238:	40 91 25 23 	lds	r20, 0x2325	; 0x802325 <port_expander_present>
    623c:	61 2f       	mov	r22, r17
    623e:	80 e0       	ldi	r24, 0x00	; 0
    6240:	0e 94 0f 06 	call	0xc1e	; 0xc1e <_Z10lcd_gotoxyhhb>
								if(i == position)
    6244:	89 81       	ldd	r24, Y+1	; 0x01
    6246:	81 13       	cpse	r24, r17
    6248:	05 c0       	rjmp	.+10     	; 0x6254 <main+0x214e>
								{
									lcd_puts(">");
    624a:	83 ea       	ldi	r24, 0xA3	; 163
    624c:	92 e2       	ldi	r25, 0x22	; 34
    624e:	0e 94 9d 0a 	call	0x153a	; 0x153a <_Z8lcd_putsPKc>
    6252:	04 c0       	rjmp	.+8      	; 0x625c <main+0x2156>
								}
								else
								{
									lcd_puts(" ");
    6254:	8b ed       	ldi	r24, 0xDB	; 219
    6256:	91 e2       	ldi	r25, 0x21	; 33
    6258:	0e 94 9d 0a 	call	0x153a	; 0x153a <_Z8lcd_putsPKc>
						{
							if(position == 255)
							position = 8;
							position = position%8;
							old_position = position;
							for(uint8_t i= 0;i<8;i++)
    625c:	1f 5f       	subi	r17, 0xFF	; 255
    625e:	18 30       	cpi	r17, 0x08	; 8
    6260:	59 f7       	brne	.-42     	; 0x6238 <main+0x2132>
									lcd_puts(" ");
								}
							}
						}
						
						if(get_key_short( 1<<KEY0 ))
    6262:	80 e1       	ldi	r24, 0x10	; 16
    6264:	0e 94 b1 0b 	call	0x1762	; 0x1762 <_Z13get_key_shorth>
    6268:	88 23       	and	r24, r24
    626a:	11 f4       	brne	.+4      	; 0x6270 <main+0x216a>
    626c:	0c 94 7f 22 	jmp	0x44fe	; 0x44fe <main+0x3f8>
						{
							if(position == 0)
    6270:	89 81       	ldd	r24, Y+1	; 0x01
    6272:	81 11       	cpse	r24, r1
    6274:	22 c0       	rjmp	.+68     	; 0x62ba <main+0x21b4>
							{
								menu.menu_point = 0;
    6276:	10 92 a1 23 	sts	0x23A1, r1	; 0x8023a1 <menu+0x1>
								screen_clear = true;
    627a:	81 e0       	ldi	r24, 0x01	; 1
    627c:	80 93 a2 23 	sts	0x23A2, r24	; 0x8023a2 <screen_clear>
								p_profile_mod->CRC_value = calculate_crc32_checksum((unsigned char *)p_profile_mod,sizeof(Speed_profile_t)-4);
    6280:	00 91 04 21 	lds	r16, 0x2104	; 0x802104 <p_profile_mod>
    6284:	10 91 05 21 	lds	r17, 0x2105	; 0x802105 <p_profile_mod+0x1>
    6288:	6b e1       	ldi	r22, 0x1B	; 27
    628a:	c8 01       	movw	r24, r16
    628c:	0e 94 f8 03 	call	0x7f0	; 0x7f0 <_Z24calculate_crc32_checksumPhh>
    6290:	d8 01       	movw	r26, r16
    6292:	5b 96       	adiw	r26, 0x1b	; 27
    6294:	6d 93       	st	X+, r22
    6296:	7d 93       	st	X+, r23
    6298:	8d 93       	st	X+, r24
    629a:	9c 93       	st	X, r25
    629c:	5e 97       	sbiw	r26, 0x1e	; 30
								write_profile(p_profile_mod,ID_mod,TWI_FRAM_present,offset_profiles);
    629e:	26 e6       	ldi	r18, 0x66	; 102
    62a0:	30 e0       	ldi	r19, 0x00	; 0
    62a2:	40 91 24 23 	lds	r20, 0x2324	; 0x802324 <TWI_FRAM_present>
    62a6:	60 91 26 23 	lds	r22, 0x2326	; 0x802326 <ID_mod>
    62aa:	80 91 04 21 	lds	r24, 0x2104	; 0x802104 <p_profile_mod>
    62ae:	90 91 05 21 	lds	r25, 0x2105	; 0x802105 <p_profile_mod+0x1>
    62b2:	0e 94 08 05 	call	0xa10	; 0xa10 <_Z13write_profileP13Speed_profilehbj>
    62b6:	0c 94 7f 22 	jmp	0x44fe	; 0x44fe <main+0x3f8>
							}
							else
							{
								menu.sub_menu = position <<4;
    62ba:	82 95       	swap	r24
    62bc:	80 7f       	andi	r24, 0xF0	; 240
    62be:	80 93 a0 23 	sts	0x23A0, r24	; 0x8023a0 <menu>
    62c2:	0c 94 7f 22 	jmp	0x44fe	; 0x44fe <main+0x3f8>
						
					}
					break;
					case 0x13:
					{
						change_parameter_settings(p_parameter_a,true,&position,int_buffer,&screen_clear,&old_position);
    62c6:	0f 2e       	mov	r0, r31
    62c8:	f0 e0       	ldi	r31, 0x00	; 0
    62ca:	ef 2e       	mov	r14, r31
    62cc:	f1 e2       	ldi	r31, 0x21	; 33
    62ce:	ff 2e       	mov	r15, r31
    62d0:	f0 2d       	mov	r31, r0
    62d2:	02 ea       	ldi	r16, 0xA2	; 162
    62d4:	13 e2       	ldi	r17, 0x23	; 35
    62d6:	9e 01       	movw	r18, r28
    62d8:	27 5d       	subi	r18, 0xD7	; 215
    62da:	3f 4f       	sbci	r19, 0xFF	; 255
    62dc:	ae 01       	movw	r20, r28
    62de:	4f 5f       	subi	r20, 0xFF	; 255
    62e0:	5f 4f       	sbci	r21, 0xFF	; 255
    62e2:	61 e0       	ldi	r22, 0x01	; 1
    62e4:	80 91 09 21 	lds	r24, 0x2109	; 0x802109 <p_parameter_a>
    62e8:	90 91 0a 21 	lds	r25, 0x210A	; 0x80210a <p_parameter_a+0x1>
    62ec:	0e 94 e3 10 	call	0x21c6	; 0x21c6 <_Z25change_parameter_settingsP20regulator_parametersbPhPcPbS1_>
						if(position != old_position)
    62f0:	89 81       	ldd	r24, Y+1	; 0x01
    62f2:	90 91 00 21 	lds	r25, 0x2100	; 0x802100 <_ZZ4mainE12old_position>
    62f6:	89 17       	cp	r24, r25
    62f8:	49 f1       	breq	.+82     	; 0x634c <main+0x2246>
						{
							if(position == 255)
    62fa:	8f 3f       	cpi	r24, 0xFF	; 255
    62fc:	11 f4       	brne	.+4      	; 0x6302 <main+0x21fc>
							position = 4;
    62fe:	84 e0       	ldi	r24, 0x04	; 4
    6300:	89 83       	std	Y+1, r24	; 0x01
							position = position%5;
    6302:	99 81       	ldd	r25, Y+1	; 0x01
    6304:	8d ec       	ldi	r24, 0xCD	; 205
    6306:	98 9f       	mul	r25, r24
    6308:	81 2d       	mov	r24, r1
    630a:	11 24       	eor	r1, r1
    630c:	86 95       	lsr	r24
    630e:	86 95       	lsr	r24
    6310:	28 2f       	mov	r18, r24
    6312:	22 0f       	add	r18, r18
    6314:	22 0f       	add	r18, r18
    6316:	82 0f       	add	r24, r18
    6318:	98 1b       	sub	r25, r24
    631a:	99 83       	std	Y+1, r25	; 0x01
							old_position = position;
    631c:	90 93 00 21 	sts	0x2100, r25	; 0x802100 <_ZZ4mainE12old_position>
							for(uint8_t i= 0;i<5;i++)
    6320:	10 e0       	ldi	r17, 0x00	; 0
							{
								lcd_gotoxy(0,i,port_expander_present);
    6322:	40 91 25 23 	lds	r20, 0x2325	; 0x802325 <port_expander_present>
    6326:	61 2f       	mov	r22, r17
    6328:	80 e0       	ldi	r24, 0x00	; 0
    632a:	0e 94 0f 06 	call	0xc1e	; 0xc1e <_Z10lcd_gotoxyhhb>
								if(i == position)
    632e:	89 81       	ldd	r24, Y+1	; 0x01
    6330:	81 13       	cpse	r24, r17
    6332:	05 c0       	rjmp	.+10     	; 0x633e <main+0x2238>
								{
									lcd_puts(">");
    6334:	83 ea       	ldi	r24, 0xA3	; 163
    6336:	92 e2       	ldi	r25, 0x22	; 34
    6338:	0e 94 9d 0a 	call	0x153a	; 0x153a <_Z8lcd_putsPKc>
    633c:	04 c0       	rjmp	.+8      	; 0x6346 <main+0x2240>
								}
								else
								{
									lcd_puts(" ");
    633e:	8b ed       	ldi	r24, 0xDB	; 219
    6340:	91 e2       	ldi	r25, 0x21	; 33
    6342:	0e 94 9d 0a 	call	0x153a	; 0x153a <_Z8lcd_putsPKc>
						{
							if(position == 255)
							position = 4;
							position = position%5;
							old_position = position;
							for(uint8_t i= 0;i<5;i++)
    6346:	1f 5f       	subi	r17, 0xFF	; 255
    6348:	15 30       	cpi	r17, 0x05	; 5
    634a:	59 f7       	brne	.-42     	; 0x6322 <main+0x221c>
									lcd_puts(" ");
								}
							}
						}
						
						if(get_key_short( 1<<KEY0 ))
    634c:	80 e1       	ldi	r24, 0x10	; 16
    634e:	0e 94 b1 0b 	call	0x1762	; 0x1762 <_Z13get_key_shorth>
    6352:	88 23       	and	r24, r24
    6354:	11 f4       	brne	.+4      	; 0x635a <main+0x2254>
    6356:	0c 94 7f 22 	jmp	0x44fe	; 0x44fe <main+0x3f8>
						{
							if(position == 0)
    635a:	89 81       	ldd	r24, Y+1	; 0x01
    635c:	81 11       	cpse	r24, r1
    635e:	1f c0       	rjmp	.+62     	; 0x639e <main+0x2298>
							{
								menu.menu_point = 0;
    6360:	10 92 a1 23 	sts	0x23A1, r1	; 0x8023a1 <menu+0x1>
								screen_clear = true;
    6364:	81 e0       	ldi	r24, 0x01	; 1
    6366:	80 93 a2 23 	sts	0x23A2, r24	; 0x8023a2 <screen_clear>
								p_parameter_a->CRC_value = calculate_crc32_checksum((unsigned char *)p_parameter_a,sizeof(Speed_profile_t)-4); 
    636a:	00 91 09 21 	lds	r16, 0x2109	; 0x802109 <p_parameter_a>
    636e:	10 91 0a 21 	lds	r17, 0x210A	; 0x80210a <p_parameter_a+0x1>
    6372:	6b e1       	ldi	r22, 0x1B	; 27
    6374:	c8 01       	movw	r24, r16
    6376:	0e 94 f8 03 	call	0x7f0	; 0x7f0 <_Z24calculate_crc32_checksumPhh>
    637a:	f8 01       	movw	r30, r16
    637c:	60 8b       	std	Z+16, r22	; 0x10
    637e:	71 8b       	std	Z+17, r23	; 0x11
    6380:	82 8b       	std	Z+18, r24	; 0x12
    6382:	93 8b       	std	Z+19, r25	; 0x13
								write_param_profile(p_parameter_a,0,TWI_FRAM_present,offset_profiles);
    6384:	26 e6       	ldi	r18, 0x66	; 102
    6386:	30 e0       	ldi	r19, 0x00	; 0
    6388:	40 91 24 23 	lds	r20, 0x2324	; 0x802324 <TWI_FRAM_present>
    638c:	60 e0       	ldi	r22, 0x00	; 0
    638e:	80 91 09 21 	lds	r24, 0x2109	; 0x802109 <p_parameter_a>
    6392:	90 91 0a 21 	lds	r25, 0x210A	; 0x80210a <p_parameter_a+0x1>
    6396:	0e 94 4f 05 	call	0xa9e	; 0xa9e <_Z19write_param_profileP20regulator_parametershbj>
    639a:	0c 94 7f 22 	jmp	0x44fe	; 0x44fe <main+0x3f8>
							}
							else
							{
								menu.sub_menu = position <<4;
    639e:	82 95       	swap	r24
    63a0:	80 7f       	andi	r24, 0xF0	; 240
    63a2:	80 93 a0 23 	sts	0x23A0, r24	; 0x8023a0 <menu>
    63a6:	0c 94 7f 22 	jmp	0x44fe	; 0x44fe <main+0x3f8>
						
					}
					break;
					case 0x14:
					{
						change_parameter_settings(p_parameter_a,false,&position,int_buffer,&screen_clear,&old_position);
    63aa:	0f 2e       	mov	r0, r31
    63ac:	f0 e0       	ldi	r31, 0x00	; 0
    63ae:	ef 2e       	mov	r14, r31
    63b0:	f1 e2       	ldi	r31, 0x21	; 33
    63b2:	ff 2e       	mov	r15, r31
    63b4:	f0 2d       	mov	r31, r0
    63b6:	02 ea       	ldi	r16, 0xA2	; 162
    63b8:	13 e2       	ldi	r17, 0x23	; 35
    63ba:	9e 01       	movw	r18, r28
    63bc:	27 5d       	subi	r18, 0xD7	; 215
    63be:	3f 4f       	sbci	r19, 0xFF	; 255
    63c0:	ae 01       	movw	r20, r28
    63c2:	4f 5f       	subi	r20, 0xFF	; 255
    63c4:	5f 4f       	sbci	r21, 0xFF	; 255
    63c6:	60 e0       	ldi	r22, 0x00	; 0
    63c8:	80 91 09 21 	lds	r24, 0x2109	; 0x802109 <p_parameter_a>
    63cc:	90 91 0a 21 	lds	r25, 0x210A	; 0x80210a <p_parameter_a+0x1>
    63d0:	0e 94 e3 10 	call	0x21c6	; 0x21c6 <_Z25change_parameter_settingsP20regulator_parametersbPhPcPbS1_>
						if(position != old_position)
    63d4:	89 81       	ldd	r24, Y+1	; 0x01
    63d6:	90 91 00 21 	lds	r25, 0x2100	; 0x802100 <_ZZ4mainE12old_position>
    63da:	89 17       	cp	r24, r25
    63dc:	49 f1       	breq	.+82     	; 0x6430 <main+0x232a>
						{
							if(position == 255)
    63de:	8f 3f       	cpi	r24, 0xFF	; 255
    63e0:	11 f4       	brne	.+4      	; 0x63e6 <main+0x22e0>
							position = 4;
    63e2:	84 e0       	ldi	r24, 0x04	; 4
    63e4:	89 83       	std	Y+1, r24	; 0x01
							position = position%5;
    63e6:	99 81       	ldd	r25, Y+1	; 0x01
    63e8:	8d ec       	ldi	r24, 0xCD	; 205
    63ea:	98 9f       	mul	r25, r24
    63ec:	81 2d       	mov	r24, r1
    63ee:	11 24       	eor	r1, r1
    63f0:	86 95       	lsr	r24
    63f2:	86 95       	lsr	r24
    63f4:	28 2f       	mov	r18, r24
    63f6:	22 0f       	add	r18, r18
    63f8:	22 0f       	add	r18, r18
    63fa:	82 0f       	add	r24, r18
    63fc:	98 1b       	sub	r25, r24
    63fe:	99 83       	std	Y+1, r25	; 0x01
							old_position = position;
    6400:	90 93 00 21 	sts	0x2100, r25	; 0x802100 <_ZZ4mainE12old_position>
							for(uint8_t i= 0;i<5;i++)
    6404:	10 e0       	ldi	r17, 0x00	; 0
							{
								lcd_gotoxy(0,i,port_expander_present);
    6406:	40 91 25 23 	lds	r20, 0x2325	; 0x802325 <port_expander_present>
    640a:	61 2f       	mov	r22, r17
    640c:	80 e0       	ldi	r24, 0x00	; 0
    640e:	0e 94 0f 06 	call	0xc1e	; 0xc1e <_Z10lcd_gotoxyhhb>
								if(i == position)
    6412:	89 81       	ldd	r24, Y+1	; 0x01
    6414:	81 13       	cpse	r24, r17
    6416:	05 c0       	rjmp	.+10     	; 0x6422 <main+0x231c>
								{
									lcd_puts(">");
    6418:	83 ea       	ldi	r24, 0xA3	; 163
    641a:	92 e2       	ldi	r25, 0x22	; 34
    641c:	0e 94 9d 0a 	call	0x153a	; 0x153a <_Z8lcd_putsPKc>
    6420:	04 c0       	rjmp	.+8      	; 0x642a <main+0x2324>
								}
								else
								{
									lcd_puts(" ");
    6422:	8b ed       	ldi	r24, 0xDB	; 219
    6424:	91 e2       	ldi	r25, 0x21	; 33
    6426:	0e 94 9d 0a 	call	0x153a	; 0x153a <_Z8lcd_putsPKc>
						{
							if(position == 255)
							position = 4;
							position = position%5;
							old_position = position;
							for(uint8_t i= 0;i<5;i++)
    642a:	1f 5f       	subi	r17, 0xFF	; 255
    642c:	15 30       	cpi	r17, 0x05	; 5
    642e:	59 f7       	brne	.-42     	; 0x6406 <main+0x2300>
									lcd_puts(" ");
								}
							}
						}
						
						if(get_key_short( 1<<KEY0 ))
    6430:	80 e1       	ldi	r24, 0x10	; 16
    6432:	0e 94 b1 0b 	call	0x1762	; 0x1762 <_Z13get_key_shorth>
    6436:	88 23       	and	r24, r24
    6438:	11 f4       	brne	.+4      	; 0x643e <main+0x2338>
    643a:	0c 94 7f 22 	jmp	0x44fe	; 0x44fe <main+0x3f8>
						{
							if(position == 0)
    643e:	89 81       	ldd	r24, Y+1	; 0x01
    6440:	81 11       	cpse	r24, r1
    6442:	24 c0       	rjmp	.+72     	; 0x648c <main+0x2386>
							{
								menu.menu_point = 0;
    6444:	10 92 a1 23 	sts	0x23A1, r1	; 0x8023a1 <menu+0x1>
								screen_clear = true;
    6448:	81 e0       	ldi	r24, 0x01	; 1
    644a:	80 93 a2 23 	sts	0x23A2, r24	; 0x8023a2 <screen_clear>
								p_parameter_b->CRC_value = calculate_crc32_checksum((unsigned char *)p_parameter_a,sizeof(Speed_profile_t)-4);
    644e:	00 91 07 21 	lds	r16, 0x2107	; 0x802107 <p_parameter_b>
    6452:	10 91 08 21 	lds	r17, 0x2108	; 0x802108 <p_parameter_b+0x1>
    6456:	6b e1       	ldi	r22, 0x1B	; 27
    6458:	80 91 09 21 	lds	r24, 0x2109	; 0x802109 <p_parameter_a>
    645c:	90 91 0a 21 	lds	r25, 0x210A	; 0x80210a <p_parameter_a+0x1>
    6460:	0e 94 f8 03 	call	0x7f0	; 0x7f0 <_Z24calculate_crc32_checksumPhh>
    6464:	d8 01       	movw	r26, r16
    6466:	50 96       	adiw	r26, 0x10	; 16
    6468:	6d 93       	st	X+, r22
    646a:	7d 93       	st	X+, r23
    646c:	8d 93       	st	X+, r24
    646e:	9c 93       	st	X, r25
    6470:	53 97       	sbiw	r26, 0x13	; 19
								write_param_profile(p_parameter_b,1,TWI_FRAM_present,offset_profiles);
    6472:	26 e6       	ldi	r18, 0x66	; 102
    6474:	30 e0       	ldi	r19, 0x00	; 0
    6476:	40 91 24 23 	lds	r20, 0x2324	; 0x802324 <TWI_FRAM_present>
    647a:	61 e0       	ldi	r22, 0x01	; 1
    647c:	80 91 07 21 	lds	r24, 0x2107	; 0x802107 <p_parameter_b>
    6480:	90 91 08 21 	lds	r25, 0x2108	; 0x802108 <p_parameter_b+0x1>
    6484:	0e 94 4f 05 	call	0xa9e	; 0xa9e <_Z19write_param_profileP20regulator_parametershbj>
    6488:	0c 94 7f 22 	jmp	0x44fe	; 0x44fe <main+0x3f8>
							}
							else
							{
								menu.sub_menu = position <<4;
    648c:	82 95       	swap	r24
    648e:	80 7f       	andi	r24, 0xF0	; 240
    6490:	80 93 a0 23 	sts	0x23A0, r24	; 0x8023a0 <menu>
    6494:	0c 94 7f 22 	jmp	0x44fe	; 0x44fe <main+0x3f8>
						
					}
					break;
					case 0x15:
					{
						info_data(Ram,int_buffer,&screen_clear);
    6498:	2b 96       	adiw	r28, 0x0b	; 11
    649a:	2e ad       	ldd	r18, Y+62	; 0x3e
    649c:	3f ad       	ldd	r19, Y+63	; 0x3f
    649e:	2b 97       	sbiw	r28, 0x0b	; 11
    64a0:	ad e9       	ldi	r26, 0x9D	; 157
    64a2:	bf e8       	ldi	r27, 0x8F	; 143
    64a4:	0e 94 59 3b 	call	0x76b2	; 0x76b2 <__umulhisi3>
    64a8:	28 1b       	sub	r18, r24
    64aa:	39 0b       	sbc	r19, r25
    64ac:	36 95       	lsr	r19
    64ae:	27 95       	ror	r18
    64b0:	82 0f       	add	r24, r18
    64b2:	93 1f       	adc	r25, r19
    64b4:	42 ea       	ldi	r20, 0xA2	; 162
    64b6:	53 e2       	ldi	r21, 0x23	; 35
    64b8:	be 01       	movw	r22, r28
    64ba:	67 5d       	subi	r22, 0xD7	; 215
    64bc:	7f 4f       	sbci	r23, 0xFF	; 255
    64be:	96 95       	lsr	r25
    64c0:	87 95       	ror	r24
    64c2:	92 95       	swap	r25
    64c4:	82 95       	swap	r24
    64c6:	8f 70       	andi	r24, 0x0F	; 15
    64c8:	89 27       	eor	r24, r25
    64ca:	9f 70       	andi	r25, 0x0F	; 15
    64cc:	89 27       	eor	r24, r25
    64ce:	0e 94 b3 0f 	call	0x1f66	; 0x1f66 <_Z9info_datajPcPb>
											
						if(get_key_short( 1<<KEY0 ))
    64d2:	80 e1       	ldi	r24, 0x10	; 16
    64d4:	0e 94 b1 0b 	call	0x1762	; 0x1762 <_Z13get_key_shorth>
    64d8:	88 23       	and	r24, r24
    64da:	11 f4       	brne	.+4      	; 0x64e0 <main+0x23da>
    64dc:	0c 94 7f 22 	jmp	0x44fe	; 0x44fe <main+0x3f8>
						{
							menu.menu_point = 0;
    64e0:	10 92 a1 23 	sts	0x23A1, r1	; 0x8023a1 <menu+0x1>
							screen_clear = true;
    64e4:	81 e0       	ldi	r24, 0x01	; 1
    64e6:	80 93 a2 23 	sts	0x23A2, r24	; 0x8023a2 <screen_clear>
    64ea:	0c 94 7f 22 	jmp	0x44fe	; 0x44fe <main+0x3f8>
						}
												
					}
					break;
					default:
					menu.menu_point = 0;
    64ee:	10 92 a1 23 	sts	0x23A1, r1	; 0x8023a1 <menu+0x1>
					break;
    64f2:	0c 94 7f 22 	jmp	0x44fe	; 0x44fe <main+0x3f8>
		{
			if(!change_a && !change_b && !change_speed_a && !change_speed_b)
				position_main += encode_read2();
			if(change_a)
			{
				status_a += encode_read2();
    64f6:	0e 94 b4 10 	call	0x2168	; 0x2168 <_Z12encode_read2v>
    64fa:	25 96       	adiw	r28, 0x05	; 5
    64fc:	bf ad       	ldd	r27, Y+63	; 0x3f
    64fe:	25 97       	sbiw	r28, 0x05	; 5
    6500:	8b 0f       	add	r24, r27
				if(status_a == 255)
    6502:	8f 3f       	cpi	r24, 0xFF	; 255
    6504:	11 f0       	breq	.+4      	; 0x650a <main+0x2404>
    6506:	0c 94 52 24 	jmp	0x48a4	; 0x48a4 <main+0x79e>
    650a:	0c 94 51 24 	jmp	0x48a2	; 0x48a2 <main+0x79c>
			avg_voltage_a += ADC_Value_a;
			avg_voltage_b += ADC_Value_b;
		}
		if(counter >= 50)
		{
			avg_voltage_a = avg_voltage_a / counter;
    650e:	cd 2c       	mov	r12, r13
    6510:	d1 2c       	mov	r13, r1
    6512:	e1 2c       	mov	r14, r1
    6514:	f1 2c       	mov	r15, r1
    6516:	24 96       	adiw	r28, 0x04	; 4
    6518:	6c ad       	ldd	r22, Y+60	; 0x3c
    651a:	7d ad       	ldd	r23, Y+61	; 0x3d
    651c:	8e ad       	ldd	r24, Y+62	; 0x3e
    651e:	9f ad       	ldd	r25, Y+63	; 0x3f
    6520:	24 97       	sbiw	r28, 0x04	; 4
    6522:	a7 01       	movw	r20, r14
    6524:	96 01       	movw	r18, r12
    6526:	0e 94 0f 3b 	call	0x761e	; 0x761e <__udivmodsi4>
    652a:	24 96       	adiw	r28, 0x04	; 4
    652c:	2c af       	std	Y+60, r18	; 0x3c
    652e:	3d af       	std	Y+61, r19	; 0x3d
    6530:	4e af       	std	Y+62, r20	; 0x3e
    6532:	5f af       	std	Y+63, r21	; 0x3f
    6534:	24 97       	sbiw	r28, 0x04	; 4
			avg_voltage_b = avg_voltage_b / counter;
    6536:	c3 01       	movw	r24, r6
    6538:	b2 01       	movw	r22, r4
    653a:	a7 01       	movw	r20, r14
    653c:	96 01       	movw	r18, r12
    653e:	0e 94 0f 3b 	call	0x761e	; 0x761e <__udivmodsi4>
    6542:	29 01       	movw	r4, r18
    6544:	3a 01       	movw	r6, r20
			counter = 0;
    6546:	d1 2c       	mov	r13, r1
			update_display = true;
    6548:	cc 24       	eor	r12, r12
    654a:	c3 94       	inc	r12
    654c:	0c 94 01 25 	jmp	0x4a02	; 0x4a02 <main+0x8fc>
			{
				if(p_Profile_a->type == type_normal  || p_Profile_a->type == type_stop)
				{
					if(p_Profile_a->switchoff)
					{
						end_a = true;
    6550:	81 e0       	ldi	r24, 0x01	; 1
    6552:	80 93 97 23 	sts	0x2397, r24	; 0x802397 <end_a>
						if(p_Profile_a->type == type_stop)
						{
							running_a = false;
    6556:	10 92 10 24 	sts	0x2410, r1	; 0x802410 <running_a>
						}
						
						
						
					}
					if(p_Profile_a->slowdown)
    655a:	84 81       	ldd	r24, Z+4	; 0x04
    655c:	81 11       	cpse	r24, r1
    655e:	0c 94 3e 25 	jmp	0x4a7c	; 0x4a7c <main+0x976>
    6562:	0c 94 9f 26 	jmp	0x4d3e	; 0x4d3e <main+0xc38>
			Blink_LED(&PORTA,PIN6_bp,Blink,Frequenz_2Hz);
			if(Unixtimestamp >= next_change_a)
			{
				if(p_Profile_a->type == type_normal  || p_Profile_a->type == type_stop)
				{
					if(p_Profile_a->switchoff)
    6566:	83 81       	ldd	r24, Z+3	; 0x03
    6568:	81 11       	cpse	r24, r1
    656a:	f2 cf       	rjmp	.-28     	; 0x6550 <main+0x244a>
    656c:	0c 94 3b 25 	jmp	0x4a76	; 0x4a76 <main+0x970>
					{
						end_a = true;
    6570:	81 e0       	ldi	r24, 0x01	; 1
    6572:	80 93 97 23 	sts	0x2397, r24	; 0x802397 <end_a>
						{
							running_a = false;
						}
						else
						{
							next_change_a = Unixtimestamp + p_Profile_a->speed_slow;
    6576:	40 91 1e 24 	lds	r20, 0x241E	; 0x80241e <Unixtimestamp>
    657a:	50 91 1f 24 	lds	r21, 0x241F	; 0x80241f <Unixtimestamp+0x1>
    657e:	60 91 20 24 	lds	r22, 0x2420	; 0x802420 <Unixtimestamp+0x2>
    6582:	70 91 21 24 	lds	r23, 0x2421	; 0x802421 <Unixtimestamp+0x3>
    6586:	87 81       	ldd	r24, Z+7	; 0x07
    6588:	90 85       	ldd	r25, Z+8	; 0x08
    658a:	48 0f       	add	r20, r24
    658c:	59 1f       	adc	r21, r25
    658e:	61 1d       	adc	r22, r1
    6590:	71 1d       	adc	r23, r1
    6592:	4a 83       	std	Y+2, r20	; 0x02
    6594:	5b 83       	std	Y+3, r21	; 0x03
    6596:	6c 83       	std	Y+4, r22	; 0x04
    6598:	7d 83       	std	Y+5, r23	; 0x05
    659a:	0c 94 3b 25 	jmp	0x4a76	; 0x4a76 <main+0x970>
			Blink_LED(&PORTA,PIN6_bp,Blink,Frequenz_2Hz);
			if(Unixtimestamp >= next_change_a)
			{
				if(p_Profile_a->type == type_normal  || p_Profile_a->type == type_stop)
				{
					if(p_Profile_a->switchoff)
    659e:	83 81       	ldd	r24, Z+3	; 0x03
    65a0:	88 23       	and	r24, r24
    65a2:	11 f4       	brne	.+4      	; 0x65a8 <main+0x24a2>
    65a4:	0c 94 3b 25 	jmp	0x4a76	; 0x4a76 <main+0x970>
    65a8:	e3 cf       	rjmp	.-58     	; 0x6570 <main+0x246a>
						}
						
						
						
					}
					if(p_Profile_a->speedup && change)
    65aa:	85 81       	ldd	r24, Z+5	; 0x05
    65ac:	88 23       	and	r24, r24
    65ae:	09 f4       	brne	.+2      	; 0x65b2 <main+0x24ac>
    65b0:	50 c0       	rjmp	.+160    	; 0x6652 <main+0x254c>
    65b2:	0c 94 88 25 	jmp	0x4b10	; 0x4b10 <main+0xa0a>
				
			}
		}
		else
		{
			PORTA.OUTCLR = PIN6_bm;
    65b6:	e0 e0       	ldi	r30, 0x00	; 0
    65b8:	f6 e0       	ldi	r31, 0x06	; 6
    65ba:	80 e4       	ldi	r24, 0x40	; 64
    65bc:	86 83       	std	Z+6, r24	; 0x06
			if(running_a)
			{
				PORTA.OUTSET = PIN5_bm;
    65be:	80 e2       	ldi	r24, 0x20	; 32
    65c0:	85 83       	std	Z+5, r24	; 0x05
    65c2:	0c 94 9f 26 	jmp	0x4d3e	; 0x4d3e <main+0xc38>
				
			}
		}
		else
		{
			PORTA.OUTCLR = PIN6_bm;
    65c6:	e0 e0       	ldi	r30, 0x00	; 0
    65c8:	f6 e0       	ldi	r31, 0x06	; 6
    65ca:	80 e4       	ldi	r24, 0x40	; 64
    65cc:	86 83       	std	Z+6, r24	; 0x06
			{
				PORTA.OUTSET = PIN5_bm;
			}
			else
			{
				PORTA.OUTCLR = PIN5_bm;
    65ce:	80 e2       	ldi	r24, 0x20	; 32
    65d0:	86 83       	std	Z+6, r24	; 0x06
    65d2:	0c 94 9f 26 	jmp	0x4d3e	; 0x4d3e <main+0xc38>
			{
				if(p_Profile_b->type == type_normal || p_Profile_b->type == type_stop)
				{
					if(p_Profile_b->switchoff)
					{
						end_b = true;
    65d6:	81 e0       	ldi	r24, 0x01	; 1
    65d8:	80 93 96 23 	sts	0x2396, r24	; 0x802396 <end_b>
						if(p_Profile_b->type == type_stop)
						{
							running_b = false;
    65dc:	10 92 0f 24 	sts	0x240F, r1	; 0x80240f <running_b>
						}
						
						
						
					}
					if(p_Profile_b->slowdown)
    65e0:	84 81       	ldd	r24, Z+4	; 0x04
    65e2:	81 11       	cpse	r24, r1
    65e4:	0c 94 dc 26 	jmp	0x4db8	; 0x4db8 <main+0xcb2>
    65e8:	0c 94 3e 28 	jmp	0x507c	; 0x507c <main+0xf76>
				
			if(Unixtimestamp >= next_change_b)
			{
				if(p_Profile_b->type == type_normal || p_Profile_b->type == type_stop)
				{
					if(p_Profile_b->switchoff)
    65ec:	83 81       	ldd	r24, Z+3	; 0x03
    65ee:	81 11       	cpse	r24, r1
    65f0:	f2 cf       	rjmp	.-28     	; 0x65d6 <main+0x24d0>
    65f2:	0c 94 d9 26 	jmp	0x4db2	; 0x4db2 <main+0xcac>
					{
						end_b = true;
    65f6:	81 e0       	ldi	r24, 0x01	; 1
    65f8:	80 93 96 23 	sts	0x2396, r24	; 0x802396 <end_b>
						{
							running_b = false;
						}
						else
						{
							next_change_b = Unixtimestamp + p_Profile_b->speed_slow;
    65fc:	40 91 1e 24 	lds	r20, 0x241E	; 0x80241e <Unixtimestamp>
    6600:	50 91 1f 24 	lds	r21, 0x241F	; 0x80241f <Unixtimestamp+0x1>
    6604:	60 91 20 24 	lds	r22, 0x2420	; 0x802420 <Unixtimestamp+0x2>
    6608:	70 91 21 24 	lds	r23, 0x2421	; 0x802421 <Unixtimestamp+0x3>
    660c:	87 81       	ldd	r24, Z+7	; 0x07
    660e:	90 85       	ldd	r25, Z+8	; 0x08
    6610:	48 0f       	add	r20, r24
    6612:	59 1f       	adc	r21, r25
    6614:	61 1d       	adc	r22, r1
    6616:	71 1d       	adc	r23, r1
    6618:	4a 87       	std	Y+10, r20	; 0x0a
    661a:	5b 87       	std	Y+11, r21	; 0x0b
    661c:	6c 87       	std	Y+12, r22	; 0x0c
    661e:	7d 87       	std	Y+13, r23	; 0x0d
    6620:	0c 94 d9 26 	jmp	0x4db2	; 0x4db2 <main+0xcac>
				
			if(Unixtimestamp >= next_change_b)
			{
				if(p_Profile_b->type == type_normal || p_Profile_b->type == type_stop)
				{
					if(p_Profile_b->switchoff)
    6624:	83 81       	ldd	r24, Z+3	; 0x03
    6626:	88 23       	and	r24, r24
    6628:	11 f4       	brne	.+4      	; 0x662e <main+0x2528>
    662a:	0c 94 d9 26 	jmp	0x4db2	; 0x4db2 <main+0xcac>
    662e:	e3 cf       	rjmp	.-58     	; 0x65f6 <main+0x24f0>
				
			}
		}
		else
		{
			PORTB.OUTCLR = PIN0_bm;
    6630:	81 e0       	ldi	r24, 0x01	; 1
    6632:	f1 01       	movw	r30, r2
    6634:	86 83       	std	Z+6, r24	; 0x06
			if(running_b)
			{
				PORTA.OUTSET = PIN7_bm;
    6636:	80 e8       	ldi	r24, 0x80	; 128
    6638:	80 93 05 06 	sts	0x0605, r24	; 0x800605 <__TEXT_REGION_LENGTH__+0x700605>
    663c:	0c 94 3e 28 	jmp	0x507c	; 0x507c <main+0xf76>
				
			}
		}
		else
		{
			PORTB.OUTCLR = PIN0_bm;
    6640:	81 e0       	ldi	r24, 0x01	; 1
    6642:	d1 01       	movw	r26, r2
    6644:	16 96       	adiw	r26, 0x06	; 6
    6646:	8c 93       	st	X, r24
			{
				PORTA.OUTSET = PIN7_bm;
			}
			else
			{
				PORTA.OUTCLR = PIN7_bm;
    6648:	80 e8       	ldi	r24, 0x80	; 128
    664a:	80 93 06 06 	sts	0x0606, r24	; 0x800606 <__TEXT_REGION_LENGTH__+0x700606>
    664e:	0c 94 3e 28 	jmp	0x507c	; 0x507c <main+0xf76>
						sei();
						
						
						
					}
					if(p_Profile_a->slowdown_switch && change)
    6652:	e0 91 0d 21 	lds	r30, 0x210D	; 0x80210d <p_Profile_a>
    6656:	f0 91 0e 21 	lds	r31, 0x210E	; 0x80210e <p_Profile_a+0x1>
    665a:	86 81       	ldd	r24, Z+6	; 0x06
    665c:	81 11       	cpse	r24, r1
    665e:	0c 94 c7 25 	jmp	0x4b8e	; 0x4b8e <main+0xa88>
					
					
				}
				if(p_Profile_a->type == type_switch)
				{
					bool change = true;
    6662:	91 e0       	ldi	r25, 0x01	; 1
    6664:	0c 94 36 26 	jmp	0x4c6c	; 0x4c6c <main+0xb66>
						sei();
						
						
						
					}
					if(p_Profile_a->slowdown_switch && change)
    6668:	e0 91 0d 21 	lds	r30, 0x210D	; 0x80210d <p_Profile_a>
    666c:	f0 91 0e 21 	lds	r31, 0x210E	; 0x80210e <p_Profile_a+0x1>
    6670:	86 81       	ldd	r24, Z+6	; 0x06
    6672:	81 11       	cpse	r24, r1
    6674:	0c 94 9f 26 	jmp	0x4d3e	; 0x4d3e <main+0xc38>
    6678:	90 e0       	ldi	r25, 0x00	; 0
    667a:	0c 94 36 26 	jmp	0x4c6c	; 0x4c6c <main+0xb66>

0000667e <_Z14get_mem_unusedv>:
// !!! because it allocates on stack.

// Get minimum of free memory (in bytes) up to now.
unsigned short
get_mem_unused (void)
{
    667e:	ec ea       	ldi	r30, 0xAC	; 172
    6680:	f6 e2       	ldi	r31, 0x26	; 38
	unsigned short unused = 0;
    6682:	80 e0       	ldi	r24, 0x00	; 0
    6684:	90 e0       	ldi	r25, 0x00	; 0
	unsigned char *p = &__heap_start;

	do
	{
		if (*p++ != MASK)
    6686:	21 91       	ld	r18, Z+
    6688:	2a 3a       	cpi	r18, 0xAA	; 170
    668a:	29 f4       	brne	.+10     	; 0x6696 <_Z14get_mem_unusedv+0x18>
		break;

		unused++;
    668c:	01 96       	adiw	r24, 0x01	; 1
	} while (p <= (unsigned char*) RAMEND);
    668e:	e1 15       	cp	r30, r1
    6690:	20 e3       	ldi	r18, 0x30	; 48
    6692:	f2 07       	cpc	r31, r18
    6694:	c0 f3       	brcs	.-16     	; 0x6686 <_Z14get_mem_unusedv+0x8>

	return unused;
}
    6696:	08 95       	ret

00006698 <_Z9SPIC_Initv>:
{
	SPIC.DATA = data; //send
	while(!(SPIC.STATUS & (1<<SPI_IF_bp))); //wait completion
	return SPIC.DATA;
	
}
    6698:	e0 e4       	ldi	r30, 0x40	; 64
    669a:	f6 e0       	ldi	r31, 0x06	; 6
    669c:	80 e1       	ldi	r24, 0x10	; 16
    669e:	81 83       	std	Z+1, r24	; 0x01
    66a0:	90 e2       	ldi	r25, 0x20	; 32
    66a2:	91 83       	std	Z+1, r25	; 0x01
    66a4:	90 e4       	ldi	r25, 0x40	; 64
    66a6:	92 83       	std	Z+2, r25	; 0x02
    66a8:	90 e8       	ldi	r25, 0x80	; 128
    66aa:	91 83       	std	Z+1, r25	; 0x01
    66ac:	85 83       	std	Z+5, r24	; 0x05
    66ae:	8c ed       	ldi	r24, 0xDC	; 220
    66b0:	80 93 c0 08 	sts	0x08C0, r24	; 0x8008c0 <__TEXT_REGION_LENGTH__+0x7008c0>
    66b4:	08 95       	ret

000066b6 <_Z10SPIC_Writeh>:

void SPIC_Write(unsigned char data)
{
	SPIC.DATA = data; //send
    66b6:	80 93 c3 08 	sts	0x08C3, r24	; 0x8008c3 <__TEXT_REGION_LENGTH__+0x7008c3>
	while(!(SPIC.STATUS & (1<<SPI_IF_bp))); //wait completion
    66ba:	e0 ec       	ldi	r30, 0xC0	; 192
    66bc:	f8 e0       	ldi	r31, 0x08	; 8
    66be:	82 81       	ldd	r24, Z+2	; 0x02
    66c0:	88 23       	and	r24, r24
    66c2:	ec f7       	brge	.-6      	; 0x66be <_Z10SPIC_Writeh+0x8>
	uint8_t dummy = SPIC.DATA;
    66c4:	80 91 c3 08 	lds	r24, 0x08C3	; 0x8008c3 <__TEXT_REGION_LENGTH__+0x7008c3>
    66c8:	08 95       	ret

000066ca <_Z24SPIC_Write_16bit_addressj>:

	
}

void SPIC_Write_16bit_address(uint16_t address)
{
    66ca:	cf 93       	push	r28
    66cc:	c8 2f       	mov	r28, r24
	SPIC_Write((uint8_t)(address >> 8));
    66ce:	89 2f       	mov	r24, r25
    66d0:	0e 94 5b 33 	call	0x66b6	; 0x66b6 <_Z10SPIC_Writeh>
	SPIC_Write((uint8_t)address);
    66d4:	8c 2f       	mov	r24, r28
    66d6:	0e 94 5b 33 	call	0x66b6	; 0x66b6 <_Z10SPIC_Writeh>
}
    66da:	cf 91       	pop	r28
    66dc:	08 95       	ret

000066de <_Z16SPIC_Write_arrayPhh>:


void SPIC_Write_array(uint8_t *data, uint8_t length)
{
	for(uint8_t i = 0; i<length;i++)
    66de:	66 23       	and	r22, r22
    66e0:	99 f0       	breq	.+38     	; 0x6708 <_Z16SPIC_Write_arrayPhh+0x2a>
    66e2:	dc 01       	movw	r26, r24
    66e4:	61 50       	subi	r22, 0x01	; 1
    66e6:	26 2f       	mov	r18, r22
    66e8:	30 e0       	ldi	r19, 0x00	; 0
    66ea:	2f 5f       	subi	r18, 0xFF	; 255
    66ec:	3f 4f       	sbci	r19, 0xFF	; 255
    66ee:	28 0f       	add	r18, r24
    66f0:	39 1f       	adc	r19, r25
	{
		SPIC.DATA = data[i]; //send
    66f2:	e0 ec       	ldi	r30, 0xC0	; 192
    66f4:	f8 e0       	ldi	r31, 0x08	; 8
    66f6:	9d 91       	ld	r25, X+
    66f8:	93 83       	std	Z+3, r25	; 0x03
		while(!(SPIC.STATUS & (1<<SPI_IF_bp))); //wait completion
    66fa:	92 81       	ldd	r25, Z+2	; 0x02
    66fc:	99 23       	and	r25, r25
    66fe:	ec f7       	brge	.-6      	; 0x66fa <_Z16SPIC_Write_arrayPhh+0x1c>
		uint8_t dummy = SPIC.DATA;
    6700:	83 81       	ldd	r24, Z+3	; 0x03
}


void SPIC_Write_array(uint8_t *data, uint8_t length)
{
	for(uint8_t i = 0; i<length;i++)
    6702:	a2 17       	cp	r26, r18
    6704:	b3 07       	cpc	r27, r19
    6706:	b9 f7       	brne	.-18     	; 0x66f6 <_Z16SPIC_Write_arrayPhh+0x18>
    6708:	08 95       	ret

0000670a <_Z15SPIC_Read_arrayPhh>:
	}
}

void SPIC_Read_array(uint8_t *data, uint8_t length)
{
	for(uint8_t i = 0; i<length;i++)
    670a:	66 23       	and	r22, r22
    670c:	a1 f0       	breq	.+40     	; 0x6736 <_Z15SPIC_Read_arrayPhh+0x2c>
    670e:	dc 01       	movw	r26, r24
    6710:	61 50       	subi	r22, 0x01	; 1
    6712:	26 2f       	mov	r18, r22
    6714:	30 e0       	ldi	r19, 0x00	; 0
    6716:	2f 5f       	subi	r18, 0xFF	; 255
    6718:	3f 4f       	sbci	r19, 0xFF	; 255
    671a:	28 0f       	add	r18, r24
    671c:	39 1f       	adc	r19, r25
	{
		SPIC.DATA = 0xFF; //send
    671e:	e0 ec       	ldi	r30, 0xC0	; 192
    6720:	f8 e0       	ldi	r31, 0x08	; 8
    6722:	8f ef       	ldi	r24, 0xFF	; 255
    6724:	83 83       	std	Z+3, r24	; 0x03
		while(!(SPIC.STATUS & (1<<SPI_IF_bp))); //wait completion
    6726:	92 81       	ldd	r25, Z+2	; 0x02
    6728:	99 23       	and	r25, r25
    672a:	ec f7       	brge	.-6      	; 0x6726 <_Z15SPIC_Read_arrayPhh+0x1c>
		data[i] = SPIC.DATA;
    672c:	93 81       	ldd	r25, Z+3	; 0x03
    672e:	9d 93       	st	X+, r25
	}
}

void SPIC_Read_array(uint8_t *data, uint8_t length)
{
	for(uint8_t i = 0; i<length;i++)
    6730:	a2 17       	cp	r26, r18
    6732:	b3 07       	cpc	r27, r19
    6734:	b9 f7       	brne	.-18     	; 0x6724 <_Z15SPIC_Read_arrayPhh+0x1a>
    6736:	08 95       	ret

00006738 <_Z9twi_writeP10TWI_structPhhjhbbb>:
#include <avr/io.h>
#include <avr/interrupt.h>
#include <util/delay.h>


void twi_write(TWI_t *twiname, uint8_t *writeData,uint8_t page_adress,uint16_t Adress, uint8_t bytes,bool fixed,bool skip_address,bool skip_high_address){
    6738:	af 92       	push	r10
    673a:	cf 92       	push	r12
    673c:	ef 92       	push	r14
    673e:	0f 93       	push	r16
    6740:	cf 93       	push	r28
    6742:	df 93       	push	r29
    6744:	fc 01       	movw	r30, r24
    6746:	eb 01       	movw	r28, r22

	uint16_t i;
	TWIE_MASTER_CTRLC &= ~((1<<TWI_MASTER_ACKACT_bp));
    6748:	a3 ea       	ldi	r26, 0xA3	; 163
    674a:	b4 e0       	ldi	r27, 0x04	; 4
    674c:	8c 91       	ld	r24, X
    674e:	8b 7f       	andi	r24, 0xFB	; 251
    6750:	8c 93       	st	X, r24
	twiname->MASTER.ADDR = page_adress;
    6752:	46 83       	std	Z+6, r20	; 0x06
	while (!(TWIE.MASTER.STATUS & TWI_MASTER_WIF_bm));
    6754:	a0 ea       	ldi	r26, 0xA0	; 160
    6756:	b4 e0       	ldi	r27, 0x04	; 4
    6758:	14 96       	adiw	r26, 0x04	; 4
    675a:	8c 91       	ld	r24, X
    675c:	14 97       	sbiw	r26, 0x04	; 4
    675e:	86 ff       	sbrs	r24, 6
    6760:	fb cf       	rjmp	.-10     	; 0x6758 <_Z9twi_writeP10TWI_structPhhjhbbb+0x20>
	if(TWIE_MASTER_STATUS & (1<<TWI_MASTER_ARBLOST_bp))
    6762:	80 91 a4 04 	lds	r24, 0x04A4	; 0x8004a4 <__TEXT_REGION_LENGTH__+0x7004a4>
    6766:	83 ff       	sbrs	r24, 3
    6768:	27 c0       	rjmp	.+78     	; 0x67b8 <_Z9twi_writeP10TWI_structPhhjhbbb+0x80>
	{
		twiname->MASTER.CTRLA = 0;
    676a:	11 82       	std	Z+1, r1	; 0x01
		PORTE.DIRSET = PIN1_bm;
    676c:	82 e0       	ldi	r24, 0x02	; 2
    676e:	80 93 81 06 	sts	0x0681, r24	; 0x800681 <__TEXT_REGION_LENGTH__+0x700681>
    6772:	89 e0       	ldi	r24, 0x09	; 9
		for(uint8_t i=0;i<9;i++)
		{
			PORTE.OUTSET = PIN1_bm;
    6774:	a0 e8       	ldi	r26, 0x80	; 128
    6776:	b6 e0       	ldi	r27, 0x06	; 6
    6778:	92 e0       	ldi	r25, 0x02	; 2
    677a:	15 96       	adiw	r26, 0x05	; 5
    677c:	9c 93       	st	X, r25
    677e:	15 97       	sbiw	r26, 0x05	; 5
	#else
		//round up by default
		__ticks_dc = (uint32_t)(ceil(fabs(__tmp)));
	#endif

	__builtin_avr_delay_cycles(__ticks_dc);
    6780:	55 ed       	ldi	r21, 0xD5	; 213
    6782:	5a 95       	dec	r21
    6784:	f1 f7       	brne	.-4      	; 0x6782 <_Z9twi_writeP10TWI_structPhhjhbbb+0x4a>
    6786:	00 00       	nop
			_delay_us(20);
			PORTE.OUTCLR = PIN1_bm;
    6788:	16 96       	adiw	r26, 0x06	; 6
    678a:	9c 93       	st	X, r25
    678c:	16 97       	sbiw	r26, 0x06	; 6
    678e:	55 ed       	ldi	r21, 0xD5	; 213
    6790:	5a 95       	dec	r21
    6792:	f1 f7       	brne	.-4      	; 0x6790 <_Z9twi_writeP10TWI_structPhhjhbbb+0x58>
    6794:	00 00       	nop
    6796:	81 50       	subi	r24, 0x01	; 1
	while (!(TWIE.MASTER.STATUS & TWI_MASTER_WIF_bm));
	if(TWIE_MASTER_STATUS & (1<<TWI_MASTER_ARBLOST_bp))
	{
		twiname->MASTER.CTRLA = 0;
		PORTE.DIRSET = PIN1_bm;
		for(uint8_t i=0;i<9;i++)
    6798:	81 f7       	brne	.-32     	; 0x677a <_Z9twi_writeP10TWI_structPhhjhbbb+0x42>
			PORTE.OUTSET = PIN1_bm;
			_delay_us(20);
			PORTE.OUTCLR = PIN1_bm;
			_delay_us(20);
		}
		PORTE.DIRCLR = PIN1_bm;
    679a:	82 e0       	ldi	r24, 0x02	; 2
    679c:	80 93 82 06 	sts	0x0682, r24	; 0x800682 <__TEXT_REGION_LENGTH__+0x700682>
		twiname->MASTER.CTRLA = TWI_MASTER_ENABLE_bm;
    67a0:	88 e0       	ldi	r24, 0x08	; 8
    67a2:	81 83       	std	Z+1, r24	; 0x01
		twiname->MASTER.STATUS = TWI_MASTER_ARBLOST_bm | TWI_MASTER_BUSERR_bm;
    67a4:	8c e0       	ldi	r24, 0x0C	; 12
    67a6:	84 83       	std	Z+4, r24	; 0x04
		twiname->MASTER.STATUS = TWI_MASTER_BUSSTATE_IDLE_gc;
    67a8:	81 e0       	ldi	r24, 0x01	; 1
    67aa:	84 83       	std	Z+4, r24	; 0x04
		TWIE.MASTER.CTRLC = TWI_MASTER_CMD_STOP_gc;
    67ac:	83 e0       	ldi	r24, 0x03	; 3
    67ae:	80 93 a3 04 	sts	0x04A3, r24	; 0x8004a3 <__TEXT_REGION_LENGTH__+0x7004a3>
		twiname->MASTER.ADDR = page_adress;
    67b2:	46 83       	std	Z+6, r20	; 0x06
		if(TWIE_MASTER_STATUS & (1<<TWI_MASTER_ARBLOST_bp));
    67b4:	80 91 a4 04 	lds	r24, 0x04A4	; 0x8004a4 <__TEXT_REGION_LENGTH__+0x7004a4>
		
	}
	if(!skip_address)
    67b8:	cc 20       	and	r12, r12
    67ba:	31 f0       	breq	.+12     	; 0x67c8 <_Z9twi_writeP10TWI_structPhhjhbbb+0x90>
		}
		
		twiname->MASTER.DATA = Adress;
		while (!(twiname->MASTER.STATUS & TWI_MASTER_WIF_bm));
	}
	for(i=0;i<bytes;i++){
    67bc:	20 2f       	mov	r18, r16
    67be:	30 e0       	ldi	r19, 0x00	; 0
    67c0:	21 15       	cp	r18, r1
    67c2:	31 05       	cpc	r19, r1
    67c4:	61 f4       	brne	.+24     	; 0x67de <_Z9twi_writeP10TWI_structPhhjhbbb+0xa6>
    67c6:	1c c0       	rjmp	.+56     	; 0x6800 <_Z9twi_writeP10TWI_structPhhjhbbb+0xc8>
		if(TWIE_MASTER_STATUS & (1<<TWI_MASTER_ARBLOST_bp));
		
	}
	if(!skip_address)
	{
		if(!skip_high_address)
    67c8:	a1 10       	cpse	r10, r1
    67ca:	04 c0       	rjmp	.+8      	; 0x67d4 <_Z9twi_writeP10TWI_structPhhjhbbb+0x9c>
		{
			twiname->MASTER.DATA = Adress>>8;
    67cc:	37 83       	std	Z+7, r19	; 0x07
			while (!(twiname->MASTER.STATUS & TWI_MASTER_WIF_bm));
    67ce:	84 81       	ldd	r24, Z+4	; 0x04
    67d0:	86 ff       	sbrs	r24, 6
    67d2:	fd cf       	rjmp	.-6      	; 0x67ce <_Z9twi_writeP10TWI_structPhhjhbbb+0x96>
		}
		
		twiname->MASTER.DATA = Adress;
    67d4:	27 83       	std	Z+7, r18	; 0x07
		while (!(twiname->MASTER.STATUS & TWI_MASTER_WIF_bm));
    67d6:	84 81       	ldd	r24, Z+4	; 0x04
    67d8:	86 ff       	sbrs	r24, 6
    67da:	fd cf       	rjmp	.-6      	; 0x67d6 <_Z9twi_writeP10TWI_structPhhjhbbb+0x9e>
    67dc:	ef cf       	rjmp	.-34     	; 0x67bc <_Z9twi_writeP10TWI_structPhhjhbbb+0x84>
    67de:	de 01       	movw	r26, r28
    67e0:	2c 0f       	add	r18, r28
    67e2:	3d 1f       	adc	r19, r29
	}
	for(i=0;i<bytes;i++){
		if(!fixed)             // write data 
    67e4:	e1 10       	cpse	r14, r1
    67e6:	03 c0       	rjmp	.+6      	; 0x67ee <_Z9twi_writeP10TWI_structPhhjhbbb+0xb6>
		twiname->MASTER.DATA =writeData[i];
    67e8:	8c 91       	ld	r24, X
    67ea:	87 83       	std	Z+7, r24	; 0x07
    67ec:	02 c0       	rjmp	.+4      	; 0x67f2 <_Z9twi_writeP10TWI_structPhhjhbbb+0xba>
		else
		twiname->MASTER.DATA =writeData[0];
    67ee:	88 81       	ld	r24, Y
    67f0:	87 83       	std	Z+7, r24	; 0x07
		while(!(twiname->MASTER.STATUS&TWI_MASTER_WIF_bm));
    67f2:	94 81       	ldd	r25, Z+4	; 0x04
    67f4:	96 ff       	sbrs	r25, 6
    67f6:	fd cf       	rjmp	.-6      	; 0x67f2 <_Z9twi_writeP10TWI_structPhhjhbbb+0xba>
    67f8:	11 96       	adiw	r26, 0x01	; 1
		}
		
		twiname->MASTER.DATA = Adress;
		while (!(twiname->MASTER.STATUS & TWI_MASTER_WIF_bm));
	}
	for(i=0;i<bytes;i++){
    67fa:	a2 17       	cp	r26, r18
    67fc:	b3 07       	cpc	r27, r19
    67fe:	91 f7       	brne	.-28     	; 0x67e4 <_Z9twi_writeP10TWI_structPhhjhbbb+0xac>
		twiname->MASTER.DATA =writeData[i];
		else
		twiname->MASTER.DATA =writeData[0];
		while(!(twiname->MASTER.STATUS&TWI_MASTER_WIF_bm));
	}
	TWIE.MASTER.CTRLC = TWI_MASTER_CMD_STOP_gc;
    6800:	83 e0       	ldi	r24, 0x03	; 3
    6802:	80 93 a3 04 	sts	0x04A3, r24	; 0x8004a3 <__TEXT_REGION_LENGTH__+0x7004a3>
}
    6806:	df 91       	pop	r29
    6808:	cf 91       	pop	r28
    680a:	0f 91       	pop	r16
    680c:	ef 90       	pop	r14
    680e:	cf 90       	pop	r12
    6810:	af 90       	pop	r10
    6812:	08 95       	ret

00006814 <_Z8twi_readP10TWI_structPhhjhb>:

void twi_read(TWI_t *twiname, uint8_t *readData,uint8_t page_adress, uint16_t Adress, uint8_t bytes,bool skip_address)
{
    6814:	ef 92       	push	r14
    6816:	0f 93       	push	r16
    6818:	cf 93       	push	r28
    681a:	df 93       	push	r29
    681c:	1f 92       	push	r1
    681e:	cd b7       	in	r28, 0x3d	; 61
    6820:	de b7       	in	r29, 0x3e	; 62
    6822:	fc 01       	movw	r30, r24
	twiname->MASTER.CTRLC &= ~((1<<TWI_MASTER_ACKACT_bp));
    6824:	83 81       	ldd	r24, Z+3	; 0x03
    6826:	8b 7f       	andi	r24, 0xFB	; 251
    6828:	83 83       	std	Z+3, r24	; 0x03
	twiname->MASTER.ADDR = page_adress;
    682a:	46 83       	std	Z+6, r20	; 0x06
	while (!(twiname->MASTER.STATUS & TWI_MASTER_WIF_bm));
    682c:	84 81       	ldd	r24, Z+4	; 0x04
    682e:	86 ff       	sbrs	r24, 6
    6830:	fd cf       	rjmp	.-6      	; 0x682c <_Z8twi_readP10TWI_structPhhjhb+0x18>
	if(twiname->MASTER.STATUS & (1<<TWI_MASTER_ARBLOST_bp))
    6832:	84 81       	ldd	r24, Z+4	; 0x04
    6834:	83 ff       	sbrs	r24, 3
    6836:	27 c0       	rjmp	.+78     	; 0x6886 <_Z8twi_readP10TWI_structPhhjhb+0x72>
	{
		twiname->MASTER.CTRLA = 0;
    6838:	11 82       	std	Z+1, r1	; 0x01
		PORTC.DIRSET = PIN1_bm;
    683a:	82 e0       	ldi	r24, 0x02	; 2
    683c:	80 93 41 06 	sts	0x0641, r24	; 0x800641 <__TEXT_REGION_LENGTH__+0x700641>
    6840:	89 e0       	ldi	r24, 0x09	; 9
		for(uint8_t i=0;i<9;i++)
		{
			PORTC.OUTSET = PIN1_bm;
    6842:	a0 e4       	ldi	r26, 0x40	; 64
    6844:	b6 e0       	ldi	r27, 0x06	; 6
    6846:	92 e0       	ldi	r25, 0x02	; 2
    6848:	15 96       	adiw	r26, 0x05	; 5
    684a:	9c 93       	st	X, r25
    684c:	15 97       	sbiw	r26, 0x05	; 5
    684e:	55 ed       	ldi	r21, 0xD5	; 213
    6850:	5a 95       	dec	r21
    6852:	f1 f7       	brne	.-4      	; 0x6850 <_Z8twi_readP10TWI_structPhhjhb+0x3c>
    6854:	00 00       	nop
			_delay_us(20);
			PORTC.OUTCLR = PIN1_bm;
    6856:	16 96       	adiw	r26, 0x06	; 6
    6858:	9c 93       	st	X, r25
    685a:	16 97       	sbiw	r26, 0x06	; 6
    685c:	55 ed       	ldi	r21, 0xD5	; 213
    685e:	5a 95       	dec	r21
    6860:	f1 f7       	brne	.-4      	; 0x685e <_Z8twi_readP10TWI_structPhhjhb+0x4a>
    6862:	00 00       	nop
    6864:	81 50       	subi	r24, 0x01	; 1
	while (!(twiname->MASTER.STATUS & TWI_MASTER_WIF_bm));
	if(twiname->MASTER.STATUS & (1<<TWI_MASTER_ARBLOST_bp))
	{
		twiname->MASTER.CTRLA = 0;
		PORTC.DIRSET = PIN1_bm;
		for(uint8_t i=0;i<9;i++)
    6866:	81 f7       	brne	.-32     	; 0x6848 <_Z8twi_readP10TWI_structPhhjhb+0x34>
			PORTC.OUTSET = PIN1_bm;
			_delay_us(20);
			PORTC.OUTCLR = PIN1_bm;
			_delay_us(20);
		}
		PORTC.DIRCLR = PIN1_bm;
    6868:	82 e0       	ldi	r24, 0x02	; 2
    686a:	80 93 42 06 	sts	0x0642, r24	; 0x800642 <__TEXT_REGION_LENGTH__+0x700642>
		twiname->MASTER.CTRLA = TWI_MASTER_ENABLE_bm;
    686e:	88 e0       	ldi	r24, 0x08	; 8
    6870:	81 83       	std	Z+1, r24	; 0x01
		twiname->MASTER.STATUS = TWI_MASTER_ARBLOST_bm | TWI_MASTER_BUSERR_bm;
    6872:	8c e0       	ldi	r24, 0x0C	; 12
    6874:	84 83       	std	Z+4, r24	; 0x04
		twiname->MASTER.STATUS = TWI_MASTER_BUSSTATE_IDLE_gc;
    6876:	81 e0       	ldi	r24, 0x01	; 1
    6878:	84 83       	std	Z+4, r24	; 0x04
		twiname->MASTER.CTRLC = TWI_MASTER_CMD_STOP_gc;
    687a:	83 e0       	ldi	r24, 0x03	; 3
    687c:	83 83       	std	Z+3, r24	; 0x03
		twiname->MASTER.ADDR = page_adress;
    687e:	46 83       	std	Z+6, r20	; 0x06
		while (!(twiname->MASTER.STATUS & TWI_MASTER_WIF_bm));
    6880:	84 81       	ldd	r24, Z+4	; 0x04
    6882:	86 ff       	sbrs	r24, 6
    6884:	fd cf       	rjmp	.-6      	; 0x6880 <_Z8twi_readP10TWI_structPhhjhb+0x6c>
	}
	if(!skip_address)
    6886:	e1 10       	cpse	r14, r1
    6888:	08 c0       	rjmp	.+16     	; 0x689a <_Z8twi_readP10TWI_structPhhjhb+0x86>
	{
		twiname->MASTER.DATA = Adress >> 8;
    688a:	37 83       	std	Z+7, r19	; 0x07
		while (!(twiname->MASTER.STATUS & TWI_MASTER_WIF_bm));
    688c:	84 81       	ldd	r24, Z+4	; 0x04
    688e:	86 ff       	sbrs	r24, 6
    6890:	fd cf       	rjmp	.-6      	; 0x688c <_Z8twi_readP10TWI_structPhhjhb+0x78>
		twiname->MASTER.DATA = Adress ;
    6892:	27 83       	std	Z+7, r18	; 0x07
		while (!(twiname->MASTER.STATUS & TWI_MASTER_WIF_bm));
    6894:	84 81       	ldd	r24, Z+4	; 0x04
    6896:	86 ff       	sbrs	r24, 6
    6898:	fd cf       	rjmp	.-6      	; 0x6894 <_Z8twi_readP10TWI_structPhhjhb+0x80>
	}
	page_adress |= 0x01;
    689a:	41 60       	ori	r20, 0x01	; 1
	twiname->MASTER.ADDR = page_adress;
    689c:	46 83       	std	Z+6, r20	; 0x06
	for(volatile uint8_t j=0 ;j<bytes ;j++){
    689e:	19 82       	std	Y+1, r1	; 0x01
    68a0:	89 81       	ldd	r24, Y+1	; 0x01
    68a2:	80 17       	cp	r24, r16
    68a4:	d0 f4       	brcc	.+52     	; 0x68da <_Z8twi_readP10TWI_structPhhjhb+0xc6>
		
		while(!(twiname->MASTER.STATUS&TWI_MASTER_RIF_bm));
		if(j == (bytes-1))
    68a6:	20 2f       	mov	r18, r16
    68a8:	30 e0       	ldi	r19, 0x00	; 0
    68aa:	21 50       	subi	r18, 0x01	; 1
    68ac:	31 09       	sbc	r19, r1
		{
			twiname->MASTER.CTRLC = (1<<TWI_MASTER_ACKACT_bp) | TWI_MASTER_CMD_STOP_gc;
    68ae:	47 e0       	ldi	r20, 0x07	; 7
	}
	page_adress |= 0x01;
	twiname->MASTER.ADDR = page_adress;
	for(volatile uint8_t j=0 ;j<bytes ;j++){
		
		while(!(twiname->MASTER.STATUS&TWI_MASTER_RIF_bm));
    68b0:	94 81       	ldd	r25, Z+4	; 0x04
    68b2:	99 23       	and	r25, r25
    68b4:	ec f7       	brge	.-6      	; 0x68b0 <_Z8twi_readP10TWI_structPhhjhb+0x9c>
		if(j == (bytes-1))
    68b6:	89 81       	ldd	r24, Y+1	; 0x01
    68b8:	90 e0       	ldi	r25, 0x00	; 0
    68ba:	82 17       	cp	r24, r18
    68bc:	93 07       	cpc	r25, r19
    68be:	09 f4       	brne	.+2      	; 0x68c2 <_Z8twi_readP10TWI_structPhhjhb+0xae>
		{
			twiname->MASTER.CTRLC = (1<<TWI_MASTER_ACKACT_bp) | TWI_MASTER_CMD_STOP_gc;
    68c0:	43 83       	std	Z+3, r20	; 0x03
		}
		readData[j] = twiname->MASTER.DATA;
    68c2:	99 81       	ldd	r25, Y+1	; 0x01
    68c4:	87 81       	ldd	r24, Z+7	; 0x07
    68c6:	db 01       	movw	r26, r22
    68c8:	a9 0f       	add	r26, r25
    68ca:	b1 1d       	adc	r27, r1
    68cc:	8c 93       	st	X, r24
		twiname->MASTER.DATA = Adress ;
		while (!(twiname->MASTER.STATUS & TWI_MASTER_WIF_bm));
	}
	page_adress |= 0x01;
	twiname->MASTER.ADDR = page_adress;
	for(volatile uint8_t j=0 ;j<bytes ;j++){
    68ce:	89 81       	ldd	r24, Y+1	; 0x01
    68d0:	8f 5f       	subi	r24, 0xFF	; 255
    68d2:	89 83       	std	Y+1, r24	; 0x01
    68d4:	89 81       	ldd	r24, Y+1	; 0x01
    68d6:	80 17       	cp	r24, r16
    68d8:	58 f3       	brcs	.-42     	; 0x68b0 <_Z8twi_readP10TWI_structPhhjhb+0x9c>
		{
			twiname->MASTER.CTRLC = (1<<TWI_MASTER_ACKACT_bp) | TWI_MASTER_CMD_STOP_gc;
		}
		readData[j] = twiname->MASTER.DATA;
	}
}
    68da:	0f 90       	pop	r0
    68dc:	df 91       	pop	r29
    68de:	cf 91       	pop	r28
    68e0:	0f 91       	pop	r16
    68e2:	ef 90       	pop	r14
    68e4:	08 95       	ret

000068e6 <_Z18twi_presense_checkP10TWI_structh>:

bool twi_presense_check(TWI_t *twiname,uint8_t Adress)
{
    68e6:	dc 01       	movw	r26, r24
		TWIE_MASTER_CTRLC &= ~((1<<TWI_MASTER_ACKACT_bp));
    68e8:	e3 ea       	ldi	r30, 0xA3	; 163
    68ea:	f4 e0       	ldi	r31, 0x04	; 4
    68ec:	80 81       	ld	r24, Z
    68ee:	8b 7f       	andi	r24, 0xFB	; 251
    68f0:	80 83       	st	Z, r24
		twiname->MASTER.ADDR = Adress;
    68f2:	16 96       	adiw	r26, 0x06	; 6
    68f4:	6c 93       	st	X, r22
    68f6:	16 97       	sbiw	r26, 0x06	; 6
		while (!(TWIE.MASTER.STATUS & TWI_MASTER_WIF_bm));
    68f8:	e0 ea       	ldi	r30, 0xA0	; 160
    68fa:	f4 e0       	ldi	r31, 0x04	; 4
    68fc:	94 81       	ldd	r25, Z+4	; 0x04
    68fe:	96 ff       	sbrs	r25, 6
    6900:	fd cf       	rjmp	.-6      	; 0x68fc <_Z18twi_presense_checkP10TWI_structh+0x16>
		if(TWIE_MASTER_STATUS & (1<<TWI_MASTER_ARBLOST_bp))
    6902:	80 91 a4 04 	lds	r24, 0x04A4	; 0x8004a4 <__TEXT_REGION_LENGTH__+0x7004a4>
    6906:	83 ff       	sbrs	r24, 3
    6908:	2d c0       	rjmp	.+90     	; 0x6964 <_Z18twi_presense_checkP10TWI_structh+0x7e>
		{
			twiname->MASTER.CTRLA = 0;
    690a:	11 96       	adiw	r26, 0x01	; 1
    690c:	1c 92       	st	X, r1
    690e:	11 97       	sbiw	r26, 0x01	; 1
			PORTE.DIRSET = PIN1_bm;
    6910:	82 e0       	ldi	r24, 0x02	; 2
    6912:	80 93 81 06 	sts	0x0681, r24	; 0x800681 <__TEXT_REGION_LENGTH__+0x700681>
    6916:	99 e0       	ldi	r25, 0x09	; 9
			for(uint8_t i=0;i<9;i++)
			{
				PORTE.OUTSET = PIN1_bm;
    6918:	e0 e8       	ldi	r30, 0x80	; 128
    691a:	f6 e0       	ldi	r31, 0x06	; 6
    691c:	22 e0       	ldi	r18, 0x02	; 2
    691e:	25 83       	std	Z+5, r18	; 0x05
    6920:	85 ed       	ldi	r24, 0xD5	; 213
    6922:	8a 95       	dec	r24
    6924:	f1 f7       	brne	.-4      	; 0x6922 <_Z18twi_presense_checkP10TWI_structh+0x3c>
    6926:	00 00       	nop
				_delay_us(20);
				PORTE.OUTCLR = PIN1_bm;
    6928:	26 83       	std	Z+6, r18	; 0x06
    692a:	85 ed       	ldi	r24, 0xD5	; 213
    692c:	8a 95       	dec	r24
    692e:	f1 f7       	brne	.-4      	; 0x692c <_Z18twi_presense_checkP10TWI_structh+0x46>
    6930:	00 00       	nop
    6932:	91 50       	subi	r25, 0x01	; 1
		while (!(TWIE.MASTER.STATUS & TWI_MASTER_WIF_bm));
		if(TWIE_MASTER_STATUS & (1<<TWI_MASTER_ARBLOST_bp))
		{
			twiname->MASTER.CTRLA = 0;
			PORTE.DIRSET = PIN1_bm;
			for(uint8_t i=0;i<9;i++)
    6934:	a1 f7       	brne	.-24     	; 0x691e <_Z18twi_presense_checkP10TWI_structh+0x38>
				PORTE.OUTSET = PIN1_bm;
				_delay_us(20);
				PORTE.OUTCLR = PIN1_bm;
				_delay_us(20);
			}
			PORTE.DIRCLR = PIN1_bm;
    6936:	82 e0       	ldi	r24, 0x02	; 2
    6938:	80 93 82 06 	sts	0x0682, r24	; 0x800682 <__TEXT_REGION_LENGTH__+0x700682>
			twiname->MASTER.CTRLA = TWI_MASTER_ENABLE_bm;
    693c:	88 e0       	ldi	r24, 0x08	; 8
    693e:	11 96       	adiw	r26, 0x01	; 1
    6940:	8c 93       	st	X, r24
    6942:	11 97       	sbiw	r26, 0x01	; 1
			twiname->MASTER.STATUS = TWI_MASTER_ARBLOST_bm | TWI_MASTER_BUSERR_bm;
    6944:	8c e0       	ldi	r24, 0x0C	; 12
    6946:	14 96       	adiw	r26, 0x04	; 4
    6948:	8c 93       	st	X, r24
    694a:	14 97       	sbiw	r26, 0x04	; 4
			twiname->MASTER.STATUS = TWI_MASTER_BUSSTATE_IDLE_gc;
    694c:	81 e0       	ldi	r24, 0x01	; 1
    694e:	14 96       	adiw	r26, 0x04	; 4
    6950:	8c 93       	st	X, r24
    6952:	14 97       	sbiw	r26, 0x04	; 4
			TWIE.MASTER.CTRLC = TWI_MASTER_CMD_STOP_gc;
    6954:	83 e0       	ldi	r24, 0x03	; 3
    6956:	80 93 a3 04 	sts	0x04A3, r24	; 0x8004a3 <__TEXT_REGION_LENGTH__+0x7004a3>
			twiname->MASTER.ADDR = Adress;
    695a:	16 96       	adiw	r26, 0x06	; 6
    695c:	6c 93       	st	X, r22
    695e:	16 97       	sbiw	r26, 0x06	; 6
			if(TWIE_MASTER_STATUS & (1<<TWI_MASTER_ARBLOST_bp));
    6960:	80 91 a4 04 	lds	r24, 0x04A4	; 0x8004a4 <__TEXT_REGION_LENGTH__+0x7004a4>
		}
		twiname->MASTER.CTRLC = TWI_MASTER_CMD_STOP_gc;
    6964:	83 e0       	ldi	r24, 0x03	; 3
    6966:	13 96       	adiw	r26, 0x03	; 3
    6968:	8c 93       	st	X, r24
    696a:	13 97       	sbiw	r26, 0x03	; 3
		bool status = true;
		if(twiname->MASTER.STATUS & TWI_MASTER_RXACK_bm)
    696c:	14 96       	adiw	r26, 0x04	; 4
    696e:	8c 91       	ld	r24, X
			status = false;
		return status;
    6970:	82 95       	swap	r24
    6972:	81 70       	andi	r24, 0x01	; 1
	
}
    6974:	91 e0       	ldi	r25, 0x01	; 1
    6976:	89 27       	eor	r24, r25
    6978:	08 95       	ret

0000697a <usb_handle_ring_note>:
	}
	return num;
}

unsigned int usb_handle_ring_note(void *pt, unsigned int le)
{
    697a:	fc 01       	movw	r30, r24
	USB_Request_Header_t *r;

	if(usb_notify_state)
    697c:	80 91 22 24 	lds	r24, 0x2422	; 0x802422 <usb_notify_state>
    6980:	88 23       	and	r24, r24
    6982:	41 f1       	breq	.+80     	; 0x69d4 <usb_handle_ring_note+0x5a>
	{
		r=(USB_Request_Header_t *)pt;
		if(usb_notify_state<EP_NOTE_SEND)
    6984:	80 91 22 24 	lds	r24, 0x2422	; 0x802422 <usb_notify_state>
    6988:	88 23       	and	r24, r24
    698a:	a4 f0       	brlt	.+40     	; 0x69b4 <usb_handle_ring_note+0x3a>
		{
			r->bmRequestType=(REQDIR_DEVICETOHOST | REQTYPE_CLASS | REQREC_INTERFACE);
    698c:	81 ea       	ldi	r24, 0xA1	; 161
    698e:	80 83       	st	Z, r24
			r->bRequest=CDC_NOTIF_SerialState;
    6990:	80 e2       	ldi	r24, 0x20	; 32
    6992:	81 83       	std	Z+1, r24	; 0x01
			r->wValue=0;
    6994:	12 82       	std	Z+2, r1	; 0x02
    6996:	13 82       	std	Z+3, r1	; 0x03
			r->wIndex=0;
    6998:	14 82       	std	Z+4, r1	; 0x04
    699a:	15 82       	std	Z+5, r1	; 0x05
			r->wLength=2;
    699c:	82 e0       	ldi	r24, 0x02	; 2
    699e:	90 e0       	ldi	r25, 0x00	; 0
    69a0:	86 83       	std	Z+6, r24	; 0x06
    69a2:	97 83       	std	Z+7, r25	; 0x07
			usb_notify_state|=EP_NOTE_SEND;
    69a4:	80 91 22 24 	lds	r24, 0x2422	; 0x802422 <usb_notify_state>
    69a8:	80 68       	ori	r24, 0x80	; 128
    69aa:	80 93 22 24 	sts	0x2422, r24	; 0x802422 <usb_notify_state>
			return sizeof(USB_Request_Header_t);
    69ae:	88 e0       	ldi	r24, 0x08	; 8
    69b0:	90 e0       	ldi	r25, 0x00	; 0
    69b2:	08 95       	ret
		}
		if(usb_notify_state==(EP_NOTE_SET_DCD|EP_NOTE_SEND))
    69b4:	80 91 22 24 	lds	r24, 0x2422	; 0x802422 <usb_notify_state>
    69b8:	81 38       	cpi	r24, 0x81	; 129
    69ba:	29 f4       	brne	.+10     	; 0x69c6 <usb_handle_ring_note+0x4c>
		{
			*(unsigned int *)pt=(CDC_CONTROL_LINE_IN_DCD  | CDC_CONTROL_LINE_IN_DSR);
    69bc:	83 e0       	ldi	r24, 0x03	; 3
    69be:	90 e0       	ldi	r25, 0x00	; 0
    69c0:	80 83       	st	Z, r24
    69c2:	91 83       	std	Z+1, r25	; 0x01
    69c4:	02 c0       	rjmp	.+4      	; 0x69ca <usb_handle_ring_note+0x50>
		}
		else
		{
			*(unsigned int *)pt=0;
    69c6:	10 82       	st	Z, r1
    69c8:	11 82       	std	Z+1, r1	; 0x01
		}
		usb_notify_state=EP_NOTE_IDLE;
    69ca:	10 92 22 24 	sts	0x2422, r1	; 0x802422 <usb_notify_state>
		return 2;
    69ce:	82 e0       	ldi	r24, 0x02	; 2
    69d0:	90 e0       	ldi	r25, 0x00	; 0
    69d2:	08 95       	ret
	}

	return 0;
    69d4:	80 e0       	ldi	r24, 0x00	; 0
    69d6:	90 e0       	ldi	r25, 0x00	; 0
}
    69d8:	08 95       	ret

000069da <usb_handle_ring_rx>:

// Callbacks for endpoints 
// incomming data from usb. this functions have to handle the databuffer pointet with the void-ptr
// the data-len is given in le
unsigned int usb_handle_ring_rx(void *pt, unsigned int le)
{
    69da:	cf 93       	push	r28
//	unsigned char *a=pt;
	if(	cdc_rxb.flag)
    69dc:	20 91 66 25 	lds	r18, 0x2566	; 0x802566 <cdc_rxb+0x42>
    69e0:	22 23       	and	r18, r18
    69e2:	89 f0       	breq	.+34     	; 0x6a06 <usb_handle_ring_rx+0x2c>
    69e4:	57 2f       	mov	r21, r23
    69e6:	c6 2f       	mov	r28, r22
    69e8:	bc 01       	movw	r22, r24
	{
		memcpy(cdc_rxb.data,(unsigned char *)pt,le);
    69ea:	4c 2f       	mov	r20, r28
    69ec:	84 e2       	ldi	r24, 0x24	; 36
    69ee:	95 e2       	ldi	r25, 0x25	; 37
    69f0:	0e 94 7a 3b 	call	0x76f4	; 0x76f4 <memcpy>
		cdc_rxb.len=le;
    69f4:	c0 93 65 25 	sts	0x2565, r28	; 0x802565 <cdc_rxb+0x41>
		cdc_rxb.bytes=0;
    69f8:	10 92 64 25 	sts	0x2564, r1	; 0x802564 <cdc_rxb+0x40>
		cdc_rxb.flag=0;
    69fc:	10 92 66 25 	sts	0x2566, r1	; 0x802566 <cdc_rxb+0x42>
		return 1;
    6a00:	81 e0       	ldi	r24, 0x01	; 1
    6a02:	90 e0       	ldi	r25, 0x00	; 0
    6a04:	02 c0       	rjmp	.+4      	; 0x6a0a <usb_handle_ring_rx+0x30>
	}
	return 0;
    6a06:	80 e0       	ldi	r24, 0x00	; 0
    6a08:	90 e0       	ldi	r25, 0x00	; 0
}
    6a0a:	cf 91       	pop	r28
    6a0c:	08 95       	ret

00006a0e <usb_handle_ring_tx>:

// outgoing data to usb (device to host). this functions have to handle the databuffer pointet with the void-ptr
// the data-max-len is given in le; it have to returnd the len of data in buffer
// if nothing to send, return 0
unsigned int usb_handle_ring_tx(void *pt, unsigned int le)
{
    6a0e:	cf 93       	push	r28
    6a10:	df 93       	push	r29
	unsigned int num=0;
	if(	cdc_txb.flag)
    6a12:	20 91 29 26 	lds	r18, 0x2629	; 0x802629 <cdc_txb+0x42>
    6a16:	22 23       	and	r18, r18
    6a18:	79 f0       	breq	.+30     	; 0x6a38 <usb_handle_ring_tx+0x2a>
	{
		memcpy((unsigned char *)pt,cdc_txb.data,cdc_txb.len);
    6a1a:	c8 e2       	ldi	r28, 0x28	; 40
    6a1c:	d6 e2       	ldi	r29, 0x26	; 38
    6a1e:	48 81       	ld	r20, Y
    6a20:	50 e0       	ldi	r21, 0x00	; 0
    6a22:	67 ee       	ldi	r22, 0xE7	; 231
    6a24:	75 e2       	ldi	r23, 0x25	; 37
    6a26:	0e 94 7a 3b 	call	0x76f4	; 0x76f4 <memcpy>
		num=cdc_txb.len;
    6a2a:	88 81       	ld	r24, Y
    6a2c:	90 e0       	ldi	r25, 0x00	; 0
		cdc_txb.bytes=0;
    6a2e:	10 92 27 26 	sts	0x2627, r1	; 0x802627 <cdc_txb+0x40>
		cdc_txb.flag=0;
    6a32:	10 92 29 26 	sts	0x2629, r1	; 0x802629 <cdc_txb+0x42>
    6a36:	02 c0       	rjmp	.+4      	; 0x6a3c <usb_handle_ring_tx+0x2e>
// outgoing data to usb (device to host). this functions have to handle the databuffer pointet with the void-ptr
// the data-max-len is given in le; it have to returnd the len of data in buffer
// if nothing to send, return 0
unsigned int usb_handle_ring_tx(void *pt, unsigned int le)
{
	unsigned int num=0;
    6a38:	80 e0       	ldi	r24, 0x00	; 0
    6a3a:	90 e0       	ldi	r25, 0x00	; 0
		num=cdc_txb.len;
		cdc_txb.bytes=0;
		cdc_txb.flag=0;
	}
	return num;
}
    6a3c:	df 91       	pop	r29
    6a3e:	cf 91       	pop	r28
    6a40:	08 95       	ret

00006a42 <usb_init>:
EP_DEF(ep_out,  CDC_RX_EPADDR | USB_EP_PP , USB_EP_TYPE_BULK_gc, CDC_TXRX_EPSIZE,usb_handle_ring_rx);
EP_DEF(ep_note,  CDC_NOTIFICATION_EPADDR | USB_EP_PP , USB_EP_TYPE_BULK_gc, CDC_TXRX_EPSIZE,usb_handle_ring_note);

void usb_init(void) // initialize the usb_cdc
{
	cdc_rxb.flag=0;
    6a42:	10 92 66 25 	sts	0x2566, r1	; 0x802566 <cdc_rxb+0x42>
	cdc_rxb.len=0;
    6a46:	10 92 65 25 	sts	0x2565, r1	; 0x802565 <cdc_rxb+0x41>
	cdc_rxb.bytes=0;
    6a4a:	10 92 64 25 	sts	0x2564, r1	; 0x802564 <cdc_rxb+0x40>

	cdc_txb.flag=0;
    6a4e:	10 92 29 26 	sts	0x2629, r1	; 0x802629 <cdc_txb+0x42>
	cdc_txb.len=0;
    6a52:	10 92 28 26 	sts	0x2628, r1	; 0x802628 <cdc_txb+0x41>
	cdc_txb.bytes=0;
    6a56:	10 92 27 26 	sts	0x2627, r1	; 0x802627 <cdc_txb+0x40>

	EP_DEF_init_buffer(ep_in);
    6a5a:	8d e3       	ldi	r24, 0x3D	; 61
    6a5c:	91 e2       	ldi	r25, 0x21	; 33
    6a5e:	0e 94 d5 35 	call	0x6baa	; 0x6baa <ep_def_init_buffer>
	EP_DEF_init_buffer(ep_out);
    6a62:	84 e3       	ldi	r24, 0x34	; 52
    6a64:	91 e2       	ldi	r25, 0x21	; 33
    6a66:	0e 94 d5 35 	call	0x6baa	; 0x6baa <ep_def_init_buffer>
	EP_DEF_init_buffer(ep_note);
    6a6a:	8b e2       	ldi	r24, 0x2B	; 43
    6a6c:	91 e2       	ldi	r25, 0x21	; 33
    6a6e:	0e 94 d5 35 	call	0x6baa	; 0x6baa <ep_def_init_buffer>

	// Enable USB interrupts
//	USB.INTCTRLA = /*USB_SOFIE_bm |*/ USB_BUSEVIE_bm | USB_INTLVL_MED_gc;
	USB.INTCTRLA = /*USB_SOFIE_bm |*/ USB_BUSEVIE_bm | USB_INTLVL_LO_gc;
    6a72:	e0 ec       	ldi	r30, 0xC0	; 192
    6a74:	f4 e0       	ldi	r31, 0x04	; 4
    6a76:	81 e4       	ldi	r24, 0x41	; 65
    6a78:	80 87       	std	Z+8, r24	; 0x08
	USB.INTCTRLB = USB_TRNIE_bm | USB_SETUPIE_bm;
    6a7a:	83 e0       	ldi	r24, 0x03	; 3
    6a7c:	81 87       	std	Z+9, r24	; 0x09

	USB_xm_Init();
    6a7e:	0e 94 e8 38 	call	0x71d0	; 0x71d0 <USB_xm_Init>

#ifdef USB_DEF_CONFIG_IRQ
	PMIC.CTRL = PMIC_LOLVLEN_bm | PMIC_MEDLVLEN_bm | PMIC_HILVLEN_bm;
    6a82:	87 e0       	ldi	r24, 0x07	; 7
    6a84:	80 93 a2 00 	sts	0x00A2, r24	; 0x8000a2 <__TEXT_REGION_LENGTH__+0x7000a2>
	sei(); 
    6a88:	78 94       	sei
    6a8a:	08 95       	ret

00006a8c <EVENT_USB_Device_SetInterface>:
// Events 
// if device set interface
bool EVENT_USB_Device_SetInterface(uint8_t interface, uint8_t altsetting)
{
	return false;
}
    6a8c:	80 e0       	ldi	r24, 0x00	; 0
    6a8e:	08 95       	ret

00006a90 <EVENT_USB_Device_ConfigurationChanged>:

// if Configuration is changed this is set
void EVENT_USB_Device_ConfigurationChanged(uint8_t config)
{
	EP_DEF_init(ep_in);
    6a90:	8d e3       	ldi	r24, 0x3D	; 61
    6a92:	91 e2       	ldi	r25, 0x21	; 33
    6a94:	0e 94 19 36 	call	0x6c32	; 0x6c32 <ep_def_init>
	EP_DEF_init(ep_out);
    6a98:	84 e3       	ldi	r24, 0x34	; 52
    6a9a:	91 e2       	ldi	r25, 0x21	; 33
    6a9c:	0e 94 19 36 	call	0x6c32	; 0x6c32 <ep_def_init>
	EP_DEF_init(ep_note);
    6aa0:	8b e2       	ldi	r24, 0x2B	; 43
    6aa2:	91 e2       	ldi	r25, 0x21	; 33
    6aa4:	0e 94 19 36 	call	0x6c32	; 0x6c32 <ep_def_init>
    6aa8:	08 95       	ret

00006aaa <EVENT_USB_Device_Suspend>:
}

// if device suspend
void EVENT_USB_Device_Suspend(void)
{
    6aaa:	08 95       	ret

00006aac <EVENT_USB_Device_WakeUp>:
}

// if device resume
void EVENT_USB_Device_WakeUp(void)
{
    6aac:	08 95       	ret

00006aae <EVENT_USB_Device_Reset>:
}

// if device reset
void EVENT_USB_Device_Reset(void)
{
    6aae:	08 95       	ret

00006ab0 <EVENT_USB_Device_ControlOUT>:
}

void EVENT_USB_Device_ControlOUT(uint8_t* data, uint8_t len)
{
	if(len)
    6ab0:	66 23       	and	r22, r22
    6ab2:	61 f0       	breq	.+24     	; 0x6acc <EVENT_USB_Device_ControlOUT+0x1c>
	{
		switch(usb_stored_control)
    6ab4:	20 91 23 24 	lds	r18, 0x2423	; 0x802423 <usb_stored_control>
    6ab8:	20 32       	cpi	r18, 0x20	; 32
    6aba:	41 f4       	brne	.+16     	; 0x6acc <EVENT_USB_Device_ControlOUT+0x1c>
		{
			case CDC_REQ_SetLineEncoding:
				/* Read the line coding data in from the host into the global struct */
				memcpy(&LineEncoding,data,sizeof(CDC_LineEncoding_t));
    6abc:	27 e0       	ldi	r18, 0x07	; 7
    6abe:	fc 01       	movw	r30, r24
    6ac0:	a6 e4       	ldi	r26, 0x46	; 70
    6ac2:	b1 e2       	ldi	r27, 0x21	; 33
    6ac4:	01 90       	ld	r0, Z+
    6ac6:	0d 92       	st	X+, r0
    6ac8:	2a 95       	dec	r18
    6aca:	e1 f7       	brne	.-8      	; 0x6ac4 <EVENT_USB_Device_ControlOUT+0x14>
    6acc:	08 95       	ret

00006ace <EVENT_USB_Device_ControlRequest>:
}

// evnt for Control Request
// Event handler for the library USB Control Request reception event. 
bool EVENT_USB_Device_ControlRequest(USB_Request_Header_t* req)
{
    6ace:	0f 93       	push	r16
    6ad0:	fc 01       	movw	r30, r24
	USB_EP_pair_t* pair = &endpoints[0];
	USB_EP_t* e = &pair->ep[1];
	USB_EP_t* b = &pair->ep[1];

	/* Process CDC specific control requests */
	switch (req->bRequest)
    6ad2:	91 81       	ldd	r25, Z+1	; 0x01
    6ad4:	91 32       	cpi	r25, 0x21	; 33
    6ad6:	51 f0       	breq	.+20     	; 0x6aec <EVENT_USB_Device_ControlRequest+0x1e>
    6ad8:	18 f4       	brcc	.+6      	; 0x6ae0 <EVENT_USB_Device_ControlRequest+0x12>
    6ada:	90 32       	cpi	r25, 0x20	; 32
    6adc:	21 f1       	breq	.+72     	; 0x6b26 <EVENT_USB_Device_ControlRequest+0x58>
    6ade:	5a c0       	rjmp	.+180    	; 0x6b94 <EVENT_USB_Device_ControlRequest+0xc6>
    6ae0:	92 32       	cpi	r25, 0x22	; 34
    6ae2:	b1 f1       	breq	.+108    	; 0x6b50 <EVENT_USB_Device_ControlRequest+0x82>
    6ae4:	93 32       	cpi	r25, 0x23	; 35
    6ae6:	09 f4       	brne	.+2      	; 0x6aea <EVENT_USB_Device_ControlRequest+0x1c>
    6ae8:	44 c0       	rjmp	.+136    	; 0x6b72 <EVENT_USB_Device_ControlRequest+0xa4>
    6aea:	54 c0       	rjmp	.+168    	; 0x6b94 <EVENT_USB_Device_ControlRequest+0xc6>
	{
		case CDC_REQ_GetLineEncoding:
			if (req->bmRequestType == (REQDIR_DEVICETOHOST | REQTYPE_CLASS | REQREC_INTERFACE))
    6aec:	80 81       	ld	r24, Z
    6aee:	81 3a       	cpi	r24, 0xA1	; 161
    6af0:	09 f0       	breq	.+2      	; 0x6af4 <EVENT_USB_Device_ControlRequest+0x26>
    6af2:	52 c0       	rjmp	.+164    	; 0x6b98 <EVENT_USB_Device_ControlRequest+0xca>
			{

				/* Write the line coding data to the control endpoint */
				memcpy(ep0_buf_in,(char *)&LineEncoding,sizeof(CDC_LineEncoding_t));
    6af4:	87 e0       	ldi	r24, 0x07	; 7
    6af6:	e6 e4       	ldi	r30, 0x46	; 70
    6af8:	f1 e2       	ldi	r31, 0x21	; 33
    6afa:	aa e2       	ldi	r26, 0x2A	; 42
    6afc:	b6 e2       	ldi	r27, 0x26	; 38
    6afe:	01 90       	ld	r0, Z+
    6b00:	0d 92       	st	X+, r0
    6b02:	8a 95       	dec	r24
    6b04:	e1 f7       	brne	.-8      	; 0x6afe <EVENT_USB_Device_ControlRequest+0x30>
				// send ep 0
				b->DATAPTR = (unsigned) ep0_buf_in;
    6b06:	e0 e0       	ldi	r30, 0x00	; 0
    6b08:	f0 e2       	ldi	r31, 0x20	; 32
    6b0a:	8a e2       	ldi	r24, 0x2A	; 42
    6b0c:	96 e2       	ldi	r25, 0x26	; 38
    6b0e:	84 87       	std	Z+12, r24	; 0x0c
    6b10:	95 87       	std	Z+13, r25	; 0x0d
				b->CNT = sizeof(CDC_LineEncoding_t);
    6b12:	87 e0       	ldi	r24, 0x07	; 7
    6b14:	90 e0       	ldi	r25, 0x00	; 0
    6b16:	82 87       	std	Z+10, r24	; 0x0a
    6b18:	93 87       	std	Z+11, r25	; 0x0b
				LACR16(&(e->STATUS), USB_EP_BUSNACK0_bm | USB_EP_TRNCOMPL0_bm);
    6b1a:	e8 e0       	ldi	r30, 0x08	; 8
    6b1c:	f0 e2       	ldi	r31, 0x20	; 32
    6b1e:	02 e2       	ldi	r16, 0x22	; 34
    6b20:	06 93       	lac	Z, r16
				return true;
    6b22:	81 e0       	ldi	r24, 0x01	; 1
    6b24:	40 c0       	rjmp	.+128    	; 0x6ba6 <EVENT_USB_Device_ControlRequest+0xd8>
			}
			break;

		case CDC_REQ_SetLineEncoding:
			if (req->bmRequestType == (REQDIR_HOSTTODEVICE | REQTYPE_CLASS | REQREC_INTERFACE))
    6b26:	80 81       	ld	r24, Z
    6b28:	81 32       	cpi	r24, 0x21	; 33
    6b2a:	09 f0       	breq	.+2      	; 0x6b2e <EVENT_USB_Device_ControlRequest+0x60>
    6b2c:	37 c0       	rjmp	.+110    	; 0x6b9c <EVENT_USB_Device_ControlRequest+0xce>
			{
				usb_stored_control=CDC_REQ_SetLineEncoding;
    6b2e:	80 e2       	ldi	r24, 0x20	; 32
    6b30:	80 93 23 24 	sts	0x2423, r24	; 0x802423 <usb_stored_control>
				/* Read the line coding data in from the host into the global struct */
				// send ep 0
				b->DATAPTR = (unsigned) ep0_buf_in;
    6b34:	e0 e0       	ldi	r30, 0x00	; 0
    6b36:	f0 e2       	ldi	r31, 0x20	; 32
    6b38:	8a e2       	ldi	r24, 0x2A	; 42
    6b3a:	96 e2       	ldi	r25, 0x26	; 38
    6b3c:	84 87       	std	Z+12, r24	; 0x0c
    6b3e:	95 87       	std	Z+13, r25	; 0x0d
				b->CNT = 0;
    6b40:	12 86       	std	Z+10, r1	; 0x0a
    6b42:	13 86       	std	Z+11, r1	; 0x0b
				LACR16(&(e->STATUS), USB_EP_BUSNACK0_bm | USB_EP_TRNCOMPL0_bm);
    6b44:	e8 e0       	ldi	r30, 0x08	; 8
    6b46:	f0 e2       	ldi	r31, 0x20	; 32
    6b48:	02 e2       	ldi	r16, 0x22	; 34
    6b4a:	06 93       	lac	Z, r16
				return true;
    6b4c:	81 e0       	ldi	r24, 0x01	; 1
    6b4e:	2b c0       	rjmp	.+86     	; 0x6ba6 <EVENT_USB_Device_ControlRequest+0xd8>
			}

			break;
		case CDC_REQ_SetControlLineState:
			if (req->bmRequestType == (REQDIR_HOSTTODEVICE | REQTYPE_CLASS | REQREC_INTERFACE))
    6b50:	80 81       	ld	r24, Z
    6b52:	81 32       	cpi	r24, 0x21	; 33
    6b54:	29 f5       	brne	.+74     	; 0x6ba0 <EVENT_USB_Device_ControlRequest+0xd2>
			{
				// send ep 0
				b->DATAPTR = (unsigned) ep0_buf_in;
    6b56:	e0 e0       	ldi	r30, 0x00	; 0
    6b58:	f0 e2       	ldi	r31, 0x20	; 32
    6b5a:	8a e2       	ldi	r24, 0x2A	; 42
    6b5c:	96 e2       	ldi	r25, 0x26	; 38
    6b5e:	84 87       	std	Z+12, r24	; 0x0c
    6b60:	95 87       	std	Z+13, r25	; 0x0d
				b->CNT = 0;
    6b62:	12 86       	std	Z+10, r1	; 0x0a
    6b64:	13 86       	std	Z+11, r1	; 0x0b
				LACR16(&(e->STATUS), USB_EP_BUSNACK0_bm | USB_EP_TRNCOMPL0_bm);
    6b66:	e8 e0       	ldi	r30, 0x08	; 8
    6b68:	f0 e2       	ldi	r31, 0x20	; 32
    6b6a:	02 e2       	ldi	r16, 0x22	; 34
    6b6c:	06 93       	lac	Z, r16

				return true;
    6b6e:	81 e0       	ldi	r24, 0x01	; 1
    6b70:	1a c0       	rjmp	.+52     	; 0x6ba6 <EVENT_USB_Device_ControlRequest+0xd8>
			}
			break;

		case CDC_REQ_SendBreak:
			if (req->bmRequestType == (REQDIR_HOSTTODEVICE | REQTYPE_CLASS | REQREC_INTERFACE))
    6b72:	80 81       	ld	r24, Z
    6b74:	81 32       	cpi	r24, 0x21	; 33
    6b76:	b1 f4       	brne	.+44     	; 0x6ba4 <EVENT_USB_Device_ControlRequest+0xd6>
			{
//				EVENT_CDC_Device_BreakSent(CDCInterfaceInfo, (uint8_t)USB_ControlRequest.wValue);
				// send ep 0
				b->DATAPTR = (unsigned) ep0_buf_in;
    6b78:	e0 e0       	ldi	r30, 0x00	; 0
    6b7a:	f0 e2       	ldi	r31, 0x20	; 32
    6b7c:	8a e2       	ldi	r24, 0x2A	; 42
    6b7e:	96 e2       	ldi	r25, 0x26	; 38
    6b80:	84 87       	std	Z+12, r24	; 0x0c
    6b82:	95 87       	std	Z+13, r25	; 0x0d
				b->CNT = 0;
    6b84:	12 86       	std	Z+10, r1	; 0x0a
    6b86:	13 86       	std	Z+11, r1	; 0x0b
				LACR16(&(e->STATUS), USB_EP_BUSNACK0_bm | USB_EP_TRNCOMPL0_bm);
    6b88:	e8 e0       	ldi	r30, 0x08	; 8
    6b8a:	f0 e2       	ldi	r31, 0x20	; 32
    6b8c:	02 e2       	ldi	r16, 0x22	; 34
    6b8e:	06 93       	lac	Z, r16
				return true;
    6b90:	81 e0       	ldi	r24, 0x01	; 1
    6b92:	09 c0       	rjmp	.+18     	; 0x6ba6 <EVENT_USB_Device_ControlRequest+0xd8>
//		if (req->bRequest == 0xBB)
//		{
//			USB_enter_bootloader();
//		}
//	}
	return false;
    6b94:	80 e0       	ldi	r24, 0x00	; 0
    6b96:	07 c0       	rjmp	.+14     	; 0x6ba6 <EVENT_USB_Device_ControlRequest+0xd8>
    6b98:	80 e0       	ldi	r24, 0x00	; 0
    6b9a:	05 c0       	rjmp	.+10     	; 0x6ba6 <EVENT_USB_Device_ControlRequest+0xd8>
    6b9c:	80 e0       	ldi	r24, 0x00	; 0
    6b9e:	03 c0       	rjmp	.+6      	; 0x6ba6 <EVENT_USB_Device_ControlRequest+0xd8>
    6ba0:	80 e0       	ldi	r24, 0x00	; 0
    6ba2:	01 c0       	rjmp	.+2      	; 0x6ba6 <EVENT_USB_Device_ControlRequest+0xd8>
    6ba4:	80 e0       	ldi	r24, 0x00	; 0
}
    6ba6:	0f 91       	pop	r16
    6ba8:	08 95       	ret

00006baa <ep_def_init_buffer>:
uint8_t ep0_buf_out[USB_DEF_EP0_SIZE];
USB_EP_pair_t endpoints[USB_DEF_EP_MAX] GCC_FORCE_ALIGN_2;

// endpoint-functions
void ep_def_init_buffer(EP_data *p)
{
    6baa:	dc 01       	movw	r26, r24
	if(p->ep&USB_EP_PP)
    6bac:	ec 91       	ld	r30, X
    6bae:	e6 ff       	sbrs	r30, 6
    6bb0:	22 c0       	rjmp	.+68     	; 0x6bf6 <ep_def_init_buffer+0x4c>
	{
		endpoints[p->ep&0x0f].in.DATAPTR=(unsigned int)p->buf;
    6bb2:	ef 70       	andi	r30, 0x0F	; 15
    6bb4:	13 96       	adiw	r26, 0x03	; 3
    6bb6:	8d 91       	ld	r24, X+
    6bb8:	9c 91       	ld	r25, X
    6bba:	14 97       	sbiw	r26, 0x04	; 4
    6bbc:	20 e1       	ldi	r18, 0x10	; 16
    6bbe:	e2 9f       	mul	r30, r18
    6bc0:	f0 01       	movw	r30, r0
    6bc2:	11 24       	eor	r1, r1
    6bc4:	e0 50       	subi	r30, 0x00	; 0
    6bc6:	f0 4e       	sbci	r31, 0xE0	; 224
    6bc8:	84 87       	std	Z+12, r24	; 0x0c
    6bca:	95 87       	std	Z+13, r25	; 0x0d
		endpoints[p->ep&0x0f].out.DATAPTR=((unsigned int)p->buf)+p->len;
    6bcc:	ec 91       	ld	r30, X
    6bce:	ef 70       	andi	r30, 0x0F	; 15
    6bd0:	13 96       	adiw	r26, 0x03	; 3
    6bd2:	2d 91       	ld	r18, X+
    6bd4:	3c 91       	ld	r19, X
    6bd6:	14 97       	sbiw	r26, 0x04	; 4
    6bd8:	15 96       	adiw	r26, 0x05	; 5
    6bda:	8d 91       	ld	r24, X+
    6bdc:	9c 91       	ld	r25, X
    6bde:	16 97       	sbiw	r26, 0x06	; 6
    6be0:	82 0f       	add	r24, r18
    6be2:	93 1f       	adc	r25, r19
    6be4:	20 e1       	ldi	r18, 0x10	; 16
    6be6:	e2 9f       	mul	r30, r18
    6be8:	f0 01       	movw	r30, r0
    6bea:	11 24       	eor	r1, r1
    6bec:	e0 50       	subi	r30, 0x00	; 0
    6bee:	f0 4e       	sbci	r31, 0xE0	; 224
    6bf0:	84 83       	std	Z+4, r24	; 0x04
    6bf2:	95 83       	std	Z+5, r25	; 0x05
    6bf4:	08 95       	ret
	}
	else
	{
		if(p->ep&ENDPOINT_DIR_MASK)
    6bf6:	ee 23       	and	r30, r30
    6bf8:	74 f4       	brge	.+28     	; 0x6c16 <ep_def_init_buffer+0x6c>
		{
			endpoints[p->ep&0x0f].in.DATAPTR=(unsigned int)p->buf;
    6bfa:	ef 70       	andi	r30, 0x0F	; 15
    6bfc:	13 96       	adiw	r26, 0x03	; 3
    6bfe:	8d 91       	ld	r24, X+
    6c00:	9c 91       	ld	r25, X
    6c02:	14 97       	sbiw	r26, 0x04	; 4
    6c04:	20 e1       	ldi	r18, 0x10	; 16
    6c06:	e2 9f       	mul	r30, r18
    6c08:	f0 01       	movw	r30, r0
    6c0a:	11 24       	eor	r1, r1
    6c0c:	e0 50       	subi	r30, 0x00	; 0
    6c0e:	f0 4e       	sbci	r31, 0xE0	; 224
    6c10:	84 87       	std	Z+12, r24	; 0x0c
    6c12:	95 87       	std	Z+13, r25	; 0x0d
    6c14:	08 95       	ret
		}
		else
		{
			endpoints[p->ep&0x0f].out.DATAPTR=(unsigned int)p->buf;
    6c16:	ef 70       	andi	r30, 0x0F	; 15
    6c18:	13 96       	adiw	r26, 0x03	; 3
    6c1a:	8d 91       	ld	r24, X+
    6c1c:	9c 91       	ld	r25, X
    6c1e:	14 97       	sbiw	r26, 0x04	; 4
    6c20:	20 e1       	ldi	r18, 0x10	; 16
    6c22:	e2 9f       	mul	r30, r18
    6c24:	f0 01       	movw	r30, r0
    6c26:	11 24       	eor	r1, r1
    6c28:	e0 50       	subi	r30, 0x00	; 0
    6c2a:	f0 4e       	sbci	r31, 0xE0	; 224
    6c2c:	84 83       	std	Z+4, r24	; 0x04
    6c2e:	95 83       	std	Z+5, r25	; 0x05
    6c30:	08 95       	ret

00006c32 <ep_def_init>:
		}
	}
}

void ep_def_init(EP_data *p)
{
    6c32:	cf 93       	push	r28
    6c34:	df 93       	push	r29
    6c36:	ec 01       	movw	r28, r24
	USB_EP_t *c,*b;

	ep_def_init_buffer(p);
    6c38:	0e 94 d5 35 	call	0x6baa	; 0x6baa <ep_def_init_buffer>
	p->bank=0;
    6c3c:	1a 82       	std	Y+2, r1	; 0x02

	c=&endpoints[p->ep&0x0f].in;
    6c3e:	28 81       	ld	r18, Y
    6c40:	82 2f       	mov	r24, r18
    6c42:	8f 70       	andi	r24, 0x0F	; 15
    6c44:	90 e0       	ldi	r25, 0x00	; 0
	b=&endpoints[p->ep&0x0f].out;

	if(p->ep&USB_EP_PP)
    6c46:	26 ff       	sbrs	r18, 6
    6c48:	91 c0       	rjmp	.+290    	; 0x6d6c <ep_def_init+0x13a>
	{
		if(p->ep&ENDPOINT_DIR_MASK)
    6c4a:	22 23       	and	r18, r18
    6c4c:	0c f0       	brlt	.+2      	; 0x6c50 <ep_def_init+0x1e>
    6c4e:	48 c0       	rjmp	.+144    	; 0x6ce0 <ep_def_init+0xae>
		{
			c->CTRL=0;
    6c50:	fc 01       	movw	r30, r24
    6c52:	e2 95       	swap	r30
    6c54:	f2 95       	swap	r31
    6c56:	f0 7f       	andi	r31, 0xF0	; 240
    6c58:	fe 27       	eor	r31, r30
    6c5a:	e0 7f       	andi	r30, 0xF0	; 240
    6c5c:	fe 27       	eor	r31, r30
    6c5e:	e0 50       	subi	r30, 0x00	; 0
    6c60:	f0 4e       	sbci	r31, 0xE0	; 224
    6c62:	11 86       	std	Z+9, r1	; 0x09
			c->CNT=0;
    6c64:	12 86       	std	Z+10, r1	; 0x0a
    6c66:	13 86       	std	Z+11, r1	; 0x0b
			c->STATUS=USB_EP_BUSNACK0_bm | USB_EP_BUSNACK1_bm;
    6c68:	26 e0       	ldi	r18, 0x06	; 6
    6c6a:	20 87       	std	Z+8, r18	; 0x08
			c->CTRL=p->type| USB_EP_size_to_gc(p->len) | USB_EP_PINGPONG_bm;
    6c6c:	29 81       	ldd	r18, Y+1	; 0x01
    6c6e:	4d 81       	ldd	r20, Y+5	; 0x05
    6c70:	5e 81       	ldd	r21, Y+6	; 0x06
    6c72:	49 30       	cpi	r20, 0x09	; 9
    6c74:	51 05       	cpc	r21, r1
    6c76:	a8 f0       	brcs	.+42     	; 0x6ca2 <ep_def_init+0x70>
    6c78:	41 31       	cpi	r20, 0x11	; 17
    6c7a:	51 05       	cpc	r21, r1
    6c7c:	a0 f0       	brcs	.+40     	; 0x6ca6 <ep_def_init+0x74>
    6c7e:	41 32       	cpi	r20, 0x21	; 33
    6c80:	51 05       	cpc	r21, r1
    6c82:	98 f0       	brcs	.+38     	; 0x6caa <ep_def_init+0x78>
    6c84:	41 34       	cpi	r20, 0x41	; 65
    6c86:	51 05       	cpc	r21, r1
    6c88:	90 f0       	brcs	.+36     	; 0x6cae <ep_def_init+0x7c>
    6c8a:	41 38       	cpi	r20, 0x81	; 129
    6c8c:	51 05       	cpc	r21, r1
    6c8e:	88 f0       	brcs	.+34     	; 0x6cb2 <ep_def_init+0x80>
    6c90:	41 30       	cpi	r20, 0x01	; 1
    6c92:	31 e0       	ldi	r19, 0x01	; 1
    6c94:	53 07       	cpc	r21, r19
    6c96:	78 f0       	brcs	.+30     	; 0x6cb6 <ep_def_init+0x84>
    6c98:	41 30       	cpi	r20, 0x01	; 1
    6c9a:	52 40       	sbci	r21, 0x02	; 2
    6c9c:	70 f0       	brcs	.+28     	; 0x6cba <ep_def_init+0x88>
    6c9e:	37 e0       	ldi	r19, 0x07	; 7
    6ca0:	0d c0       	rjmp	.+26     	; 0x6cbc <ep_def_init+0x8a>
    6ca2:	30 e0       	ldi	r19, 0x00	; 0
    6ca4:	0b c0       	rjmp	.+22     	; 0x6cbc <ep_def_init+0x8a>
    6ca6:	31 e0       	ldi	r19, 0x01	; 1
    6ca8:	09 c0       	rjmp	.+18     	; 0x6cbc <ep_def_init+0x8a>
    6caa:	32 e0       	ldi	r19, 0x02	; 2
    6cac:	07 c0       	rjmp	.+14     	; 0x6cbc <ep_def_init+0x8a>
    6cae:	33 e0       	ldi	r19, 0x03	; 3
    6cb0:	05 c0       	rjmp	.+10     	; 0x6cbc <ep_def_init+0x8a>
    6cb2:	34 e0       	ldi	r19, 0x04	; 4
    6cb4:	03 c0       	rjmp	.+6      	; 0x6cbc <ep_def_init+0x8a>
    6cb6:	35 e0       	ldi	r19, 0x05	; 5
    6cb8:	01 c0       	rjmp	.+2      	; 0x6cbc <ep_def_init+0x8a>
    6cba:	36 e0       	ldi	r19, 0x06	; 6
    6cbc:	20 61       	ori	r18, 0x10	; 16
    6cbe:	23 2b       	or	r18, r19
    6cc0:	82 95       	swap	r24
    6cc2:	92 95       	swap	r25
    6cc4:	90 7f       	andi	r25, 0xF0	; 240
    6cc6:	98 27       	eor	r25, r24
    6cc8:	80 7f       	andi	r24, 0xF0	; 240
    6cca:	98 27       	eor	r25, r24
    6ccc:	fc 01       	movw	r30, r24
    6cce:	e0 50       	subi	r30, 0x00	; 0
    6cd0:	f0 4e       	sbci	r31, 0xE0	; 224
    6cd2:	21 87       	std	Z+9, r18	; 0x09
			b->CNT=0;
    6cd4:	12 82       	std	Z+2, r1	; 0x02
    6cd6:	13 82       	std	Z+3, r1	; 0x03
			b->CTRL=0;
    6cd8:	11 82       	std	Z+1, r1	; 0x01
			b->STATUS=USB_EP_BUSNACK0_bm;
    6cda:	82 e0       	ldi	r24, 0x02	; 2
    6cdc:	80 83       	st	Z, r24
    6cde:	cb c0       	rjmp	.+406    	; 0x6e76 <ep_def_init+0x244>
		}
		else
		{
			b->CTRL=0;
    6ce0:	fc 01       	movw	r30, r24
    6ce2:	e2 95       	swap	r30
    6ce4:	f2 95       	swap	r31
    6ce6:	f0 7f       	andi	r31, 0xF0	; 240
    6ce8:	fe 27       	eor	r31, r30
    6cea:	e0 7f       	andi	r30, 0xF0	; 240
    6cec:	fe 27       	eor	r31, r30
    6cee:	e0 50       	subi	r30, 0x00	; 0
    6cf0:	f0 4e       	sbci	r31, 0xE0	; 224
    6cf2:	11 82       	std	Z+1, r1	; 0x01
			b->CNT=0;
    6cf4:	12 82       	std	Z+2, r1	; 0x02
    6cf6:	13 82       	std	Z+3, r1	; 0x03
			b->STATUS=0;
    6cf8:	10 82       	st	Z, r1
			b->CTRL=p->type| USB_EP_size_to_gc(p->len) | USB_EP_PINGPONG_bm;
    6cfa:	29 81       	ldd	r18, Y+1	; 0x01
    6cfc:	4d 81       	ldd	r20, Y+5	; 0x05
    6cfe:	5e 81       	ldd	r21, Y+6	; 0x06
    6d00:	49 30       	cpi	r20, 0x09	; 9
    6d02:	51 05       	cpc	r21, r1
    6d04:	a8 f0       	brcs	.+42     	; 0x6d30 <ep_def_init+0xfe>
    6d06:	41 31       	cpi	r20, 0x11	; 17
    6d08:	51 05       	cpc	r21, r1
    6d0a:	a0 f0       	brcs	.+40     	; 0x6d34 <ep_def_init+0x102>
    6d0c:	41 32       	cpi	r20, 0x21	; 33
    6d0e:	51 05       	cpc	r21, r1
    6d10:	98 f0       	brcs	.+38     	; 0x6d38 <ep_def_init+0x106>
    6d12:	41 34       	cpi	r20, 0x41	; 65
    6d14:	51 05       	cpc	r21, r1
    6d16:	90 f0       	brcs	.+36     	; 0x6d3c <ep_def_init+0x10a>
    6d18:	41 38       	cpi	r20, 0x81	; 129
    6d1a:	51 05       	cpc	r21, r1
    6d1c:	88 f0       	brcs	.+34     	; 0x6d40 <ep_def_init+0x10e>
    6d1e:	41 30       	cpi	r20, 0x01	; 1
    6d20:	31 e0       	ldi	r19, 0x01	; 1
    6d22:	53 07       	cpc	r21, r19
    6d24:	78 f0       	brcs	.+30     	; 0x6d44 <ep_def_init+0x112>
    6d26:	41 30       	cpi	r20, 0x01	; 1
    6d28:	52 40       	sbci	r21, 0x02	; 2
    6d2a:	70 f0       	brcs	.+28     	; 0x6d48 <ep_def_init+0x116>
    6d2c:	37 e0       	ldi	r19, 0x07	; 7
    6d2e:	0d c0       	rjmp	.+26     	; 0x6d4a <ep_def_init+0x118>
    6d30:	30 e0       	ldi	r19, 0x00	; 0
    6d32:	0b c0       	rjmp	.+22     	; 0x6d4a <ep_def_init+0x118>
    6d34:	31 e0       	ldi	r19, 0x01	; 1
    6d36:	09 c0       	rjmp	.+18     	; 0x6d4a <ep_def_init+0x118>
    6d38:	32 e0       	ldi	r19, 0x02	; 2
    6d3a:	07 c0       	rjmp	.+14     	; 0x6d4a <ep_def_init+0x118>
    6d3c:	33 e0       	ldi	r19, 0x03	; 3
    6d3e:	05 c0       	rjmp	.+10     	; 0x6d4a <ep_def_init+0x118>
    6d40:	34 e0       	ldi	r19, 0x04	; 4
    6d42:	03 c0       	rjmp	.+6      	; 0x6d4a <ep_def_init+0x118>
    6d44:	35 e0       	ldi	r19, 0x05	; 5
    6d46:	01 c0       	rjmp	.+2      	; 0x6d4a <ep_def_init+0x118>
    6d48:	36 e0       	ldi	r19, 0x06	; 6
    6d4a:	20 61       	ori	r18, 0x10	; 16
    6d4c:	23 2b       	or	r18, r19
    6d4e:	82 95       	swap	r24
    6d50:	92 95       	swap	r25
    6d52:	90 7f       	andi	r25, 0xF0	; 240
    6d54:	98 27       	eor	r25, r24
    6d56:	80 7f       	andi	r24, 0xF0	; 240
    6d58:	98 27       	eor	r25, r24
    6d5a:	fc 01       	movw	r30, r24
    6d5c:	e0 50       	subi	r30, 0x00	; 0
    6d5e:	f0 4e       	sbci	r31, 0xE0	; 224
    6d60:	21 83       	std	Z+1, r18	; 0x01
			c->CNT=0;
    6d62:	12 86       	std	Z+10, r1	; 0x0a
    6d64:	13 86       	std	Z+11, r1	; 0x0b
			c->CTRL=0;
    6d66:	11 86       	std	Z+9, r1	; 0x09
			c->STATUS=0;
    6d68:	10 86       	std	Z+8, r1	; 0x08
    6d6a:	85 c0       	rjmp	.+266    	; 0x6e76 <ep_def_init+0x244>
		}
	}
	else
	{
		if(p->ep&ENDPOINT_DIR_MASK)
    6d6c:	22 23       	and	r18, r18
    6d6e:	0c f0       	brlt	.+2      	; 0x6d72 <ep_def_init+0x140>
    6d70:	42 c0       	rjmp	.+132    	; 0x6df6 <ep_def_init+0x1c4>
		{
			c->CTRL=0;
    6d72:	fc 01       	movw	r30, r24
    6d74:	e2 95       	swap	r30
    6d76:	f2 95       	swap	r31
    6d78:	f0 7f       	andi	r31, 0xF0	; 240
    6d7a:	fe 27       	eor	r31, r30
    6d7c:	e0 7f       	andi	r30, 0xF0	; 240
    6d7e:	fe 27       	eor	r31, r30
    6d80:	e0 50       	subi	r30, 0x00	; 0
    6d82:	f0 4e       	sbci	r31, 0xE0	; 224
    6d84:	11 86       	std	Z+9, r1	; 0x09
			c->CNT=0;
    6d86:	12 86       	std	Z+10, r1	; 0x0a
    6d88:	13 86       	std	Z+11, r1	; 0x0b
			c->STATUS=USB_EP_BUSNACK0_bm | USB_EP_BUSNACK1_bm;
    6d8a:	26 e0       	ldi	r18, 0x06	; 6
    6d8c:	20 87       	std	Z+8, r18	; 0x08
			c->CTRL=p->type| USB_EP_size_to_gc(p->len);
    6d8e:	29 81       	ldd	r18, Y+1	; 0x01
    6d90:	4d 81       	ldd	r20, Y+5	; 0x05
    6d92:	5e 81       	ldd	r21, Y+6	; 0x06
    6d94:	49 30       	cpi	r20, 0x09	; 9
    6d96:	51 05       	cpc	r21, r1
    6d98:	a8 f0       	brcs	.+42     	; 0x6dc4 <ep_def_init+0x192>
    6d9a:	41 31       	cpi	r20, 0x11	; 17
    6d9c:	51 05       	cpc	r21, r1
    6d9e:	a0 f0       	brcs	.+40     	; 0x6dc8 <ep_def_init+0x196>
    6da0:	41 32       	cpi	r20, 0x21	; 33
    6da2:	51 05       	cpc	r21, r1
    6da4:	98 f0       	brcs	.+38     	; 0x6dcc <ep_def_init+0x19a>
    6da6:	41 34       	cpi	r20, 0x41	; 65
    6da8:	51 05       	cpc	r21, r1
    6daa:	90 f0       	brcs	.+36     	; 0x6dd0 <ep_def_init+0x19e>
    6dac:	41 38       	cpi	r20, 0x81	; 129
    6dae:	51 05       	cpc	r21, r1
    6db0:	88 f0       	brcs	.+34     	; 0x6dd4 <ep_def_init+0x1a2>
    6db2:	41 30       	cpi	r20, 0x01	; 1
    6db4:	31 e0       	ldi	r19, 0x01	; 1
    6db6:	53 07       	cpc	r21, r19
    6db8:	78 f0       	brcs	.+30     	; 0x6dd8 <ep_def_init+0x1a6>
    6dba:	41 30       	cpi	r20, 0x01	; 1
    6dbc:	52 40       	sbci	r21, 0x02	; 2
    6dbe:	70 f0       	brcs	.+28     	; 0x6ddc <ep_def_init+0x1aa>
    6dc0:	37 e0       	ldi	r19, 0x07	; 7
    6dc2:	0d c0       	rjmp	.+26     	; 0x6dde <ep_def_init+0x1ac>
    6dc4:	30 e0       	ldi	r19, 0x00	; 0
    6dc6:	0b c0       	rjmp	.+22     	; 0x6dde <ep_def_init+0x1ac>
    6dc8:	31 e0       	ldi	r19, 0x01	; 1
    6dca:	09 c0       	rjmp	.+18     	; 0x6dde <ep_def_init+0x1ac>
    6dcc:	32 e0       	ldi	r19, 0x02	; 2
    6dce:	07 c0       	rjmp	.+14     	; 0x6dde <ep_def_init+0x1ac>
    6dd0:	33 e0       	ldi	r19, 0x03	; 3
    6dd2:	05 c0       	rjmp	.+10     	; 0x6dde <ep_def_init+0x1ac>
    6dd4:	34 e0       	ldi	r19, 0x04	; 4
    6dd6:	03 c0       	rjmp	.+6      	; 0x6dde <ep_def_init+0x1ac>
    6dd8:	35 e0       	ldi	r19, 0x05	; 5
    6dda:	01 c0       	rjmp	.+2      	; 0x6dde <ep_def_init+0x1ac>
    6ddc:	36 e0       	ldi	r19, 0x06	; 6
    6dde:	23 2b       	or	r18, r19
    6de0:	82 95       	swap	r24
    6de2:	92 95       	swap	r25
    6de4:	90 7f       	andi	r25, 0xF0	; 240
    6de6:	98 27       	eor	r25, r24
    6de8:	80 7f       	andi	r24, 0xF0	; 240
    6dea:	98 27       	eor	r25, r24
    6dec:	fc 01       	movw	r30, r24
    6dee:	e0 50       	subi	r30, 0x00	; 0
    6df0:	f0 4e       	sbci	r31, 0xE0	; 224
    6df2:	21 87       	std	Z+9, r18	; 0x09
    6df4:	40 c0       	rjmp	.+128    	; 0x6e76 <ep_def_init+0x244>
		}
		else
		{
			b->CTRL=0;
    6df6:	fc 01       	movw	r30, r24
    6df8:	e2 95       	swap	r30
    6dfa:	f2 95       	swap	r31
    6dfc:	f0 7f       	andi	r31, 0xF0	; 240
    6dfe:	fe 27       	eor	r31, r30
    6e00:	e0 7f       	andi	r30, 0xF0	; 240
    6e02:	fe 27       	eor	r31, r30
    6e04:	e0 50       	subi	r30, 0x00	; 0
    6e06:	f0 4e       	sbci	r31, 0xE0	; 224
    6e08:	11 82       	std	Z+1, r1	; 0x01
			b->CNT=0;
    6e0a:	12 82       	std	Z+2, r1	; 0x02
    6e0c:	13 82       	std	Z+3, r1	; 0x03
			b->STATUS=0;
    6e0e:	10 82       	st	Z, r1
			b->CTRL=p->type| USB_EP_size_to_gc(p->len);
    6e10:	29 81       	ldd	r18, Y+1	; 0x01
    6e12:	4d 81       	ldd	r20, Y+5	; 0x05
    6e14:	5e 81       	ldd	r21, Y+6	; 0x06
    6e16:	49 30       	cpi	r20, 0x09	; 9
    6e18:	51 05       	cpc	r21, r1
    6e1a:	a8 f0       	brcs	.+42     	; 0x6e46 <ep_def_init+0x214>
    6e1c:	41 31       	cpi	r20, 0x11	; 17
    6e1e:	51 05       	cpc	r21, r1
    6e20:	a0 f0       	brcs	.+40     	; 0x6e4a <ep_def_init+0x218>
    6e22:	41 32       	cpi	r20, 0x21	; 33
    6e24:	51 05       	cpc	r21, r1
    6e26:	98 f0       	brcs	.+38     	; 0x6e4e <ep_def_init+0x21c>
    6e28:	41 34       	cpi	r20, 0x41	; 65
    6e2a:	51 05       	cpc	r21, r1
    6e2c:	90 f0       	brcs	.+36     	; 0x6e52 <ep_def_init+0x220>
    6e2e:	41 38       	cpi	r20, 0x81	; 129
    6e30:	51 05       	cpc	r21, r1
    6e32:	88 f0       	brcs	.+34     	; 0x6e56 <ep_def_init+0x224>
    6e34:	41 30       	cpi	r20, 0x01	; 1
    6e36:	31 e0       	ldi	r19, 0x01	; 1
    6e38:	53 07       	cpc	r21, r19
    6e3a:	78 f0       	brcs	.+30     	; 0x6e5a <ep_def_init+0x228>
    6e3c:	41 30       	cpi	r20, 0x01	; 1
    6e3e:	52 40       	sbci	r21, 0x02	; 2
    6e40:	70 f0       	brcs	.+28     	; 0x6e5e <ep_def_init+0x22c>
    6e42:	37 e0       	ldi	r19, 0x07	; 7
    6e44:	0d c0       	rjmp	.+26     	; 0x6e60 <ep_def_init+0x22e>
    6e46:	30 e0       	ldi	r19, 0x00	; 0
    6e48:	0b c0       	rjmp	.+22     	; 0x6e60 <ep_def_init+0x22e>
    6e4a:	31 e0       	ldi	r19, 0x01	; 1
    6e4c:	09 c0       	rjmp	.+18     	; 0x6e60 <ep_def_init+0x22e>
    6e4e:	32 e0       	ldi	r19, 0x02	; 2
    6e50:	07 c0       	rjmp	.+14     	; 0x6e60 <ep_def_init+0x22e>
    6e52:	33 e0       	ldi	r19, 0x03	; 3
    6e54:	05 c0       	rjmp	.+10     	; 0x6e60 <ep_def_init+0x22e>
    6e56:	34 e0       	ldi	r19, 0x04	; 4
    6e58:	03 c0       	rjmp	.+6      	; 0x6e60 <ep_def_init+0x22e>
    6e5a:	35 e0       	ldi	r19, 0x05	; 5
    6e5c:	01 c0       	rjmp	.+2      	; 0x6e60 <ep_def_init+0x22e>
    6e5e:	36 e0       	ldi	r19, 0x06	; 6
    6e60:	23 2b       	or	r18, r19
    6e62:	82 95       	swap	r24
    6e64:	92 95       	swap	r25
    6e66:	90 7f       	andi	r25, 0xF0	; 240
    6e68:	98 27       	eor	r25, r24
    6e6a:	80 7f       	andi	r24, 0xF0	; 240
    6e6c:	98 27       	eor	r25, r24
    6e6e:	fc 01       	movw	r30, r24
    6e70:	e0 50       	subi	r30, 0x00	; 0
    6e72:	f0 4e       	sbci	r31, 0xE0	; 224
    6e74:	21 83       	std	Z+1, r18	; 0x01
		}
	}
}
    6e76:	df 91       	pop	r29
    6e78:	cf 91       	pop	r28
    6e7a:	08 95       	ret

00006e7c <ep_def_in>:

void ep_def_in(EP_data *p)
{
    6e7c:	ef 92       	push	r14
    6e7e:	ff 92       	push	r15
    6e80:	0f 93       	push	r16
    6e82:	1f 93       	push	r17
    6e84:	cf 93       	push	r28
    6e86:	df 93       	push	r29
    6e88:	7c 01       	movw	r14, r24
	unsigned char ad;
	USB_EP_t *c;
	USB_EP_t *b;

	ad=p->ep&0x0f;
    6e8a:	dc 01       	movw	r26, r24
    6e8c:	8c 91       	ld	r24, X
	c=&endpoints[ad].out;
    6e8e:	c8 2f       	mov	r28, r24
    6e90:	cf 70       	andi	r28, 0x0F	; 15
    6e92:	d0 e0       	ldi	r29, 0x00	; 0
	if(p->ep&USB_EP_PP)
    6e94:	86 ff       	sbrs	r24, 6
    6e96:	77 c0       	rjmp	.+238    	; 0x6f86 <ep_def_in+0x10a>
	{
		if(!p->bank)
    6e98:	12 96       	adiw	r26, 0x02	; 2
    6e9a:	8c 91       	ld	r24, X
    6e9c:	12 97       	sbiw	r26, 0x02	; 2
    6e9e:	81 11       	cpse	r24, r1
    6ea0:	39 c0       	rjmp	.+114    	; 0x6f14 <ep_def_in+0x98>
		{
			// incomming data (out-endpoint)
			// bank ist set ; the next action is made with bank 1
			// if out-endpoint the data from the last aktion (receiving data) are on bank 0
			b=&endpoints[ad].out;
			if(c->STATUS&(USB_EP_TRNCOMPL0_bm))
    6ea2:	fe 01       	movw	r30, r28
    6ea4:	e2 95       	swap	r30
    6ea6:	f2 95       	swap	r31
    6ea8:	f0 7f       	andi	r31, 0xF0	; 240
    6eaa:	fe 27       	eor	r31, r30
    6eac:	e0 7f       	andi	r30, 0xF0	; 240
    6eae:	fe 27       	eor	r31, r30
    6eb0:	e0 50       	subi	r30, 0x00	; 0
    6eb2:	f0 4e       	sbci	r31, 0xE0	; 224
    6eb4:	80 81       	ld	r24, Z
    6eb6:	85 ff       	sbrs	r24, 5
    6eb8:	9d c0       	rjmp	.+314    	; 0x6ff4 <ep_def_in+0x178>
			{
				ATOMIC_BLOCK(ATOMIC_RESTORESTATE)
    6eba:	1f b7       	in	r17, 0x3f	; 63
    return 1;
}

static __inline__ uint8_t __iCliRetVal(void)
{
    cli();
    6ebc:	f8 94       	cli
				{
					if(p->handler((unsigned char *)b->DATAPTR,b->CNT))
    6ebe:	fe 01       	movw	r30, r28
    6ec0:	e2 95       	swap	r30
    6ec2:	f2 95       	swap	r31
    6ec4:	f0 7f       	andi	r31, 0xF0	; 240
    6ec6:	fe 27       	eor	r31, r30
    6ec8:	e0 7f       	andi	r30, 0xF0	; 240
    6eca:	fe 27       	eor	r31, r30
    6ecc:	e0 50       	subi	r30, 0x00	; 0
    6ece:	f0 4e       	sbci	r31, 0xE0	; 224
    6ed0:	62 81       	ldd	r22, Z+2	; 0x02
    6ed2:	73 81       	ldd	r23, Z+3	; 0x03
    6ed4:	84 81       	ldd	r24, Z+4	; 0x04
    6ed6:	95 81       	ldd	r25, Z+5	; 0x05
    6ed8:	17 96       	adiw	r26, 0x07	; 7
    6eda:	ed 91       	ld	r30, X+
    6edc:	fc 91       	ld	r31, X
    6ede:	18 97       	sbiw	r26, 0x08	; 8
    6ee0:	09 95       	icall
    6ee2:	89 2b       	or	r24, r25
    6ee4:	a9 f0       	breq	.+42     	; 0x6f10 <ep_def_in+0x94>
					{
						b->CNT=p->len-1;
    6ee6:	f7 01       	movw	r30, r14
    6ee8:	85 81       	ldd	r24, Z+5	; 0x05
    6eea:	96 81       	ldd	r25, Z+6	; 0x06
    6eec:	01 97       	sbiw	r24, 0x01	; 1
    6eee:	fe 01       	movw	r30, r28
    6ef0:	e2 95       	swap	r30
    6ef2:	f2 95       	swap	r31
    6ef4:	f0 7f       	andi	r31, 0xF0	; 240
    6ef6:	fe 27       	eor	r31, r30
    6ef8:	e0 7f       	andi	r30, 0xF0	; 240
    6efa:	fe 27       	eor	r31, r30
    6efc:	e0 50       	subi	r30, 0x00	; 0
    6efe:	f0 4e       	sbci	r31, 0xE0	; 224
    6f00:	82 83       	std	Z+2, r24	; 0x02
    6f02:	93 83       	std	Z+3, r25	; 0x03
						LACR16(&(c->STATUS), USB_EP_BUSNACK0_bm | USB_EP_TRNCOMPL0_bm | USB_EP_OVF_bm);
    6f04:	02 e6       	ldi	r16, 0x62	; 98
    6f06:	06 93       	lac	Z, r16
						p->bank=1;
    6f08:	81 e0       	ldi	r24, 0x01	; 1
    6f0a:	d7 01       	movw	r26, r14
    6f0c:	12 96       	adiw	r26, 0x02	; 2
    6f0e:	8c 93       	st	X, r24
    (void)__s;
}

static __inline__ void __iRestore(const  uint8_t *__s)
{
    SREG = *__s;
    6f10:	1f bf       	out	0x3f, r17	; 63
    __asm__ volatile ("" ::: "memory");
    6f12:	70 c0       	rjmp	.+224    	; 0x6ff4 <ep_def_in+0x178>
		{
			// incomming data (out-endpoint)
			// bank ist not set ; the next action is made with bank 0
			// if out-endpoint the data from the last aktion (receiving data) are on bank 1
			b=&endpoints[ad].in;
			if(c->STATUS&(USB_EP_TRNCOMPL1_bm))
    6f14:	fe 01       	movw	r30, r28
    6f16:	e2 95       	swap	r30
    6f18:	f2 95       	swap	r31
    6f1a:	f0 7f       	andi	r31, 0xF0	; 240
    6f1c:	fe 27       	eor	r31, r30
    6f1e:	e0 7f       	andi	r30, 0xF0	; 240
    6f20:	fe 27       	eor	r31, r30
    6f22:	e0 50       	subi	r30, 0x00	; 0
    6f24:	f0 4e       	sbci	r31, 0xE0	; 224
    6f26:	80 81       	ld	r24, Z
    6f28:	84 ff       	sbrs	r24, 4
    6f2a:	64 c0       	rjmp	.+200    	; 0x6ff4 <ep_def_in+0x178>
			{
				ATOMIC_BLOCK(ATOMIC_RESTORESTATE)
    6f2c:	1f b7       	in	r17, 0x3f	; 63
    return 1;
}

static __inline__ uint8_t __iCliRetVal(void)
{
    cli();
    6f2e:	f8 94       	cli
				{
					if(p->handler((unsigned char *)b->DATAPTR,b->CNT))
    6f30:	fe 01       	movw	r30, r28
    6f32:	e2 95       	swap	r30
    6f34:	f2 95       	swap	r31
    6f36:	f0 7f       	andi	r31, 0xF0	; 240
    6f38:	fe 27       	eor	r31, r30
    6f3a:	e0 7f       	andi	r30, 0xF0	; 240
    6f3c:	fe 27       	eor	r31, r30
    6f3e:	e0 50       	subi	r30, 0x00	; 0
    6f40:	f0 4e       	sbci	r31, 0xE0	; 224
    6f42:	62 85       	ldd	r22, Z+10	; 0x0a
    6f44:	73 85       	ldd	r23, Z+11	; 0x0b
    6f46:	84 85       	ldd	r24, Z+12	; 0x0c
    6f48:	95 85       	ldd	r25, Z+13	; 0x0d
    6f4a:	d7 01       	movw	r26, r14
    6f4c:	17 96       	adiw	r26, 0x07	; 7
    6f4e:	ed 91       	ld	r30, X+
    6f50:	fc 91       	ld	r31, X
    6f52:	18 97       	sbiw	r26, 0x08	; 8
    6f54:	09 95       	icall
    6f56:	89 2b       	or	r24, r25
    6f58:	a1 f0       	breq	.+40     	; 0x6f82 <ep_def_in+0x106>
					{
						b->CNT=p->len-1;
    6f5a:	f7 01       	movw	r30, r14
    6f5c:	85 81       	ldd	r24, Z+5	; 0x05
    6f5e:	96 81       	ldd	r25, Z+6	; 0x06
    6f60:	01 97       	sbiw	r24, 0x01	; 1
    6f62:	fe 01       	movw	r30, r28
    6f64:	e2 95       	swap	r30
    6f66:	f2 95       	swap	r31
    6f68:	f0 7f       	andi	r31, 0xF0	; 240
    6f6a:	fe 27       	eor	r31, r30
    6f6c:	e0 7f       	andi	r30, 0xF0	; 240
    6f6e:	fe 27       	eor	r31, r30
    6f70:	e0 50       	subi	r30, 0x00	; 0
    6f72:	f0 4e       	sbci	r31, 0xE0	; 224
    6f74:	82 87       	std	Z+10, r24	; 0x0a
    6f76:	93 87       	std	Z+11, r25	; 0x0b
						LACR16(&(c->STATUS), USB_EP_BUSNACK1_bm | USB_EP_TRNCOMPL1_bm | USB_EP_OVF_bm);
    6f78:	04 e5       	ldi	r16, 0x54	; 84
    6f7a:	06 93       	lac	Z, r16
						p->bank=0;
    6f7c:	d7 01       	movw	r26, r14
    6f7e:	12 96       	adiw	r26, 0x02	; 2
    6f80:	1c 92       	st	X, r1
    (void)__s;
}

static __inline__ void __iRestore(const  uint8_t *__s)
{
    SREG = *__s;
    6f82:	1f bf       	out	0x3f, r17	; 63
    __asm__ volatile ("" ::: "memory");
    6f84:	37 c0       	rjmp	.+110    	; 0x6ff4 <ep_def_in+0x178>
	}
	else
	{
		// incomming data (out-endpoint)
		b=c;
		if(c->STATUS&(USB_EP_TRNCOMPL0_bm))
    6f86:	fe 01       	movw	r30, r28
    6f88:	e2 95       	swap	r30
    6f8a:	f2 95       	swap	r31
    6f8c:	f0 7f       	andi	r31, 0xF0	; 240
    6f8e:	fe 27       	eor	r31, r30
    6f90:	e0 7f       	andi	r30, 0xF0	; 240
    6f92:	fe 27       	eor	r31, r30
    6f94:	e0 50       	subi	r30, 0x00	; 0
    6f96:	f0 4e       	sbci	r31, 0xE0	; 224
    6f98:	80 81       	ld	r24, Z
    6f9a:	85 ff       	sbrs	r24, 5
    6f9c:	2b c0       	rjmp	.+86     	; 0x6ff4 <ep_def_in+0x178>
		{
			ATOMIC_BLOCK(ATOMIC_RESTORESTATE)
    6f9e:	1f b7       	in	r17, 0x3f	; 63
    return 1;
}

static __inline__ uint8_t __iCliRetVal(void)
{
    cli();
    6fa0:	f8 94       	cli
			{
				if(p->handler((unsigned char *)b->DATAPTR,b->CNT))
    6fa2:	fe 01       	movw	r30, r28
    6fa4:	e2 95       	swap	r30
    6fa6:	f2 95       	swap	r31
    6fa8:	f0 7f       	andi	r31, 0xF0	; 240
    6faa:	fe 27       	eor	r31, r30
    6fac:	e0 7f       	andi	r30, 0xF0	; 240
    6fae:	fe 27       	eor	r31, r30
    6fb0:	e0 50       	subi	r30, 0x00	; 0
    6fb2:	f0 4e       	sbci	r31, 0xE0	; 224
    6fb4:	62 81       	ldd	r22, Z+2	; 0x02
    6fb6:	73 81       	ldd	r23, Z+3	; 0x03
    6fb8:	84 81       	ldd	r24, Z+4	; 0x04
    6fba:	95 81       	ldd	r25, Z+5	; 0x05
    6fbc:	d7 01       	movw	r26, r14
    6fbe:	17 96       	adiw	r26, 0x07	; 7
    6fc0:	ed 91       	ld	r30, X+
    6fc2:	fc 91       	ld	r31, X
    6fc4:	18 97       	sbiw	r26, 0x08	; 8
    6fc6:	09 95       	icall
    6fc8:	89 2b       	or	r24, r25
    6fca:	99 f0       	breq	.+38     	; 0x6ff2 <ep_def_in+0x176>
				{
					b->CNT=p->len;
    6fcc:	f7 01       	movw	r30, r14
    6fce:	85 81       	ldd	r24, Z+5	; 0x05
    6fd0:	96 81       	ldd	r25, Z+6	; 0x06
    6fd2:	fe 01       	movw	r30, r28
    6fd4:	e2 95       	swap	r30
    6fd6:	f2 95       	swap	r31
    6fd8:	f0 7f       	andi	r31, 0xF0	; 240
    6fda:	fe 27       	eor	r31, r30
    6fdc:	e0 7f       	andi	r30, 0xF0	; 240
    6fde:	fe 27       	eor	r31, r30
    6fe0:	e0 50       	subi	r30, 0x00	; 0
    6fe2:	f0 4e       	sbci	r31, 0xE0	; 224
    6fe4:	82 83       	std	Z+2, r24	; 0x02
    6fe6:	93 83       	std	Z+3, r25	; 0x03
					LACR16(&(c->STATUS), USB_EP_BUSNACK0_bm | USB_EP_TRNCOMPL0_bm | USB_EP_OVF_bm);
    6fe8:	02 e6       	ldi	r16, 0x62	; 98
    6fea:	06 93       	lac	Z, r16
					p->bank=0;
    6fec:	d7 01       	movw	r26, r14
    6fee:	12 96       	adiw	r26, 0x02	; 2
    6ff0:	1c 92       	st	X, r1
    (void)__s;
}

static __inline__ void __iRestore(const  uint8_t *__s)
{
    SREG = *__s;
    6ff2:	1f bf       	out	0x3f, r17	; 63
				}
			}
		}
	}
}
    6ff4:	df 91       	pop	r29
    6ff6:	cf 91       	pop	r28
    6ff8:	1f 91       	pop	r17
    6ffa:	0f 91       	pop	r16
    6ffc:	ff 90       	pop	r15
    6ffe:	ef 90       	pop	r14
    7000:	08 95       	ret

00007002 <ep_def_out>:

void ep_def_out(EP_data *p)
{
    7002:	ef 92       	push	r14
    7004:	ff 92       	push	r15
    7006:	0f 93       	push	r16
    7008:	1f 93       	push	r17
    700a:	cf 93       	push	r28
    700c:	df 93       	push	r29
    700e:	7c 01       	movw	r14, r24
	unsigned int le;
	unsigned char ad;
	USB_EP_t *c;
	USB_EP_t *b;

	ad=p->ep&0x0f;
    7010:	dc 01       	movw	r26, r24
    7012:	8c 91       	ld	r24, X
	c=&endpoints[ad].in;
    7014:	c8 2f       	mov	r28, r24
    7016:	cf 70       	andi	r28, 0x0F	; 15
    7018:	d0 e0       	ldi	r29, 0x00	; 0

	if(p->ep&USB_EP_PP)
    701a:	86 ff       	sbrs	r24, 6
    701c:	77 c0       	rjmp	.+238    	; 0x710c <ep_def_out+0x10a>
	{
		if(p->bank)
    701e:	12 96       	adiw	r26, 0x02	; 2
    7020:	8c 91       	ld	r24, X
    7022:	88 23       	and	r24, r24
    7024:	c9 f1       	breq	.+114    	; 0x7098 <ep_def_out+0x96>
		{
			// outgoing data (in-endpoint)
			// bank ist set ; the next action is made with bank 1
			// if in-endpoint the data for the next aktion (sending data) are on bank 1
			b=&endpoints[ad].out;
			if(c->STATUS&(USB_EP_BUSNACK1_bm))
    7026:	fe 01       	movw	r30, r28
    7028:	e2 95       	swap	r30
    702a:	f2 95       	swap	r31
    702c:	f0 7f       	andi	r31, 0xF0	; 240
    702e:	fe 27       	eor	r31, r30
    7030:	e0 7f       	andi	r30, 0xF0	; 240
    7032:	fe 27       	eor	r31, r30
    7034:	e0 50       	subi	r30, 0x00	; 0
    7036:	f0 4e       	sbci	r31, 0xE0	; 224
    7038:	80 85       	ldd	r24, Z+8	; 0x08
    703a:	82 ff       	sbrs	r24, 2
    703c:	9d c0       	rjmp	.+314    	; 0x7178 <ep_def_out+0x176>
			{
				ATOMIC_BLOCK(ATOMIC_RESTORESTATE)
    703e:	1f b7       	in	r17, 0x3f	; 63
    return 1;
}

static __inline__ uint8_t __iCliRetVal(void)
{
    cli();
    7040:	f8 94       	cli
				{
					le=p->handler((unsigned char *)b->DATAPTR,(p->len)-1);
    7042:	fe 01       	movw	r30, r28
    7044:	e2 95       	swap	r30
    7046:	f2 95       	swap	r31
    7048:	f0 7f       	andi	r31, 0xF0	; 240
    704a:	fe 27       	eor	r31, r30
    704c:	e0 7f       	andi	r30, 0xF0	; 240
    704e:	fe 27       	eor	r31, r30
    7050:	e0 50       	subi	r30, 0x00	; 0
    7052:	f0 4e       	sbci	r31, 0xE0	; 224
    7054:	84 81       	ldd	r24, Z+4	; 0x04
    7056:	95 81       	ldd	r25, Z+5	; 0x05
    7058:	f7 01       	movw	r30, r14
    705a:	65 81       	ldd	r22, Z+5	; 0x05
    705c:	76 81       	ldd	r23, Z+6	; 0x06
    705e:	61 50       	subi	r22, 0x01	; 1
    7060:	71 09       	sbc	r23, r1
    7062:	07 80       	ldd	r0, Z+7	; 0x07
    7064:	f0 85       	ldd	r31, Z+8	; 0x08
    7066:	e0 2d       	mov	r30, r0
    7068:	09 95       	icall
					if(le)
    706a:	00 97       	sbiw	r24, 0x00	; 0
    706c:	99 f0       	breq	.+38     	; 0x7094 <ep_def_out+0x92>
					{
						b->CNT=le;
    706e:	c2 95       	swap	r28
    7070:	d2 95       	swap	r29
    7072:	d0 7f       	andi	r29, 0xF0	; 240
    7074:	dc 27       	eor	r29, r28
    7076:	c0 7f       	andi	r28, 0xF0	; 240
    7078:	dc 27       	eor	r29, r28
    707a:	fe 01       	movw	r30, r28
    707c:	e0 50       	subi	r30, 0x00	; 0
    707e:	f0 4e       	sbci	r31, 0xE0	; 224
    7080:	82 83       	std	Z+2, r24	; 0x02
    7082:	93 83       	std	Z+3, r25	; 0x03
						LACR16(&(c->STATUS), USB_EP_BUSNACK1_bm | USB_EP_TRNCOMPL1_bm);
    7084:	fe 01       	movw	r30, r28
    7086:	e8 5f       	subi	r30, 0xF8	; 248
    7088:	ff 4d       	sbci	r31, 0xDF	; 223
    708a:	04 e1       	ldi	r16, 0x14	; 20
    708c:	06 93       	lac	Z, r16
						p->bank=0;
    708e:	d7 01       	movw	r26, r14
    7090:	12 96       	adiw	r26, 0x02	; 2
    7092:	1c 92       	st	X, r1
    (void)__s;
}

static __inline__ void __iRestore(const  uint8_t *__s)
{
    SREG = *__s;
    7094:	1f bf       	out	0x3f, r17	; 63
    __asm__ volatile ("" ::: "memory");
    7096:	70 c0       	rjmp	.+224    	; 0x7178 <ep_def_out+0x176>
		{
			// incomming data (out-endpoint)
			// bank ist not set ; the next action is made with bank 0
			// if out-endpoint the data from the last aktion (receiving data) are on bank 1
			b=&endpoints[ad].in;
			if(c->STATUS&(USB_EP_BUSNACK0_bm))
    7098:	fe 01       	movw	r30, r28
    709a:	e2 95       	swap	r30
    709c:	f2 95       	swap	r31
    709e:	f0 7f       	andi	r31, 0xF0	; 240
    70a0:	fe 27       	eor	r31, r30
    70a2:	e0 7f       	andi	r30, 0xF0	; 240
    70a4:	fe 27       	eor	r31, r30
    70a6:	e0 50       	subi	r30, 0x00	; 0
    70a8:	f0 4e       	sbci	r31, 0xE0	; 224
    70aa:	80 85       	ldd	r24, Z+8	; 0x08
    70ac:	81 ff       	sbrs	r24, 1
    70ae:	64 c0       	rjmp	.+200    	; 0x7178 <ep_def_out+0x176>
			{
				ATOMIC_BLOCK(ATOMIC_RESTORESTATE)
    70b0:	1f b7       	in	r17, 0x3f	; 63
    return 1;
}

static __inline__ uint8_t __iCliRetVal(void)
{
    cli();
    70b2:	f8 94       	cli
				{
					le=p->handler((unsigned char *)b->DATAPTR,(p->len)-1);
    70b4:	fe 01       	movw	r30, r28
    70b6:	e2 95       	swap	r30
    70b8:	f2 95       	swap	r31
    70ba:	f0 7f       	andi	r31, 0xF0	; 240
    70bc:	fe 27       	eor	r31, r30
    70be:	e0 7f       	andi	r30, 0xF0	; 240
    70c0:	fe 27       	eor	r31, r30
    70c2:	e0 50       	subi	r30, 0x00	; 0
    70c4:	f0 4e       	sbci	r31, 0xE0	; 224
    70c6:	84 85       	ldd	r24, Z+12	; 0x0c
    70c8:	95 85       	ldd	r25, Z+13	; 0x0d
    70ca:	f7 01       	movw	r30, r14
    70cc:	65 81       	ldd	r22, Z+5	; 0x05
    70ce:	76 81       	ldd	r23, Z+6	; 0x06
    70d0:	61 50       	subi	r22, 0x01	; 1
    70d2:	71 09       	sbc	r23, r1
    70d4:	07 80       	ldd	r0, Z+7	; 0x07
    70d6:	f0 85       	ldd	r31, Z+8	; 0x08
    70d8:	e0 2d       	mov	r30, r0
    70da:	09 95       	icall
					if(le)
    70dc:	00 97       	sbiw	r24, 0x00	; 0
    70de:	a1 f0       	breq	.+40     	; 0x7108 <ep_def_out+0x106>
					{
						b->CNT=le;
    70e0:	c2 95       	swap	r28
    70e2:	d2 95       	swap	r29
    70e4:	d0 7f       	andi	r29, 0xF0	; 240
    70e6:	dc 27       	eor	r29, r28
    70e8:	c0 7f       	andi	r28, 0xF0	; 240
    70ea:	dc 27       	eor	r29, r28
    70ec:	fe 01       	movw	r30, r28
    70ee:	e0 50       	subi	r30, 0x00	; 0
    70f0:	f0 4e       	sbci	r31, 0xE0	; 224
    70f2:	82 87       	std	Z+10, r24	; 0x0a
    70f4:	93 87       	std	Z+11, r25	; 0x0b
						LACR16(&(c->STATUS), USB_EP_BUSNACK0_bm | USB_EP_TRNCOMPL0_bm);
    70f6:	fe 01       	movw	r30, r28
    70f8:	e8 5f       	subi	r30, 0xF8	; 248
    70fa:	ff 4d       	sbci	r31, 0xDF	; 223
    70fc:	02 e2       	ldi	r16, 0x22	; 34
    70fe:	06 93       	lac	Z, r16
						p->bank=1;
    7100:	81 e0       	ldi	r24, 0x01	; 1
    7102:	d7 01       	movw	r26, r14
    7104:	12 96       	adiw	r26, 0x02	; 2
    7106:	8c 93       	st	X, r24
    (void)__s;
}

static __inline__ void __iRestore(const  uint8_t *__s)
{
    SREG = *__s;
    7108:	1f bf       	out	0x3f, r17	; 63
    __asm__ volatile ("" ::: "memory");
    710a:	36 c0       	rjmp	.+108    	; 0x7178 <ep_def_out+0x176>
	}
	else
	{
		// outgoing data (in-endpoint)
		b=c;
		if(c->STATUS&(USB_EP_BUSNACK0_bm))
    710c:	fe 01       	movw	r30, r28
    710e:	e2 95       	swap	r30
    7110:	f2 95       	swap	r31
    7112:	f0 7f       	andi	r31, 0xF0	; 240
    7114:	fe 27       	eor	r31, r30
    7116:	e0 7f       	andi	r30, 0xF0	; 240
    7118:	fe 27       	eor	r31, r30
    711a:	e0 50       	subi	r30, 0x00	; 0
    711c:	f0 4e       	sbci	r31, 0xE0	; 224
    711e:	80 85       	ldd	r24, Z+8	; 0x08
    7120:	81 ff       	sbrs	r24, 1
    7122:	2a c0       	rjmp	.+84     	; 0x7178 <ep_def_out+0x176>
		{
			ATOMIC_BLOCK(ATOMIC_RESTORESTATE)
    7124:	1f b7       	in	r17, 0x3f	; 63
    return 1;
}

static __inline__ uint8_t __iCliRetVal(void)
{
    cli();
    7126:	f8 94       	cli
			{
				le=p->handler((unsigned char *)b->DATAPTR,p->len);
    7128:	fe 01       	movw	r30, r28
    712a:	e2 95       	swap	r30
    712c:	f2 95       	swap	r31
    712e:	f0 7f       	andi	r31, 0xF0	; 240
    7130:	fe 27       	eor	r31, r30
    7132:	e0 7f       	andi	r30, 0xF0	; 240
    7134:	fe 27       	eor	r31, r30
    7136:	e0 50       	subi	r30, 0x00	; 0
    7138:	f0 4e       	sbci	r31, 0xE0	; 224
    713a:	84 85       	ldd	r24, Z+12	; 0x0c
    713c:	95 85       	ldd	r25, Z+13	; 0x0d
    713e:	f7 01       	movw	r30, r14
    7140:	65 81       	ldd	r22, Z+5	; 0x05
    7142:	76 81       	ldd	r23, Z+6	; 0x06
    7144:	07 80       	ldd	r0, Z+7	; 0x07
    7146:	f0 85       	ldd	r31, Z+8	; 0x08
    7148:	e0 2d       	mov	r30, r0
    714a:	09 95       	icall
				if(le)
    714c:	00 97       	sbiw	r24, 0x00	; 0
    714e:	99 f0       	breq	.+38     	; 0x7176 <ep_def_out+0x174>
				{
					b->CNT=le;
    7150:	c2 95       	swap	r28
    7152:	d2 95       	swap	r29
    7154:	d0 7f       	andi	r29, 0xF0	; 240
    7156:	dc 27       	eor	r29, r28
    7158:	c0 7f       	andi	r28, 0xF0	; 240
    715a:	dc 27       	eor	r29, r28
    715c:	fe 01       	movw	r30, r28
    715e:	e0 50       	subi	r30, 0x00	; 0
    7160:	f0 4e       	sbci	r31, 0xE0	; 224
    7162:	82 87       	std	Z+10, r24	; 0x0a
    7164:	93 87       	std	Z+11, r25	; 0x0b
					LACR16(&(c->STATUS), USB_EP_BUSNACK0_bm | USB_EP_TRNCOMPL0_bm);
    7166:	fe 01       	movw	r30, r28
    7168:	e8 5f       	subi	r30, 0xF8	; 248
    716a:	ff 4d       	sbci	r31, 0xDF	; 223
    716c:	02 e2       	ldi	r16, 0x22	; 34
    716e:	06 93       	lac	Z, r16
					p->bank=0;
    7170:	d7 01       	movw	r26, r14
    7172:	12 96       	adiw	r26, 0x02	; 2
    7174:	1c 92       	st	X, r1
    (void)__s;
}

static __inline__ void __iRestore(const  uint8_t *__s)
{
    SREG = *__s;
    7176:	1f bf       	out	0x3f, r17	; 63
				}
			}
		}
	}
}
    7178:	df 91       	pop	r29
    717a:	cf 91       	pop	r28
    717c:	1f 91       	pop	r17
    717e:	0f 91       	pop	r16
    7180:	ff 90       	pop	r15
    7182:	ef 90       	pop	r14
    7184:	08 95       	ret

00007186 <USB_ResetInterface>:
		if (DescriptorSize > req->wLength) DescriptorSize=req->wLength;
		USB_ep0_send_progmem(DescriptorPointer, DescriptorSize);
		return true;
	}
	return false;
}
    7186:	83 e0       	ldi	r24, 0x03	; 3
    7188:	80 93 44 00 	sts	0x0044, r24	; 0x800044 <__TEXT_REGION_LENGTH__+0x700044>
    718c:	e0 e0       	ldi	r30, 0x00	; 0
    718e:	f0 e2       	ldi	r31, 0x20	; 32
    7190:	a0 ec       	ldi	r26, 0xC0	; 192
    7192:	b4 e0       	ldi	r27, 0x04	; 4
    7194:	16 96       	adiw	r26, 0x06	; 6
    7196:	ed 93       	st	X+, r30
    7198:	fc 93       	st	X, r31
    719a:	17 97       	sbiw	r26, 0x07	; 7
    719c:	13 96       	adiw	r26, 0x03	; 3
    719e:	1c 92       	st	X, r1
    71a0:	13 97       	sbiw	r26, 0x03	; 3
    71a2:	10 82       	st	Z, r1
    71a4:	83 e4       	ldi	r24, 0x43	; 67
    71a6:	81 83       	std	Z+1, r24	; 0x01
    71a8:	2a e6       	ldi	r18, 0x6A	; 106
    71aa:	36 e2       	ldi	r19, 0x26	; 38
    71ac:	24 83       	std	Z+4, r18	; 0x04
    71ae:	35 83       	std	Z+5, r19	; 0x05
    71b0:	92 e0       	ldi	r25, 0x02	; 2
    71b2:	90 87       	std	Z+8, r25	; 0x08
    71b4:	81 87       	std	Z+9, r24	; 0x09
    71b6:	8a e2       	ldi	r24, 0x2A	; 42
    71b8:	96 e2       	ldi	r25, 0x26	; 38
    71ba:	84 87       	std	Z+12, r24	; 0x0c
    71bc:	95 87       	std	Z+13, r25	; 0x0d
    71be:	8f ec       	ldi	r24, 0xCF	; 207
    71c0:	8c 93       	st	X, r24
    71c2:	11 96       	adiw	r26, 0x01	; 1
    71c4:	8c 91       	ld	r24, X
    71c6:	11 97       	sbiw	r26, 0x01	; 1
    71c8:	81 60       	ori	r24, 0x01	; 1
    71ca:	11 96       	adiw	r26, 0x01	; 1
    71cc:	8c 93       	st	X, r24
    71ce:	08 95       	ret

000071d0 <USB_xm_Init>:
    71d0:	cf 93       	push	r28
    71d2:	df 93       	push	r29
    71d4:	80 ec       	ldi	r24, 0xC0	; 192
    71d6:	91 e0       	ldi	r25, 0x01	; 1
    71d8:	22 e0       	ldi	r18, 0x02	; 2
    71da:	fc 01       	movw	r30, r24
    71dc:	22 87       	std	Z+10, r18	; 0x0a
    71de:	ea e1       	ldi	r30, 0x1A	; 26
    71e0:	f0 e0       	ldi	r31, 0x00	; 0
    71e2:	e4 91       	lpm	r30, Z
    71e4:	c0 ec       	ldi	r28, 0xC0	; 192
    71e6:	d4 e0       	ldi	r29, 0x04	; 4
    71e8:	ea af       	std	Y+58, r30	; 0x3a
    71ea:	aa ec       	ldi	r26, 0xCA	; 202
    71ec:	b1 e0       	ldi	r27, 0x01	; 1
    71ee:	1c 92       	st	X, r1
    71f0:	fc 01       	movw	r30, r24
    71f2:	22 87       	std	Z+10, r18	; 0x0a
    71f4:	eb e1       	ldi	r30, 0x1B	; 27
    71f6:	f0 e0       	ldi	r31, 0x00	; 0
    71f8:	e4 91       	lpm	r30, Z
    71fa:	eb af       	std	Y+59, r30	; 0x3b
    71fc:	1c 92       	st	X, r1
    71fe:	0e 94 c3 38 	call	0x7186	; 0x7186 <USB_ResetInterface>
    7202:	df 91       	pop	r29
    7204:	cf 91       	pop	r28
    7206:	08 95       	ret

00007208 <USB_ep0_send_progmem>:
    7208:	0f 93       	push	r16
    720a:	10 92 ca 01 	sts	0x01CA, r1	; 0x8001ca <__TEXT_REGION_LENGTH__+0x7001ca>
    720e:	61 15       	cp	r22, r1
    7210:	71 05       	cpc	r23, r1
    7212:	69 f0       	breq	.+26     	; 0x722e <USB_ep0_send_progmem+0x26>
    7214:	aa e2       	ldi	r26, 0x2A	; 42
    7216:	b6 e2       	ldi	r27, 0x26	; 38
    7218:	9b 01       	movw	r18, r22
    721a:	26 5d       	subi	r18, 0xD6	; 214
    721c:	39 4d       	sbci	r19, 0xD9	; 217
    721e:	e8 2f       	mov	r30, r24
    7220:	f9 2f       	mov	r31, r25
    7222:	84 91       	lpm	r24, Z
    7224:	8d 93       	st	X+, r24
    7226:	31 96       	adiw	r30, 0x01	; 1
    7228:	a2 17       	cp	r26, r18
    722a:	b3 07       	cpc	r27, r19
    722c:	d1 f7       	brne	.-12     	; 0x7222 <USB_ep0_send_progmem+0x1a>
    722e:	e0 e0       	ldi	r30, 0x00	; 0
    7230:	f0 e2       	ldi	r31, 0x20	; 32
    7232:	8a e2       	ldi	r24, 0x2A	; 42
    7234:	96 e2       	ldi	r25, 0x26	; 38
    7236:	84 87       	std	Z+12, r24	; 0x0c
    7238:	95 87       	std	Z+13, r25	; 0x0d
    723a:	62 87       	std	Z+10, r22	; 0x0a
    723c:	73 87       	std	Z+11, r23	; 0x0b
    723e:	e8 e0       	ldi	r30, 0x08	; 8
    7240:	f0 e2       	ldi	r31, 0x20	; 32
    7242:	02 e2       	ldi	r16, 0x22	; 34
    7244:	06 93       	lac	Z, r16
    7246:	0f 91       	pop	r16
    7248:	08 95       	ret

0000724a <USB_HandleSetup>:
	EVENT_USB_Device_ConfigurationChanged(USB_Device_ConfigurationNumber);
	return true;
}

bool USB_HandleSetup(void)
{
    724a:	0f 93       	push	r16
    724c:	cf 93       	push	r28
    724e:	df 93       	push	r29
    7250:	00 d0       	rcall	.+0      	; 0x7252 <USB_HandleSetup+0x8>
    7252:	cd b7       	in	r28, 0x3d	; 61
    7254:	de b7       	in	r29, 0x3e	; 62
	USB_Request_Header_t* req = (void *) ep0_buf_out;
	USB_EP_pair_t* pair = &endpoints[0];
	USB_EP_t* e __attribute__ ((unused)) = &pair->ep[1];
	USB_EP_t* b = &pair->ep[1];
	
	if ((req->bmRequestType & CONTROL_REQTYPE_TYPE) == REQTYPE_STANDARD)
    7256:	80 91 6a 26 	lds	r24, 0x266A	; 0x80266a <ep0_buf_out>
    725a:	80 76       	andi	r24, 0x60	; 96
    725c:	09 f0       	breq	.+2      	; 0x7260 <USB_HandleSetup+0x16>
    725e:	1a c1       	rjmp	.+564    	; 0x7494 <USB_HandleSetup+0x24a>
	{
		switch (req->bRequest)
    7260:	e0 91 6b 26 	lds	r30, 0x266B	; 0x80266b <ep0_buf_out+0x1>
    7264:	8e 2f       	mov	r24, r30
    7266:	90 e0       	ldi	r25, 0x00	; 0
    7268:	8c 30       	cpi	r24, 0x0C	; 12
    726a:	91 05       	cpc	r25, r1
    726c:	08 f0       	brcs	.+2      	; 0x7270 <USB_HandleSetup+0x26>
    726e:	12 c1       	rjmp	.+548    	; 0x7494 <USB_HandleSetup+0x24a>
    7270:	fc 01       	movw	r30, r24
    7272:	e4 5b       	subi	r30, 0xB4	; 180
    7274:	fd 4f       	sbci	r31, 0xFD	; 253
    7276:	0c 94 50 3b 	jmp	0x76a0	; 0x76a0 <__tablejump2__>
		{
			case REQ_GetStatus:
				ep0_buf_in[0] = 0;
    727a:	ea e2       	ldi	r30, 0x2A	; 42
    727c:	f6 e2       	ldi	r31, 0x26	; 38
    727e:	10 82       	st	Z, r1
				ep0_buf_in[1] = 0;
    7280:	11 82       	std	Z+1, r1	; 0x01
				b->DATAPTR = (unsigned) ep0_buf_in;
    7282:	a0 e0       	ldi	r26, 0x00	; 0
    7284:	b0 e2       	ldi	r27, 0x20	; 32
    7286:	1c 96       	adiw	r26, 0x0c	; 12
    7288:	ed 93       	st	X+, r30
    728a:	fc 93       	st	X, r31
    728c:	1d 97       	sbiw	r26, 0x0d	; 13
				b->CNT = 2;
    728e:	82 e0       	ldi	r24, 0x02	; 2
    7290:	90 e0       	ldi	r25, 0x00	; 0
    7292:	1a 96       	adiw	r26, 0x0a	; 10
    7294:	8d 93       	st	X+, r24
    7296:	9c 93       	st	X, r25
    7298:	1b 97       	sbiw	r26, 0x0b	; 11
				LACR16(&(e->STATUS), USB_EP_BUSNACK0_bm | USB_EP_TRNCOMPL0_bm);
    729a:	e8 e0       	ldi	r30, 0x08	; 8
    729c:	f0 e2       	ldi	r31, 0x20	; 32
    729e:	02 e2       	ldi	r16, 0x22	; 34
    72a0:	06 93       	lac	Z, r16
				return true;
    72a2:	81 e0       	ldi	r24, 0x01	; 1
    72a4:	fd c0       	rjmp	.+506    	; 0x74a0 <USB_HandleSetup+0x256>
			case REQ_ClearFeature:
			case REQ_SetFeature:
				b->DATAPTR = (unsigned) ep0_buf_in;
    72a6:	e0 e0       	ldi	r30, 0x00	; 0
    72a8:	f0 e2       	ldi	r31, 0x20	; 32
    72aa:	8a e2       	ldi	r24, 0x2A	; 42
    72ac:	96 e2       	ldi	r25, 0x26	; 38
    72ae:	84 87       	std	Z+12, r24	; 0x0c
    72b0:	95 87       	std	Z+13, r25	; 0x0d
				b->CNT = 0;
    72b2:	12 86       	std	Z+10, r1	; 0x0a
    72b4:	13 86       	std	Z+11, r1	; 0x0b
				LACR16(&(e->STATUS), USB_EP_BUSNACK0_bm | USB_EP_TRNCOMPL0_bm);
    72b6:	e8 e0       	ldi	r30, 0x08	; 8
    72b8:	f0 e2       	ldi	r31, 0x20	; 32
    72ba:	02 e2       	ldi	r16, 0x22	; 34
    72bc:	06 93       	lac	Z, r16
				return true;
    72be:	81 e0       	ldi	r24, 0x01	; 1
    72c0:	ef c0       	rjmp	.+478    	; 0x74a0 <USB_HandleSetup+0x256>
}


inline bool USB_handleSetAddress(USB_Request_Header_t* req) // USB-Funktionen
{
	uint8_t    DeviceAddress = (req -> wValue & 0x7F);
    72c2:	90 91 6c 26 	lds	r25, 0x266C	; 0x80266c <ep0_buf_out+0x2>
    72c6:	9f 77       	andi	r25, 0x7F	; 127
	USB_EP_pair_t* pair = &endpoints[0];
	USB_EP_t* e = &pair->ep[1];
	USB_EP_t* b = &pair->ep[1];

	LACR16(&endpoints[0].out.STATUS, USB_EP_SETUP_bm | USB_EP_BUSNACK0_bm | USB_EP_TRNCOMPL0_bm | USB_EP_OVF_bm);
    72c8:	e0 e0       	ldi	r30, 0x00	; 0
    72ca:	f0 e2       	ldi	r31, 0x20	; 32
    72cc:	02 e7       	ldi	r16, 0x72	; 114
    72ce:	06 93       	lac	Z, r16

	b->DATAPTR = (unsigned) ep0_buf_in;
    72d0:	2a e2       	ldi	r18, 0x2A	; 42
    72d2:	36 e2       	ldi	r19, 0x26	; 38
    72d4:	24 87       	std	Z+12, r18	; 0x0c
    72d6:	35 87       	std	Z+13, r19	; 0x0d
	b->CNT = 0;
    72d8:	12 86       	std	Z+10, r1	; 0x0a
    72da:	13 86       	std	Z+11, r1	; 0x0b
	LACR16(&(e->STATUS), USB_EP_BUSNACK0_bm | USB_EP_TRNCOMPL0_bm);
    72dc:	e8 e0       	ldi	r30, 0x08	; 8
    72de:	f0 e2       	ldi	r31, 0x20	; 32
    72e0:	02 e2       	ldi	r16, 0x22	; 34
    72e2:	06 93       	lac	Z, r16

	while (!(e->STATUS & USB_EP_TRNCOMPL0_bm)){};
    72e4:	e0 e0       	ldi	r30, 0x00	; 0
    72e6:	f0 e2       	ldi	r31, 0x20	; 32
    72e8:	80 85       	ldd	r24, Z+8	; 0x08
    72ea:	85 ff       	sbrs	r24, 5
    72ec:	fd cf       	rjmp	.-6      	; 0x72e8 <USB_HandleSetup+0x9e>

	USB.ADDR = DeviceAddress;
    72ee:	90 93 c3 04 	sts	0x04C3, r25	; 0x8004c3 <__TEXT_REGION_LENGTH__+0x7004c3>
	USB_DeviceState = (DeviceAddress) ? DEVICE_STATE_Addressed : DEVICE_STATE_Default;
    72f2:	91 11       	cpse	r25, r1
    72f4:	02 c0       	rjmp	.+4      	; 0x72fa <USB_HandleSetup+0xb0>
    72f6:	82 e0       	ldi	r24, 0x02	; 2
    72f8:	01 c0       	rjmp	.+2      	; 0x72fc <USB_HandleSetup+0xb2>
    72fa:	83 e0       	ldi	r24, 0x03	; 3
    72fc:	80 93 aa 26 	sts	0x26AA, r24	; 0x8026aa <USB_DeviceState>
				b->DATAPTR = (unsigned) ep0_buf_in;
				b->CNT = 0;
				LACR16(&(e->STATUS), USB_EP_BUSNACK0_bm | USB_EP_TRNCOMPL0_bm);
				return true;
			case REQ_SetAddress:
				return USB_handleSetAddress(req);
    7300:	81 e0       	ldi	r24, 0x01	; 1
    7302:	ce c0       	rjmp	.+412    	; 0x74a0 <USB_HandleSetup+0x256>

inline bool USB_handleGetDescriptor(USB_Request_Header_t* req)
{
	const void* DescriptorPointer;
	uint16_t  DescriptorSize;
	NVM.CMD = NVM_CMD_NO_OPERATION_gc;
    7304:	10 92 ca 01 	sts	0x01CA, r1	; 0x8001ca <__TEXT_REGION_LENGTH__+0x7001ca>
	
	#if !defined(NO_INTERNAL_SERIAL) && (USE_INTERNAL_SERIAL != NO_DESCRIPTOR)
	if (req->wValue == ((DTYPE_String << 8) | USE_INTERNAL_SERIAL))
    7308:	80 91 6c 26 	lds	r24, 0x266C	; 0x80266c <ep0_buf_out+0x2>
    730c:	90 91 6d 26 	lds	r25, 0x266D	; 0x80266d <ep0_buf_out+0x3>
    7310:	8c 3d       	cpi	r24, 0xDC	; 220
    7312:	23 e0       	ldi	r18, 0x03	; 3
    7314:	92 07       	cpc	r25, r18
    7316:	09 f0       	breq	.+2      	; 0x731a <USB_HandleSetup+0xd0>
    7318:	39 c0       	rjmp	.+114    	; 0x738c <USB_HandleSetup+0x142>
	{
		USB_Descriptor_Header_t Header;
		uint16_t                UnicodeString[INTERNAL_SERIAL_LENGTH_BITS / 4];
	}* SignatureDescriptor = (void*) ep0_buf_in;

	SignatureDescriptor->Header.Type = DTYPE_String;
    731a:	ea e2       	ldi	r30, 0x2A	; 42
    731c:	f6 e2       	ldi	r31, 0x26	; 38
    731e:	83 e0       	ldi	r24, 0x03	; 3
    7320:	81 83       	std	Z+1, r24	; 0x01
	SignatureDescriptor->Header.Size = USB_STRING_LEN(INTERNAL_SERIAL_LENGTH_BITS / 4);
    7322:	8a e3       	ldi	r24, 0x3A	; 58
    7324:	80 83       	st	Z, r24
    7326:	ac e2       	ldi	r26, 0x2C	; 44
    7328:	b6 e2       	ldi	r27, 0x26	; 38
	//uint_reg_t CurrentGlobalInt = GetGlobalInterruptMask();
	//GlobalInterruptDisable();
	
	uint8_t SigReadAddress = INTERNAL_SERIAL_START_ADDRESS;

	for (uint8_t SerialCharNum = 0; SerialCharNum < (INTERNAL_SERIAL_LENGTH_BITS / 4); SerialCharNum++)
    732a:	80 e0       	ldi	r24, 0x00	; 0
inline void USB_Device_GetSerialString(uint16_t* const UnicodeString)
{
	//uint_reg_t CurrentGlobalInt = GetGlobalInterruptMask();
	//GlobalInterruptDisable();
	
	uint8_t SigReadAddress = INTERNAL_SERIAL_START_ADDRESS;
    732c:	98 e0       	ldi	r25, 0x08	; 8

	for (uint8_t SerialCharNum = 0; SerialCharNum < (INTERNAL_SERIAL_LENGTH_BITS / 4); SerialCharNum++)
	{					
		uint8_t SerialByte;

		NVM.CMD    = NVM_CMD_READ_CALIB_ROW_gc;
    732e:	40 ec       	ldi	r20, 0xC0	; 192
    7330:	51 e0       	ldi	r21, 0x01	; 1
    7332:	62 e0       	ldi	r22, 0x02	; 2
		SerialByte = pgm_read_byte(SigReadAddress);
		NVM_CMD = NVM_CMD_NO_OPERATION_gc; 
    7334:	2a ec       	ldi	r18, 0xCA	; 202
    7336:	31 e0       	ldi	r19, 0x01	; 1

	for (uint8_t SerialCharNum = 0; SerialCharNum < (INTERNAL_SERIAL_LENGTH_BITS / 4); SerialCharNum++)
	{					
		uint8_t SerialByte;

		NVM.CMD    = NVM_CMD_READ_CALIB_ROW_gc;
    7338:	fa 01       	movw	r30, r20
    733a:	62 87       	std	Z+10, r22	; 0x0a
		SerialByte = pgm_read_byte(SigReadAddress);
    733c:	e9 2f       	mov	r30, r25
    733e:	f0 e0       	ldi	r31, 0x00	; 0
    7340:	74 91       	lpm	r23, Z
		NVM_CMD = NVM_CMD_NO_OPERATION_gc; 
    7342:	f9 01       	movw	r30, r18
    7344:	10 82       	st	Z, r1

		if (SerialCharNum & 0x01)
    7346:	80 ff       	sbrs	r24, 0
    7348:	03 c0       	rjmp	.+6      	; 0x7350 <USB_HandleSetup+0x106>
		{
			SerialByte >>= 4;
    734a:	72 95       	swap	r23
    734c:	7f 70       	andi	r23, 0x0F	; 15
			SigReadAddress++;
    734e:	9f 5f       	subi	r25, 0xFF	; 255
		}

		SerialByte &= 0x0F;
    7350:	e7 2f       	mov	r30, r23
    7352:	ef 70       	andi	r30, 0x0F	; 15

		UnicodeString[SerialCharNum] = ((SerialByte >= 10) ?
    7354:	ea 30       	cpi	r30, 0x0A	; 10
    7356:	18 f0       	brcs	.+6      	; 0x735e <USB_HandleSetup+0x114>
    7358:	f0 e0       	ldi	r31, 0x00	; 0
    735a:	f7 96       	adiw	r30, 0x37	; 55
    735c:	02 c0       	rjmp	.+4      	; 0x7362 <USB_HandleSetup+0x118>
    735e:	f0 e0       	ldi	r31, 0x00	; 0
    7360:	f0 96       	adiw	r30, 0x30	; 48
    7362:	ed 93       	st	X+, r30
    7364:	fd 93       	st	X+, r31
	//uint_reg_t CurrentGlobalInt = GetGlobalInterruptMask();
	//GlobalInterruptDisable();
	
	uint8_t SigReadAddress = INTERNAL_SERIAL_START_ADDRESS;

	for (uint8_t SerialCharNum = 0; SerialCharNum < (INTERNAL_SERIAL_LENGTH_BITS / 4); SerialCharNum++)
    7366:	8f 5f       	subi	r24, 0xFF	; 255
    7368:	8c 31       	cpi	r24, 0x1C	; 28
    736a:	31 f7       	brne	.-52     	; 0x7338 <USB_HandleSetup+0xee>
	SignatureDescriptor->Header.Type = DTYPE_String;
	SignatureDescriptor->Header.Size = USB_STRING_LEN(INTERNAL_SERIAL_LENGTH_BITS / 4);
	
	USB_Device_GetSerialString(SignatureDescriptor->UnicodeString);

	b->DATAPTR = (unsigned) ep0_buf_in;
    736c:	e0 e0       	ldi	r30, 0x00	; 0
    736e:	f0 e2       	ldi	r31, 0x20	; 32
    7370:	8a e2       	ldi	r24, 0x2A	; 42
    7372:	96 e2       	ldi	r25, 0x26	; 38
    7374:	84 87       	std	Z+12, r24	; 0x0c
    7376:	95 87       	std	Z+13, r25	; 0x0d
	b->CNT = sizeof(*SignatureDescriptor);
    7378:	8a e3       	ldi	r24, 0x3A	; 58
    737a:	90 e0       	ldi	r25, 0x00	; 0
    737c:	82 87       	std	Z+10, r24	; 0x0a
    737e:	93 87       	std	Z+11, r25	; 0x0b
	LACR16(&(e->STATUS), USB_EP_BUSNACK0_bm | USB_EP_TRNCOMPL0_bm);
    7380:	e8 e0       	ldi	r30, 0x08	; 8
    7382:	f0 e2       	ldi	r31, 0x20	; 32
    7384:	02 e2       	ldi	r16, 0x22	; 34
    7386:	06 93       	lac	Z, r16
	
	#if !defined(NO_INTERNAL_SERIAL) && (USE_INTERNAL_SERIAL != NO_DESCRIPTOR)
	if (req->wValue == ((DTYPE_String << 8) | USE_INTERNAL_SERIAL))
	{
		USB_Device_GetInternalSerialDescriptor();
		return true;
    7388:	81 e0       	ldi	r24, 0x01	; 1
    738a:	8a c0       	rjmp	.+276    	; 0x74a0 <USB_HandleSetup+0x256>
	}
	#endif
	
	if ((DescriptorSize = CALLBACK_USB_GetDescriptor(req->wValue, req->wIndex, &DescriptorPointer)))
    738c:	ae 01       	movw	r20, r28
    738e:	4f 5f       	subi	r20, 0xFF	; 255
    7390:	5f 4f       	sbci	r21, 0xFF	; 255
    7392:	60 91 6e 26 	lds	r22, 0x266E	; 0x80266e <ep0_buf_out+0x4>
    7396:	0e 94 3a 04 	call	0x874	; 0x874 <CALLBACK_USB_GetDescriptor>
    739a:	00 97       	sbiw	r24, 0x00	; 0
    739c:	79 f0       	breq	.+30     	; 0x73bc <USB_HandleSetup+0x172>
	{
		if (DescriptorSize > req->wLength) DescriptorSize=req->wLength;
    739e:	20 91 70 26 	lds	r18, 0x2670	; 0x802670 <ep0_buf_out+0x6>
    73a2:	30 91 71 26 	lds	r19, 0x2671	; 0x802671 <ep0_buf_out+0x7>
		USB_ep0_send_progmem(DescriptorPointer, DescriptorSize);
    73a6:	bc 01       	movw	r22, r24
    73a8:	28 17       	cp	r18, r24
    73aa:	39 07       	cpc	r19, r25
    73ac:	08 f4       	brcc	.+2      	; 0x73b0 <USB_HandleSetup+0x166>
    73ae:	b9 01       	movw	r22, r18
    73b0:	89 81       	ldd	r24, Y+1	; 0x01
    73b2:	9a 81       	ldd	r25, Y+2	; 0x02
    73b4:	0e 94 04 39 	call	0x7208	; 0x7208 <USB_ep0_send_progmem>
		return true;
    73b8:	81 e0       	ldi	r24, 0x01	; 1
    73ba:	72 c0       	rjmp	.+228    	; 0x74a0 <USB_HandleSetup+0x256>
	}
	return false;
    73bc:	80 e0       	ldi	r24, 0x00	; 0
				LACR16(&(e->STATUS), USB_EP_BUSNACK0_bm | USB_EP_TRNCOMPL0_bm);
				return true;
			case REQ_SetAddress:
				return USB_handleSetAddress(req);
			case REQ_GetDescriptor:
				return USB_handleGetDescriptor(req);
    73be:	70 c0       	rjmp	.+224    	; 0x74a0 <USB_HandleSetup+0x256>
			case REQ_GetConfiguration:
				ep0_buf_in[0] = USB_Device_ConfigurationNumber;
    73c0:	80 91 ab 26 	lds	r24, 0x26AB	; 0x8026ab <USB_Device_ConfigurationNumber>
    73c4:	aa e2       	ldi	r26, 0x2A	; 42
    73c6:	b6 e2       	ldi	r27, 0x26	; 38
    73c8:	8c 93       	st	X, r24
				b->DATAPTR = (unsigned) ep0_buf_in;
    73ca:	e0 e0       	ldi	r30, 0x00	; 0
    73cc:	f0 e2       	ldi	r31, 0x20	; 32
    73ce:	a4 87       	std	Z+12, r26	; 0x0c
    73d0:	b5 87       	std	Z+13, r27	; 0x0d
				b->CNT = 1;
    73d2:	81 e0       	ldi	r24, 0x01	; 1
    73d4:	90 e0       	ldi	r25, 0x00	; 0
    73d6:	82 87       	std	Z+10, r24	; 0x0a
    73d8:	93 87       	std	Z+11, r25	; 0x0b
				LACR16(&(e->STATUS), USB_EP_BUSNACK0_bm | USB_EP_TRNCOMPL0_bm);
    73da:	e8 e0       	ldi	r30, 0x08	; 8
    73dc:	f0 e2       	ldi	r31, 0x20	; 32
    73de:	02 e2       	ldi	r16, 0x22	; 34
    73e0:	06 93       	lac	Z, r16
				return true;
    73e2:	5e c0       	rjmp	.+188    	; 0x74a0 <USB_HandleSetup+0x256>
	USB_Descriptor_Device_t* DevDescriptorPtr;
	USB_EP_pair_t* pair = &endpoints[0];
	USB_EP_t* e = &pair->ep[1];
	USB_EP_t* b = &pair->ep[1];

	uint8_t r = CALLBACK_USB_GetDescriptor((DTYPE_Device << 8), 0, (void*)&DevDescriptorPtr);
    73e4:	ae 01       	movw	r20, r28
    73e6:	4f 5f       	subi	r20, 0xFF	; 255
    73e8:	5f 4f       	sbci	r21, 0xFF	; 255
    73ea:	60 e0       	ldi	r22, 0x00	; 0
    73ec:	80 e0       	ldi	r24, 0x00	; 0
    73ee:	91 e0       	ldi	r25, 0x01	; 1
    73f0:	0e 94 3a 04 	call	0x874	; 0x874 <CALLBACK_USB_GetDescriptor>
	if (r == NO_DESCRIPTOR) return false;
    73f4:	88 23       	and	r24, r24
    73f6:	a9 f1       	breq	.+106    	; 0x7462 <USB_HandleSetup+0x218>
	
	NVM.CMD = NVM_CMD_NO_OPERATION_gc;
    73f8:	10 92 ca 01 	sts	0x01CA, r1	; 0x8001ca <__TEXT_REGION_LENGTH__+0x7001ca>
	uint8_t num_configs = pgm_read_byte(&DevDescriptorPtr->NumberOfConfigurations);
    73fc:	e9 81       	ldd	r30, Y+1	; 0x01
    73fe:	fa 81       	ldd	r31, Y+2	; 0x02
    7400:	71 96       	adiw	r30, 0x11	; 17
    7402:	84 91       	lpm	r24, Z
	
	if ((uint8_t)req->wValue > num_configs) return false;
    7404:	20 91 6c 26 	lds	r18, 0x266C	; 0x80266c <ep0_buf_out+0x2>
    7408:	30 91 6d 26 	lds	r19, 0x266D	; 0x80266d <ep0_buf_out+0x3>
    740c:	a9 01       	movw	r20, r18
    740e:	55 27       	eor	r21, r21
    7410:	90 e0       	ldi	r25, 0x00	; 0
    7412:	84 17       	cp	r24, r20
    7414:	95 07       	cpc	r25, r21
    7416:	3c f1       	brlt	.+78     	; 0x7466 <USB_HandleSetup+0x21c>

	b->DATAPTR = (unsigned) ep0_buf_in;
    7418:	e0 e0       	ldi	r30, 0x00	; 0
    741a:	f0 e2       	ldi	r31, 0x20	; 32
    741c:	8a e2       	ldi	r24, 0x2A	; 42
    741e:	96 e2       	ldi	r25, 0x26	; 38
    7420:	84 87       	std	Z+12, r24	; 0x0c
    7422:	95 87       	std	Z+13, r25	; 0x0d
	b->CNT = 0;
    7424:	12 86       	std	Z+10, r1	; 0x0a
    7426:	13 86       	std	Z+11, r1	; 0x0b
	LACR16(&(e->STATUS), USB_EP_BUSNACK0_bm | USB_EP_TRNCOMPL0_bm);
    7428:	e8 e0       	ldi	r30, 0x08	; 8
    742a:	f0 e2       	ldi	r31, 0x20	; 32
    742c:	02 e2       	ldi	r16, 0x22	; 34
    742e:	06 93       	lac	Z, r16

	USB_Device_ConfigurationNumber = (uint8_t)(req -> wValue);
    7430:	20 93 ab 26 	sts	0x26AB, r18	; 0x8026ab <USB_Device_ConfigurationNumber>

	if (USB_Device_ConfigurationNumber)
    7434:	80 91 ab 26 	lds	r24, 0x26AB	; 0x8026ab <USB_Device_ConfigurationNumber>
    7438:	88 23       	and	r24, r24
    743a:	21 f0       	breq	.+8      	; 0x7444 <USB_HandleSetup+0x1fa>
	  USB_DeviceState = DEVICE_STATE_Configured;
    743c:	84 e0       	ldi	r24, 0x04	; 4
    743e:	80 93 aa 26 	sts	0x26AA, r24	; 0x8026aa <USB_DeviceState>
    7442:	09 c0       	rjmp	.+18     	; 0x7456 <USB_HandleSetup+0x20c>
	else
	  USB_DeviceState = (USB.ADDR) ? DEVICE_STATE_Configured : DEVICE_STATE_Powered;
    7444:	80 91 c3 04 	lds	r24, 0x04C3	; 0x8004c3 <__TEXT_REGION_LENGTH__+0x7004c3>
    7448:	81 11       	cpse	r24, r1
    744a:	02 c0       	rjmp	.+4      	; 0x7450 <USB_HandleSetup+0x206>
    744c:	81 e0       	ldi	r24, 0x01	; 1
    744e:	01 c0       	rjmp	.+2      	; 0x7452 <USB_HandleSetup+0x208>
    7450:	84 e0       	ldi	r24, 0x04	; 4
    7452:	80 93 aa 26 	sts	0x26AA, r24	; 0x8026aa <USB_DeviceState>

	EVENT_USB_Device_ConfigurationChanged(USB_Device_ConfigurationNumber);
    7456:	80 91 ab 26 	lds	r24, 0x26AB	; 0x8026ab <USB_Device_ConfigurationNumber>
    745a:	0e 94 48 35 	call	0x6a90	; 0x6a90 <EVENT_USB_Device_ConfigurationChanged>
	return true;
    745e:	81 e0       	ldi	r24, 0x01	; 1
    7460:	1f c0       	rjmp	.+62     	; 0x74a0 <USB_HandleSetup+0x256>
	USB_EP_pair_t* pair = &endpoints[0];
	USB_EP_t* e = &pair->ep[1];
	USB_EP_t* b = &pair->ep[1];

	uint8_t r = CALLBACK_USB_GetDescriptor((DTYPE_Device << 8), 0, (void*)&DevDescriptorPtr);
	if (r == NO_DESCRIPTOR) return false;
    7462:	80 e0       	ldi	r24, 0x00	; 0
    7464:	1d c0       	rjmp	.+58     	; 0x74a0 <USB_HandleSetup+0x256>
	
	NVM.CMD = NVM_CMD_NO_OPERATION_gc;
	uint8_t num_configs = pgm_read_byte(&DevDescriptorPtr->NumberOfConfigurations);
	
	if ((uint8_t)req->wValue > num_configs) return false;
    7466:	80 e0       	ldi	r24, 0x00	; 0
				b->DATAPTR = (unsigned) ep0_buf_in;
				b->CNT = 1;
				LACR16(&(e->STATUS), USB_EP_BUSNACK0_bm | USB_EP_TRNCOMPL0_bm);
				return true;
			case REQ_SetConfiguration:
				return USB_handleSetConfiguration(req);
    7468:	1b c0       	rjmp	.+54     	; 0x74a0 <USB_HandleSetup+0x256>
			case REQ_SetInterface:
				if (EVENT_USB_Device_SetInterface(req->wIndex, req->wValue))
    746a:	ea e6       	ldi	r30, 0x6A	; 106
    746c:	f6 e2       	ldi	r31, 0x26	; 38
    746e:	62 81       	ldd	r22, Z+2	; 0x02
    7470:	84 81       	ldd	r24, Z+4	; 0x04
    7472:	0e 94 46 35 	call	0x6a8c	; 0x6a8c <EVENT_USB_Device_SetInterface>
    7476:	88 23       	and	r24, r24
    7478:	99 f0       	breq	.+38     	; 0x74a0 <USB_HandleSetup+0x256>
				{
					b->DATAPTR = (unsigned) ep0_buf_in;
    747a:	e0 e0       	ldi	r30, 0x00	; 0
    747c:	f0 e2       	ldi	r31, 0x20	; 32
    747e:	2a e2       	ldi	r18, 0x2A	; 42
    7480:	36 e2       	ldi	r19, 0x26	; 38
    7482:	24 87       	std	Z+12, r18	; 0x0c
    7484:	35 87       	std	Z+13, r19	; 0x0d
					b->CNT = 0;
    7486:	12 86       	std	Z+10, r1	; 0x0a
    7488:	13 86       	std	Z+11, r1	; 0x0b
					LACR16(&(e->STATUS), USB_EP_BUSNACK0_bm | USB_EP_TRNCOMPL0_bm);
    748a:	e8 e0       	ldi	r30, 0x08	; 8
    748c:	f0 e2       	ldi	r31, 0x20	; 32
    748e:	02 e2       	ldi	r16, 0x22	; 34
    7490:	06 93       	lac	Z, r16
					return true;
    7492:	06 c0       	rjmp	.+12     	; 0x74a0 <USB_HandleSetup+0x256>
			case REQ_GetInterface:
				return false;
		}
	}
	
	return EVENT_USB_Device_ControlRequest(req);
    7494:	8a e6       	ldi	r24, 0x6A	; 106
    7496:	96 e2       	ldi	r25, 0x26	; 38
    7498:	0e 94 67 35 	call	0x6ace	; 0x6ace <EVENT_USB_Device_ControlRequest>
    749c:	01 c0       	rjmp	.+2      	; 0x74a0 <USB_HandleSetup+0x256>
					b->CNT = 0;
					LACR16(&(e->STATUS), USB_EP_BUSNACK0_bm | USB_EP_TRNCOMPL0_bm);
					return true;
				}
			case REQ_GetInterface:
				return false;
    749e:	80 e0       	ldi	r24, 0x00	; 0
		}
	}
	
	return EVENT_USB_Device_ControlRequest(req);
}
    74a0:	0f 90       	pop	r0
    74a2:	0f 90       	pop	r0
    74a4:	df 91       	pop	r29
    74a6:	cf 91       	pop	r28
    74a8:	0f 91       	pop	r16
    74aa:	08 95       	ret

000074ac <USB_Evt_Task>:
}


void USB_Evt_Task(void)  // USB Tasks
{
	if (USB.STATUS & USB_BUSRST_bm)
    74ac:	80 91 c2 04 	lds	r24, 0x04C2	; 0x8004c2 <__TEXT_REGION_LENGTH__+0x7004c2>
    74b0:	80 ff       	sbrs	r24, 0
    74b2:	07 c0       	rjmp	.+14     	; 0x74c2 <USB_Evt_Task+0x16>
	{
		USB.STATUS &= ~USB_BUSRST_bm;
    74b4:	e0 ec       	ldi	r30, 0xC0	; 192
    74b6:	f4 e0       	ldi	r31, 0x04	; 4
    74b8:	82 81       	ldd	r24, Z+2	; 0x02
    74ba:	8e 7f       	andi	r24, 0xFE	; 254
    74bc:	82 83       	std	Z+2, r24	; 0x02
		USB_xm_Init();
    74be:	0e 94 e8 38 	call	0x71d0	; 0x71d0 <USB_xm_Init>
    74c2:	08 95       	ret

000074c4 <__vector_125>:
#include "usb_xm.h"
#include "main.h"


ISR(USB_BUSEVENT_vect)  // global IRQ
{
    74c4:	1f 92       	push	r1
    74c6:	0f 92       	push	r0
    74c8:	0f b6       	in	r0, 0x3f	; 63
    74ca:	0f 92       	push	r0
    74cc:	11 24       	eor	r1, r1
    74ce:	0b b6       	in	r0, 0x3b	; 59
    74d0:	0f 92       	push	r0
    74d2:	2f 93       	push	r18
    74d4:	3f 93       	push	r19
    74d6:	4f 93       	push	r20
    74d8:	5f 93       	push	r21
    74da:	6f 93       	push	r22
    74dc:	7f 93       	push	r23
    74de:	8f 93       	push	r24
    74e0:	9f 93       	push	r25
    74e2:	af 93       	push	r26
    74e4:	bf 93       	push	r27
    74e6:	ef 93       	push	r30
    74e8:	ff 93       	push	r31
	if (USB.INTFLAGSACLR & USB_SOFIF_bm)
    74ea:	80 91 ca 04 	lds	r24, 0x04CA	; 0x8004ca <__TEXT_REGION_LENGTH__+0x7004ca>
    74ee:	88 23       	and	r24, r24
    74f0:	24 f4       	brge	.+8      	; 0x74fa <__vector_125+0x36>
	{
		USB.INTFLAGSACLR = USB_SOFIF_bm;
    74f2:	80 e8       	ldi	r24, 0x80	; 128
    74f4:	80 93 ca 04 	sts	0x04CA, r24	; 0x8004ca <__TEXT_REGION_LENGTH__+0x7004ca>
    74f8:	2c c0       	rjmp	.+88     	; 0x7552 <__vector_125+0x8e>
	}
	else if (USB.INTFLAGSACLR & (USB_CRCIF_bm | USB_UNFIF_bm | USB_OVFIF_bm))
    74fa:	80 91 ca 04 	lds	r24, 0x04CA	; 0x8004ca <__TEXT_REGION_LENGTH__+0x7004ca>
    74fe:	8e 70       	andi	r24, 0x0E	; 14
    7500:	21 f0       	breq	.+8      	; 0x750a <__vector_125+0x46>
	{
		USB.INTFLAGSACLR = (USB_CRCIF_bm | USB_UNFIF_bm | USB_OVFIF_bm);
    7502:	8e e0       	ldi	r24, 0x0E	; 14
    7504:	80 93 ca 04 	sts	0x04CA, r24	; 0x8004ca <__TEXT_REGION_LENGTH__+0x7004ca>
    7508:	24 c0       	rjmp	.+72     	; 0x7552 <__vector_125+0x8e>
	}
	else if (USB.INTFLAGSACLR & USB_STALLIF_bm)
    750a:	80 91 ca 04 	lds	r24, 0x04CA	; 0x8004ca <__TEXT_REGION_LENGTH__+0x7004ca>
    750e:	80 ff       	sbrs	r24, 0
    7510:	04 c0       	rjmp	.+8      	; 0x751a <__vector_125+0x56>
	{
		USB.INTFLAGSACLR = USB_STALLIF_bm;
    7512:	81 e0       	ldi	r24, 0x01	; 1
    7514:	80 93 ca 04 	sts	0x04CA, r24	; 0x8004ca <__TEXT_REGION_LENGTH__+0x7004ca>
    7518:	1c c0       	rjmp	.+56     	; 0x7552 <__vector_125+0x8e>
	}
	else
	{
		if (USB.INTFLAGSACLR & USB_SUSPENDIF_bm)
    751a:	80 91 ca 04 	lds	r24, 0x04CA	; 0x8004ca <__TEXT_REGION_LENGTH__+0x7004ca>
    751e:	86 fd       	sbrc	r24, 6
		{
			EVENT_USB_Device_Suspend();
    7520:	0e 94 55 35 	call	0x6aaa	; 0x6aaa <EVENT_USB_Device_Suspend>
		}

		if (USB.INTFLAGSACLR & USB_RESUMEIF_bm)
    7524:	80 91 ca 04 	lds	r24, 0x04CA	; 0x8004ca <__TEXT_REGION_LENGTH__+0x7004ca>
    7528:	85 fd       	sbrc	r24, 5
		{
			EVENT_USB_Device_WakeUp();
    752a:	0e 94 56 35 	call	0x6aac	; 0x6aac <EVENT_USB_Device_WakeUp>
		}

		if (USB.INTFLAGSACLR & USB_RSTIF_bm)
    752e:	80 91 ca 04 	lds	r24, 0x04CA	; 0x8004ca <__TEXT_REGION_LENGTH__+0x7004ca>
    7532:	84 ff       	sbrs	r24, 4
    7534:	09 c0       	rjmp	.+18     	; 0x7548 <__vector_125+0x84>
		{
			USB.ADDR=0;
    7536:	10 92 c3 04 	sts	0x04C3, r1	; 0x8004c3 <__TEXT_REGION_LENGTH__+0x7004c3>
			USB_DeviceState=DEVICE_STATE_Default;
    753a:	82 e0       	ldi	r24, 0x02	; 2
    753c:	80 93 aa 26 	sts	0x26AA, r24	; 0x8026aa <USB_DeviceState>
			USB_ResetInterface();
    7540:	0e 94 c3 38 	call	0x7186	; 0x7186 <USB_ResetInterface>
			EVENT_USB_Device_Reset();
    7544:	0e 94 57 35 	call	0x6aae	; 0x6aae <EVENT_USB_Device_Reset>
		}

		USB.INTFLAGSACLR = USB_SUSPENDIF_bm | USB_RESUMEIF_bm | USB_RSTIF_bm;
    7548:	80 e7       	ldi	r24, 0x70	; 112
    754a:	80 93 ca 04 	sts	0x04CA, r24	; 0x8004ca <__TEXT_REGION_LENGTH__+0x7004ca>
		USB_Evt_Task();
    754e:	0e 94 56 3a 	call	0x74ac	; 0x74ac <USB_Evt_Task>
	}
}
    7552:	ff 91       	pop	r31
    7554:	ef 91       	pop	r30
    7556:	bf 91       	pop	r27
    7558:	af 91       	pop	r26
    755a:	9f 91       	pop	r25
    755c:	8f 91       	pop	r24
    755e:	7f 91       	pop	r23
    7560:	6f 91       	pop	r22
    7562:	5f 91       	pop	r21
    7564:	4f 91       	pop	r20
    7566:	3f 91       	pop	r19
    7568:	2f 91       	pop	r18
    756a:	0f 90       	pop	r0
    756c:	0b be       	out	0x3b, r0	; 59
    756e:	0f 90       	pop	r0
    7570:	0f be       	out	0x3f, r0	; 63
    7572:	0f 90       	pop	r0
    7574:	1f 90       	pop	r1
    7576:	18 95       	reti

00007578 <USB_Task>:
	}
}


void USB_Task(void)  // is call from irq
{
    7578:	0f 93       	push	r16
	// Read once to prevent race condition where SETUP packet is interpreted as OUT
	uint8_t status = endpoints[0].out.STATUS;
    757a:	80 91 00 20 	lds	r24, 0x2000	; 0x802000 <__data_start>

	if (status & USB_EP_SETUP_bm)
    757e:	84 ff       	sbrs	r24, 4
    7580:	11 c0       	rjmp	.+34     	; 0x75a4 <USB_Task+0x2c>
	{
		if (!USB_HandleSetup())
    7582:	0e 94 25 39 	call	0x724a	; 0x724a <USB_HandleSetup>
    7586:	81 11       	cpse	r24, r1
    7588:	08 c0       	rjmp	.+16     	; 0x759a <USB_Task+0x22>
		{
			endpoints[0].out.CTRL |= USB_EP_STALL_bm;
    758a:	e0 e0       	ldi	r30, 0x00	; 0
    758c:	f0 e2       	ldi	r31, 0x20	; 32
    758e:	81 81       	ldd	r24, Z+1	; 0x01
    7590:	84 60       	ori	r24, 0x04	; 4
    7592:	81 83       	std	Z+1, r24	; 0x01
			endpoints[0].in.CTRL |= USB_EP_STALL_bm; 
    7594:	81 85       	ldd	r24, Z+9	; 0x09
    7596:	84 60       	ori	r24, 0x04	; 4
    7598:	81 87       	std	Z+9, r24	; 0x09
		}
		LACR16(&endpoints[0].out.STATUS, USB_EP_SETUP_bm | USB_EP_BUSNACK0_bm | USB_EP_TRNCOMPL0_bm | USB_EP_OVF_bm);
    759a:	e0 e0       	ldi	r30, 0x00	; 0
    759c:	f0 e2       	ldi	r31, 0x20	; 32
    759e:	02 e7       	ldi	r16, 0x72	; 114
    75a0:	06 93       	lac	Z, r16
    75a2:	0e c0       	rjmp	.+28     	; 0x75c0 <USB_Task+0x48>
	}
	else if(status & USB_EP_TRNCOMPL0_bm)
    75a4:	85 ff       	sbrs	r24, 5
    75a6:	0c c0       	rjmp	.+24     	; 0x75c0 <USB_Task+0x48>
	{
		EVENT_USB_Device_ControlOUT((uint8_t *) ep0_buf_out, endpoints[0].out.CNT);
    75a8:	60 91 02 20 	lds	r22, 0x2002	; 0x802002 <__data_start+0x2>
    75ac:	70 91 03 20 	lds	r23, 0x2003	; 0x802003 <__data_start+0x3>
    75b0:	8a e6       	ldi	r24, 0x6A	; 106
    75b2:	96 e2       	ldi	r25, 0x26	; 38
    75b4:	0e 94 58 35 	call	0x6ab0	; 0x6ab0 <EVENT_USB_Device_ControlOUT>
		LACR16(&endpoints[0].out.STATUS, USB_EP_SETUP_bm | USB_EP_BUSNACK0_bm | USB_EP_TRNCOMPL0_bm | USB_EP_OVF_bm);
    75b8:	e0 e0       	ldi	r30, 0x00	; 0
    75ba:	f0 e2       	ldi	r31, 0x20	; 32
    75bc:	02 e7       	ldi	r16, 0x72	; 114
    75be:	06 93       	lac	Z, r16
	}
}
    75c0:	0f 91       	pop	r16
    75c2:	08 95       	ret

000075c4 <__vector_126>:
		USB_Evt_Task();
	}
}

ISR(USB_TRNCOMPL_vect)  // irq for transaktion complete
{
    75c4:	1f 92       	push	r1
    75c6:	0f 92       	push	r0
    75c8:	0f b6       	in	r0, 0x3f	; 63
    75ca:	0f 92       	push	r0
    75cc:	11 24       	eor	r1, r1
    75ce:	0b b6       	in	r0, 0x3b	; 59
    75d0:	0f 92       	push	r0
    75d2:	2f 93       	push	r18
    75d4:	3f 93       	push	r19
    75d6:	4f 93       	push	r20
    75d8:	5f 93       	push	r21
    75da:	6f 93       	push	r22
    75dc:	7f 93       	push	r23
    75de:	8f 93       	push	r24
    75e0:	9f 93       	push	r25
    75e2:	af 93       	push	r26
    75e4:	bf 93       	push	r27
    75e6:	ef 93       	push	r30
    75e8:	ff 93       	push	r31
	USB.FIFOWP = 0;
    75ea:	e0 ec       	ldi	r30, 0xC0	; 192
    75ec:	f4 e0       	ldi	r31, 0x04	; 4
    75ee:	14 82       	std	Z+4, r1	; 0x04
	USB.INTFLAGSBCLR = USB_SETUPIF_bm | USB_TRNIF_bm;
    75f0:	83 e0       	ldi	r24, 0x03	; 3
    75f2:	84 87       	std	Z+12, r24	; 0x0c
	USB_Task();
    75f4:	0e 94 bc 3a 	call	0x7578	; 0x7578 <USB_Task>
}
    75f8:	ff 91       	pop	r31
    75fa:	ef 91       	pop	r30
    75fc:	bf 91       	pop	r27
    75fe:	af 91       	pop	r26
    7600:	9f 91       	pop	r25
    7602:	8f 91       	pop	r24
    7604:	7f 91       	pop	r23
    7606:	6f 91       	pop	r22
    7608:	5f 91       	pop	r21
    760a:	4f 91       	pop	r20
    760c:	3f 91       	pop	r19
    760e:	2f 91       	pop	r18
    7610:	0f 90       	pop	r0
    7612:	0b be       	out	0x3b, r0	; 59
    7614:	0f 90       	pop	r0
    7616:	0f be       	out	0x3f, r0	; 63
    7618:	0f 90       	pop	r0
    761a:	1f 90       	pop	r1
    761c:	18 95       	reti

0000761e <__udivmodsi4>:
    761e:	a1 e2       	ldi	r26, 0x21	; 33
    7620:	1a 2e       	mov	r1, r26
    7622:	aa 1b       	sub	r26, r26
    7624:	bb 1b       	sub	r27, r27
    7626:	fd 01       	movw	r30, r26
    7628:	0d c0       	rjmp	.+26     	; 0x7644 <__udivmodsi4_ep>

0000762a <__udivmodsi4_loop>:
    762a:	aa 1f       	adc	r26, r26
    762c:	bb 1f       	adc	r27, r27
    762e:	ee 1f       	adc	r30, r30
    7630:	ff 1f       	adc	r31, r31
    7632:	a2 17       	cp	r26, r18
    7634:	b3 07       	cpc	r27, r19
    7636:	e4 07       	cpc	r30, r20
    7638:	f5 07       	cpc	r31, r21
    763a:	20 f0       	brcs	.+8      	; 0x7644 <__udivmodsi4_ep>
    763c:	a2 1b       	sub	r26, r18
    763e:	b3 0b       	sbc	r27, r19
    7640:	e4 0b       	sbc	r30, r20
    7642:	f5 0b       	sbc	r31, r21

00007644 <__udivmodsi4_ep>:
    7644:	66 1f       	adc	r22, r22
    7646:	77 1f       	adc	r23, r23
    7648:	88 1f       	adc	r24, r24
    764a:	99 1f       	adc	r25, r25
    764c:	1a 94       	dec	r1
    764e:	69 f7       	brne	.-38     	; 0x762a <__udivmodsi4_loop>
    7650:	60 95       	com	r22
    7652:	70 95       	com	r23
    7654:	80 95       	com	r24
    7656:	90 95       	com	r25
    7658:	9b 01       	movw	r18, r22
    765a:	ac 01       	movw	r20, r24
    765c:	bd 01       	movw	r22, r26
    765e:	cf 01       	movw	r24, r30
    7660:	08 95       	ret

00007662 <__divmodsi4>:
    7662:	05 2e       	mov	r0, r21
    7664:	97 fb       	bst	r25, 7
    7666:	1e f4       	brtc	.+6      	; 0x766e <__divmodsi4+0xc>
    7668:	00 94       	com	r0
    766a:	0e 94 48 3b 	call	0x7690	; 0x7690 <__negsi2>
    766e:	57 fd       	sbrc	r21, 7
    7670:	07 d0       	rcall	.+14     	; 0x7680 <__divmodsi4_neg2>
    7672:	0e 94 0f 3b 	call	0x761e	; 0x761e <__udivmodsi4>
    7676:	07 fc       	sbrc	r0, 7
    7678:	03 d0       	rcall	.+6      	; 0x7680 <__divmodsi4_neg2>
    767a:	4e f4       	brtc	.+18     	; 0x768e <__divmodsi4_exit>
    767c:	0c 94 48 3b 	jmp	0x7690	; 0x7690 <__negsi2>

00007680 <__divmodsi4_neg2>:
    7680:	50 95       	com	r21
    7682:	40 95       	com	r20
    7684:	30 95       	com	r19
    7686:	21 95       	neg	r18
    7688:	3f 4f       	sbci	r19, 0xFF	; 255
    768a:	4f 4f       	sbci	r20, 0xFF	; 255
    768c:	5f 4f       	sbci	r21, 0xFF	; 255

0000768e <__divmodsi4_exit>:
    768e:	08 95       	ret

00007690 <__negsi2>:
    7690:	90 95       	com	r25
    7692:	80 95       	com	r24
    7694:	70 95       	com	r23
    7696:	61 95       	neg	r22
    7698:	7f 4f       	sbci	r23, 0xFF	; 255
    769a:	8f 4f       	sbci	r24, 0xFF	; 255
    769c:	9f 4f       	sbci	r25, 0xFF	; 255
    769e:	08 95       	ret

000076a0 <__tablejump2__>:
    76a0:	ee 0f       	add	r30, r30
    76a2:	ff 1f       	adc	r31, r31
    76a4:	00 24       	eor	r0, r0
    76a6:	00 1c       	adc	r0, r0
    76a8:	0b be       	out	0x3b, r0	; 59
    76aa:	07 90       	elpm	r0, Z+
    76ac:	f6 91       	elpm	r31, Z
    76ae:	e0 2d       	mov	r30, r0
    76b0:	09 94       	ijmp

000076b2 <__umulhisi3>:
    76b2:	a2 9f       	mul	r26, r18
    76b4:	b0 01       	movw	r22, r0
    76b6:	b3 9f       	mul	r27, r19
    76b8:	c0 01       	movw	r24, r0
    76ba:	a3 9f       	mul	r26, r19
    76bc:	70 0d       	add	r23, r0
    76be:	81 1d       	adc	r24, r1
    76c0:	11 24       	eor	r1, r1
    76c2:	91 1d       	adc	r25, r1
    76c4:	b2 9f       	mul	r27, r18
    76c6:	70 0d       	add	r23, r0
    76c8:	81 1d       	adc	r24, r1
    76ca:	11 24       	eor	r1, r1
    76cc:	91 1d       	adc	r25, r1
    76ce:	08 95       	ret

000076d0 <__usmulhisi3>:
    76d0:	0e 94 59 3b 	call	0x76b2	; 0x76b2 <__umulhisi3>

000076d4 <__usmulhisi3_tail>:
    76d4:	b7 ff       	sbrs	r27, 7
    76d6:	08 95       	ret
    76d8:	82 1b       	sub	r24, r18
    76da:	93 0b       	sbc	r25, r19
    76dc:	08 95       	ret

000076de <__muluhisi3>:
    76de:	0e 94 59 3b 	call	0x76b2	; 0x76b2 <__umulhisi3>
    76e2:	a5 9f       	mul	r26, r21
    76e4:	90 0d       	add	r25, r0
    76e6:	b4 9f       	mul	r27, r20
    76e8:	90 0d       	add	r25, r0
    76ea:	a4 9f       	mul	r26, r20
    76ec:	80 0d       	add	r24, r0
    76ee:	91 1d       	adc	r25, r1
    76f0:	11 24       	eor	r1, r1
    76f2:	08 95       	ret

000076f4 <memcpy>:
    76f4:	fb 01       	movw	r30, r22
    76f6:	dc 01       	movw	r26, r24
    76f8:	02 c0       	rjmp	.+4      	; 0x76fe <memcpy+0xa>
    76fa:	01 90       	ld	r0, Z+
    76fc:	0d 92       	st	X+, r0
    76fe:	41 50       	subi	r20, 0x01	; 1
    7700:	50 40       	sbci	r21, 0x00	; 0
    7702:	d8 f7       	brcc	.-10     	; 0x76fa <memcpy+0x6>
    7704:	08 95       	ret

00007706 <strcat>:
    7706:	fb 01       	movw	r30, r22
    7708:	dc 01       	movw	r26, r24
    770a:	0d 90       	ld	r0, X+
    770c:	00 20       	and	r0, r0
    770e:	e9 f7       	brne	.-6      	; 0x770a <strcat+0x4>
    7710:	11 97       	sbiw	r26, 0x01	; 1
    7712:	01 90       	ld	r0, Z+
    7714:	0d 92       	st	X+, r0
    7716:	00 20       	and	r0, r0
    7718:	e1 f7       	brne	.-8      	; 0x7712 <strcat+0xc>
    771a:	08 95       	ret

0000771c <strcpy>:
    771c:	fb 01       	movw	r30, r22
    771e:	dc 01       	movw	r26, r24
    7720:	01 90       	ld	r0, Z+
    7722:	0d 92       	st	X+, r0
    7724:	00 20       	and	r0, r0
    7726:	e1 f7       	brne	.-8      	; 0x7720 <strcpy+0x4>
    7728:	08 95       	ret

0000772a <__ultoa_ncheck>:
    772a:	bb 27       	eor	r27, r27

0000772c <__ultoa_common>:
    772c:	fa 01       	movw	r30, r20
    772e:	a6 2f       	mov	r26, r22
    7730:	62 17       	cp	r22, r18
    7732:	71 05       	cpc	r23, r1
    7734:	81 05       	cpc	r24, r1
    7736:	91 05       	cpc	r25, r1
    7738:	33 0b       	sbc	r19, r19
    773a:	30 fb       	bst	r19, 0
    773c:	66 f0       	brts	.+24     	; 0x7756 <__ultoa_common+0x2a>
    773e:	aa 27       	eor	r26, r26
    7740:	66 0f       	add	r22, r22
    7742:	77 1f       	adc	r23, r23
    7744:	88 1f       	adc	r24, r24
    7746:	99 1f       	adc	r25, r25
    7748:	aa 1f       	adc	r26, r26
    774a:	a2 17       	cp	r26, r18
    774c:	10 f0       	brcs	.+4      	; 0x7752 <__ultoa_common+0x26>
    774e:	a2 1b       	sub	r26, r18
    7750:	63 95       	inc	r22
    7752:	38 50       	subi	r19, 0x08	; 8
    7754:	a9 f7       	brne	.-22     	; 0x7740 <__ultoa_common+0x14>
    7756:	a0 5d       	subi	r26, 0xD0	; 208
    7758:	aa 33       	cpi	r26, 0x3A	; 58
    775a:	08 f0       	brcs	.+2      	; 0x775e <__ultoa_common+0x32>
    775c:	a9 5d       	subi	r26, 0xD9	; 217
    775e:	a1 93       	st	Z+, r26
    7760:	36 f7       	brtc	.-52     	; 0x772e <__ultoa_common+0x2>
    7762:	b1 11       	cpse	r27, r1
    7764:	b1 93       	st	Z+, r27
    7766:	10 82       	st	Z, r1
    7768:	ca 01       	movw	r24, r20
    776a:	0c 94 d1 3b 	jmp	0x77a2	; 0x77a2 <strrev>

0000776e <__utoa_ncheck>:
    776e:	bb 27       	eor	r27, r27

00007770 <__utoa_common>:
    7770:	fb 01       	movw	r30, r22
    7772:	55 27       	eor	r21, r21
    7774:	aa 27       	eor	r26, r26
    7776:	88 0f       	add	r24, r24
    7778:	99 1f       	adc	r25, r25
    777a:	aa 1f       	adc	r26, r26
    777c:	a4 17       	cp	r26, r20
    777e:	10 f0       	brcs	.+4      	; 0x7784 <__utoa_common+0x14>
    7780:	a4 1b       	sub	r26, r20
    7782:	83 95       	inc	r24
    7784:	50 51       	subi	r21, 0x10	; 16
    7786:	b9 f7       	brne	.-18     	; 0x7776 <__utoa_common+0x6>
    7788:	a0 5d       	subi	r26, 0xD0	; 208
    778a:	aa 33       	cpi	r26, 0x3A	; 58
    778c:	08 f0       	brcs	.+2      	; 0x7790 <__utoa_common+0x20>
    778e:	a9 5d       	subi	r26, 0xD9	; 217
    7790:	a1 93       	st	Z+, r26
    7792:	00 97       	sbiw	r24, 0x00	; 0
    7794:	79 f7       	brne	.-34     	; 0x7774 <__utoa_common+0x4>
    7796:	b1 11       	cpse	r27, r1
    7798:	b1 93       	st	Z+, r27
    779a:	11 92       	st	Z+, r1
    779c:	cb 01       	movw	r24, r22
    779e:	0c 94 d1 3b 	jmp	0x77a2	; 0x77a2 <strrev>

000077a2 <strrev>:
    77a2:	dc 01       	movw	r26, r24
    77a4:	fc 01       	movw	r30, r24
    77a6:	67 2f       	mov	r22, r23
    77a8:	71 91       	ld	r23, Z+
    77aa:	77 23       	and	r23, r23
    77ac:	e1 f7       	brne	.-8      	; 0x77a6 <strrev+0x4>
    77ae:	32 97       	sbiw	r30, 0x02	; 2
    77b0:	04 c0       	rjmp	.+8      	; 0x77ba <strrev+0x18>
    77b2:	7c 91       	ld	r23, X
    77b4:	6d 93       	st	X+, r22
    77b6:	70 83       	st	Z, r23
    77b8:	62 91       	ld	r22, -Z
    77ba:	ae 17       	cp	r26, r30
    77bc:	bf 07       	cpc	r27, r31
    77be:	c8 f3       	brcs	.-14     	; 0x77b2 <strrev+0x10>
    77c0:	08 95       	ret

000077c2 <eeprom_read_byte>:
    77c2:	03 d0       	rcall	.+6      	; 0x77ca <eeprom_mapen>
    77c4:	80 81       	ld	r24, Z
    77c6:	99 27       	eor	r25, r25
    77c8:	08 95       	ret

000077ca <eeprom_mapen>:
    77ca:	e0 ec       	ldi	r30, 0xC0	; 192
    77cc:	f1 e0       	ldi	r31, 0x01	; 1
    77ce:	37 85       	ldd	r19, Z+15	; 0x0f
    77d0:	37 fd       	sbrc	r19, 7
    77d2:	fd cf       	rjmp	.-6      	; 0x77ce <eeprom_mapen+0x4>
    77d4:	34 85       	ldd	r19, Z+12	; 0x0c
    77d6:	38 60       	ori	r19, 0x08	; 8
    77d8:	34 87       	std	Z+12, r19	; 0x0c
    77da:	fc 01       	movw	r30, r24
    77dc:	e0 50       	subi	r30, 0x00	; 0
    77de:	f0 4f       	sbci	r31, 0xF0	; 240
    77e0:	08 95       	ret

000077e2 <_exit>:
    77e2:	f8 94       	cli

000077e4 <__stop_program>:
    77e4:	ff cf       	rjmp	.-2      	; 0x77e4 <__stop_program>
